
/home/wxz/data/RV32_chisel/benchmark/sim_hex/main.elf:     file format elf32-littleriscv


Disassembly of section .data:

00040000 <.L4>:
   40000:	008c                	addi	x11,x2,64
   40002:	0000                	unimp
   40004:	005c                	addi	x15,x2,4
   40006:	0000                	unimp
   40008:	0068                	addi	x10,x2,12
   4000a:	0000                	unimp
   4000c:	0074                	addi	x13,x2,12
   4000e:	0000                	unimp
   40010:	0080                	addi	x8,x2,64
   40012:	0000                	unimp
   40014:	0050                	addi	x12,x2,4
	...

00040018 <outputAddr>:
   40018:	0000                	unimp
   4001a:	          	0x2407f03

0004001c <intpat>:
   4001c:	0240                	addi	x8,x2,260
   4001e:	0004                	0x4
   40020:	0248                	addi	x10,x2,260
   40022:	0004                	0x4
   40024:	0250                	addi	x12,x2,260
   40026:	0004                	0x4
   40028:	0258                	addi	x14,x2,260
   4002a:	0004                	0x4

0004002c <floatpat>:
   4002c:	0210                	addi	x12,x2,256
   4002e:	0004                	0x4
   40030:	021c                	addi	x15,x2,256
   40032:	0004                	0x4
   40034:	0228                	addi	x10,x2,264
   40036:	0004                	0x4
   40038:	0234                	addi	x13,x2,264
   4003a:	0004                	0x4

0004003c <scipat>:
   4003c:	01e0                	addi	x8,x2,204
   4003e:	0004                	0x4
   40040:	01ec                	addi	x11,x2,204
   40042:	0004                	0x4
   40044:	01f8                	addi	x14,x2,204
   40046:	0004                	0x4
   40048:	0204                	addi	x9,x2,256
   4004a:	0004                	0x4

0004004c <errpat>:
   4004c:	01b0                	addi	x12,x2,200
   4004e:	0004                	0x4
   40050:	01bc                	addi	x15,x2,200
   40052:	0004                	0x4
   40054:	01c8                	addi	x10,x2,196
   40056:	0004                	0x4
   40058:	01d4                	addi	x13,x2,196
   4005a:	0004                	0x4

0004005c <default_num_contexts>:
   4005c:	0001                	nop
	...

00040060 <seed4_volatile>:
   40060:	0001                	nop
	...

00040064 <seed3_volatile>:
   40064:	0066                	c.slli	x0,0x19
	...

00040068 <mem_name>:
   40068:	0684                	addi	x9,x2,832
   4006a:	0004                	0x4
   4006c:	068c                	addi	x11,x2,832
   4006e:	0004                	0x4
   40070:	0694                	addi	x13,x2,832
   40072:	0004                	0x4

00040074 <.L18>:
   40074:	3c78                	fld	f14,248(x8)
   40076:	0000                	unimp
   40078:	3d6c                	fld	f11,248(x10)
   4007a:	0000                	unimp
   4007c:	3c88                	fld	f10,56(x9)
   4007e:	0000                	unimp
   40080:	3d6c                	fld	f11,248(x10)
   40082:	0000                	unimp
   40084:	3d58                	fld	f14,184(x10)
   40086:	0000                	unimp
   40088:	3d6c                	fld	f11,248(x10)
   4008a:	0000                	unimp
   4008c:	3c88                	fld	f10,56(x9)
   4008e:	0000                	unimp
   40090:	3c78                	fld	f14,248(x8)
   40092:	0000                	unimp
   40094:	3c78                	fld	f14,248(x8)
   40096:	0000                	unimp
   40098:	3d58                	fld	f14,184(x10)
   4009a:	0000                	unimp
   4009c:	3c88                	fld	f10,56(x9)
   4009e:	0000                	unimp
   400a0:	3c50                	fld	f12,184(x8)
   400a2:	0000                	unimp
   400a4:	3c50                	fld	f12,184(x8)
   400a6:	0000                	unimp
   400a8:	3c50                	fld	f12,184(x8)
   400aa:	0000                	unimp
   400ac:	3c90                	fld	f12,56(x9)
	...

000400b0 <__clz_tab>:
   400b0:	0100                	addi	x8,x2,128
   400b2:	0202                	c.slli64	x4
   400b4:	03030303          	lb	x6,48(x6)
   400b8:	0404                	addi	x9,x2,512
   400ba:	0404                	addi	x9,x2,512
   400bc:	0404                	addi	x9,x2,512
   400be:	0404                	addi	x9,x2,512
   400c0:	0505                	addi	x10,x10,1
   400c2:	0505                	addi	x10,x10,1
   400c4:	0505                	addi	x10,x10,1
   400c6:	0505                	addi	x10,x10,1
   400c8:	0505                	addi	x10,x10,1
   400ca:	0505                	addi	x10,x10,1
   400cc:	0505                	addi	x10,x10,1
   400ce:	0505                	addi	x10,x10,1
   400d0:	0606                	slli	x12,x12,0x1
   400d2:	0606                	slli	x12,x12,0x1
   400d4:	0606                	slli	x12,x12,0x1
   400d6:	0606                	slli	x12,x12,0x1
   400d8:	0606                	slli	x12,x12,0x1
   400da:	0606                	slli	x12,x12,0x1
   400dc:	0606                	slli	x12,x12,0x1
   400de:	0606                	slli	x12,x12,0x1
   400e0:	0606                	slli	x12,x12,0x1
   400e2:	0606                	slli	x12,x12,0x1
   400e4:	0606                	slli	x12,x12,0x1
   400e6:	0606                	slli	x12,x12,0x1
   400e8:	0606                	slli	x12,x12,0x1
   400ea:	0606                	slli	x12,x12,0x1
   400ec:	0606                	slli	x12,x12,0x1
   400ee:	0606                	slli	x12,x12,0x1
   400f0:	07070707          	0x7070707
   400f4:	07070707          	0x7070707
   400f8:	07070707          	0x7070707
   400fc:	07070707          	0x7070707
   40100:	07070707          	0x7070707
   40104:	07070707          	0x7070707
   40108:	07070707          	0x7070707
   4010c:	07070707          	0x7070707
   40110:	07070707          	0x7070707
   40114:	07070707          	0x7070707
   40118:	07070707          	0x7070707
   4011c:	07070707          	0x7070707
   40120:	07070707          	0x7070707
   40124:	07070707          	0x7070707
   40128:	07070707          	0x7070707
   4012c:	07070707          	0x7070707
   40130:	0808                	addi	x10,x2,16
   40132:	0808                	addi	x10,x2,16
   40134:	0808                	addi	x10,x2,16
   40136:	0808                	addi	x10,x2,16
   40138:	0808                	addi	x10,x2,16
   4013a:	0808                	addi	x10,x2,16
   4013c:	0808                	addi	x10,x2,16
   4013e:	0808                	addi	x10,x2,16
   40140:	0808                	addi	x10,x2,16
   40142:	0808                	addi	x10,x2,16
   40144:	0808                	addi	x10,x2,16
   40146:	0808                	addi	x10,x2,16
   40148:	0808                	addi	x10,x2,16
   4014a:	0808                	addi	x10,x2,16
   4014c:	0808                	addi	x10,x2,16
   4014e:	0808                	addi	x10,x2,16
   40150:	0808                	addi	x10,x2,16
   40152:	0808                	addi	x10,x2,16
   40154:	0808                	addi	x10,x2,16
   40156:	0808                	addi	x10,x2,16
   40158:	0808                	addi	x10,x2,16
   4015a:	0808                	addi	x10,x2,16
   4015c:	0808                	addi	x10,x2,16
   4015e:	0808                	addi	x10,x2,16
   40160:	0808                	addi	x10,x2,16
   40162:	0808                	addi	x10,x2,16
   40164:	0808                	addi	x10,x2,16
   40166:	0808                	addi	x10,x2,16
   40168:	0808                	addi	x10,x2,16
   4016a:	0808                	addi	x10,x2,16
   4016c:	0808                	addi	x10,x2,16
   4016e:	0808                	addi	x10,x2,16
   40170:	0808                	addi	x10,x2,16
   40172:	0808                	addi	x10,x2,16
   40174:	0808                	addi	x10,x2,16
   40176:	0808                	addi	x10,x2,16
   40178:	0808                	addi	x10,x2,16
   4017a:	0808                	addi	x10,x2,16
   4017c:	0808                	addi	x10,x2,16
   4017e:	0808                	addi	x10,x2,16
   40180:	0808                	addi	x10,x2,16
   40182:	0808                	addi	x10,x2,16
   40184:	0808                	addi	x10,x2,16
   40186:	0808                	addi	x10,x2,16
   40188:	0808                	addi	x10,x2,16
   4018a:	0808                	addi	x10,x2,16
   4018c:	0808                	addi	x10,x2,16
   4018e:	0808                	addi	x10,x2,16
   40190:	0808                	addi	x10,x2,16
   40192:	0808                	addi	x10,x2,16
   40194:	0808                	addi	x10,x2,16
   40196:	0808                	addi	x10,x2,16
   40198:	0808                	addi	x10,x2,16
   4019a:	0808                	addi	x10,x2,16
   4019c:	0808                	addi	x10,x2,16
   4019e:	0808                	addi	x10,x2,16
   401a0:	0808                	addi	x10,x2,16
   401a2:	0808                	addi	x10,x2,16
   401a4:	0808                	addi	x10,x2,16
   401a6:	0808                	addi	x10,x2,16
   401a8:	0808                	addi	x10,x2,16
   401aa:	0808                	addi	x10,x2,16
   401ac:	0808                	addi	x10,x2,16
   401ae:	0808                	addi	x10,x2,16

000401b0 <.LC0>:
   401b0:	3054                	fld	f13,160(x8)
   401b2:	332e                	fld	f6,232(x2)
   401b4:	2d65                	jal	4086c <seed1_volatile+0x1ac>
   401b6:	4631                	li	x12,12
   401b8:	0000                	unimp
	...

000401bc <.LC1>:
   401bc:	542d                	li	x8,-21
   401be:	542e                	lw	x8,232(x2)
   401c0:	71542b2b          	0x71542b2b
   401c4:	0000                	unimp
	...

000401c8 <.LC2>:
   401c8:	5431                	li	x8,-20
   401ca:	65342e33          	0x65342e33
   401ce:	7a34                	flw	f13,112(x12)
   401d0:	0000                	unimp
	...

000401d4 <.LC3>:
   401d4:	302e3433          	0x302e3433
   401d8:	2d65                	jal	40890 <seed1_volatile+0x1d0>
   401da:	5e54                	lw	x13,60(x12)
   401dc:	0000                	unimp
	...

000401e0 <.LC4>:
   401e0:	2e35                	jal	4051c <.LC25+0xc>
   401e2:	3035                	jal	3fa0e <.L119+0x3ad6a>
   401e4:	6530                	flw	f12,72(x10)
   401e6:	0000332b          	0x332b
	...

000401ec <.LC5>:
   401ec:	2e2d                	jal	40526 <.LC25+0x16>
   401ee:	3231                	jal	3fafa <.L119+0x3ae56>
   401f0:	322d6533          	0x322d6533
   401f4:	0000                	unimp
	...

000401f8 <.LC6>:
   401f8:	382d                	jal	3fa32 <.L119+0x3ad8e>
   401fa:	382b6537          	lui	x10,0x382b6
   401fe:	00003233          	snez	x4,x0
	...

00040204 <.LC7>:
   40204:	362e302b          	0x362e302b
   40208:	2d65                	jal	408c0 <seed1_volatile+0x200>
   4020a:	3231                	jal	3fb16 <.L119+0x3ae72>
   4020c:	0000                	unimp
	...

00040210 <.LC8>:
   40210:	352e3533          	0x352e3533
   40214:	3434                	fld	f13,104(x8)
   40216:	3030                	fld	f12,96(x8)
   40218:	0000                	unimp
	...

0004021c <.LC9>:
   4021c:	312e                	fld	f2,232(x2)
   4021e:	3332                	fld	f6,296(x2)
   40220:	3534                	fld	f13,104(x10)
   40222:	3030                	fld	f12,96(x8)
   40224:	0000                	unimp
	...

00040228 <.LC10>:
   40228:	312d                	jal	3fe52 <.L119+0x3b1ae>
   4022a:	3031                	jal	3fa36 <.L119+0x3ad92>
   4022c:	372e                	fld	f14,232(x2)
   4022e:	3030                	fld	f12,96(x8)
   40230:	0000                	unimp
	...

00040234 <.LC11>:
   40234:	362e302b          	0x362e302b
   40238:	3434                	fld	f13,104(x8)
   4023a:	3030                	fld	f12,96(x8)
   4023c:	0000                	unimp
	...

00040240 <.LC12>:
   40240:	3035                	jal	3fa6c <.L119+0x3adc8>
   40242:	3231                	jal	3fb4e <.L119+0x3aeaa>
   40244:	0000                	unimp
	...

00040248 <.LC13>:
   40248:	3231                	jal	3fb54 <.L119+0x3aeb0>
   4024a:	00003433          	snez	x8,x0
	...

00040250 <.LC14>:
   40250:	382d                	jal	3fa8a <.L119+0x3ade6>
   40252:	00003437          	lui	x8,0x3
	...

00040258 <.LC15>:
   40258:	3232312b          	0x3232312b
   4025c:	0000                	unimp
	...

00040260 <.LC1>:
   40260:	72617473          	csrrci	x8,0x726,2
   40264:	0a74                	addi	x13,x2,284
	...

00040268 <.LC2>:
   40268:	6325                	lui	x6,0x9
	...

0004026c <.LC3>:
   4026c:	6e65                	lui	x28,0x19
   4026e:	0a64                	addi	x9,x2,284
   40270:	0000                	unimp
	...

00040274 <.LC4>:
   40274:	6b36                	flw	f22,76(x2)
   40276:	7020                	flw	f8,96(x8)
   40278:	7265                	lui	x4,0xffff9
   4027a:	6f66                	flw	f30,88(x2)
   4027c:	6d72                	flw	f26,28(x2)
   4027e:	6e61                	lui	x28,0x18
   40280:	72206563          	bltu	x0,x2,409aa <seed1_volatile+0x2ea>
   40284:	6e75                	lui	x28,0x1d
   40286:	7020                	flw	f8,96(x8)
   40288:	7261                	lui	x4,0xffff8
   4028a:	6d61                	lui	x26,0x18
   4028c:	7465                	lui	x8,0xffff9
   4028e:	7265                	lui	x4,0xffff9
   40290:	6f662073          	csrs	0x6f6,x12
   40294:	2072                	fld	f0,280(x2)
   40296:	65726f63          	bltu	x4,x23,408f4 <seed1_volatile+0x234>
   4029a:	616d                	addi	x2,x2,240
   4029c:	6b72                	flw	f22,28(x2)
   4029e:	0a2e                	slli	x20,x20,0xb
   402a0:	0000                	unimp
	...

000402a4 <.LC5>:
   402a4:	6b36                	flw	f22,76(x2)
   402a6:	7620                	flw	f8,104(x12)
   402a8:	6c61                	lui	x24,0x18
   402aa:	6469                	lui	x8,0x1a
   402ac:	7461                	lui	x8,0xffff8
   402ae:	6f69                	lui	x30,0x1a
   402b0:	206e                	fld	f0,216(x2)
   402b2:	7572                	flw	f10,60(x2)
   402b4:	206e                	fld	f0,216(x2)
   402b6:	6170                	flw	f12,68(x10)
   402b8:	6172                	flw	f2,28(x2)
   402ba:	656d                	lui	x10,0x1b
   402bc:	6574                	flw	f13,76(x10)
   402be:	7372                	flw	f6,60(x2)
   402c0:	6620                	flw	f8,72(x12)
   402c2:	6320726f          	jal	x4,478f4 <seed1_volatile+0x7234>
   402c6:	6d65726f          	jal	x4,9799c <seed1_volatile+0x572dc>
   402ca:	7261                	lui	x4,0xffff8
   402cc:	000a2e6b          	0xa2e6b

000402d0 <.LC6>:
   402d0:	7250                	flw	f12,36(x12)
   402d2:	6c69666f          	jal	x12,d6998 <seed1_volatile+0x962d8>
   402d6:	2065                	jal	4037e <.LC9+0x1e>
   402d8:	656e6567          	0x656e6567
   402dc:	6172                	flw	f2,28(x2)
   402de:	6974                	flw	f13,84(x10)
   402e0:	72206e6f          	jal	x28,46a02 <seed1_volatile+0x6342>
   402e4:	6e75                	lui	x28,0x1d
   402e6:	7020                	flw	f8,96(x8)
   402e8:	7261                	lui	x4,0xffff8
   402ea:	6d61                	lui	x26,0x18
   402ec:	7465                	lui	x8,0xffff9
   402ee:	7265                	lui	x4,0xffff9
   402f0:	6f662073          	csrs	0x6f6,x12
   402f4:	2072                	fld	f0,280(x2)
   402f6:	65726f63          	bltu	x4,x23,40954 <seed1_volatile+0x294>
   402fa:	616d                	addi	x2,x2,240
   402fc:	6b72                	flw	f22,28(x2)
   402fe:	0a2e                	slli	x20,x20,0xb
   40300:	0000                	unimp
	...

00040304 <.LC7>:
   40304:	4b32                	lw	x22,12(x2)
   40306:	7020                	flw	f8,96(x8)
   40308:	7265                	lui	x4,0xffff9
   4030a:	6f66                	flw	f30,88(x2)
   4030c:	6d72                	flw	f26,28(x2)
   4030e:	6e61                	lui	x28,0x18
   40310:	72206563          	bltu	x0,x2,40a3a <seed1_volatile+0x37a>
   40314:	6e75                	lui	x28,0x1d
   40316:	7020                	flw	f8,96(x8)
   40318:	7261                	lui	x4,0xffff8
   4031a:	6d61                	lui	x26,0x18
   4031c:	7465                	lui	x8,0xffff9
   4031e:	7265                	lui	x4,0xffff9
   40320:	6f662073          	csrs	0x6f6,x12
   40324:	2072                	fld	f0,280(x2)
   40326:	65726f63          	bltu	x4,x23,40984 <seed1_volatile+0x2c4>
   4032a:	616d                	addi	x2,x2,240
   4032c:	6b72                	flw	f22,28(x2)
   4032e:	0a2e                	slli	x20,x20,0xb
   40330:	0000                	unimp
	...

00040334 <.LC8>:
   40334:	4b32                	lw	x22,12(x2)
   40336:	7620                	flw	f8,104(x12)
   40338:	6c61                	lui	x24,0x18
   4033a:	6469                	lui	x8,0x1a
   4033c:	7461                	lui	x8,0xffff8
   4033e:	6f69                	lui	x30,0x1a
   40340:	206e                	fld	f0,216(x2)
   40342:	7572                	flw	f10,60(x2)
   40344:	206e                	fld	f0,216(x2)
   40346:	6170                	flw	f12,68(x10)
   40348:	6172                	flw	f2,28(x2)
   4034a:	656d                	lui	x10,0x1b
   4034c:	6574                	flw	f13,76(x10)
   4034e:	7372                	flw	f6,60(x2)
   40350:	6620                	flw	f8,72(x12)
   40352:	6320726f          	jal	x4,47984 <seed1_volatile+0x72c4>
   40356:	6d65726f          	jal	x4,97a2c <seed1_volatile+0x5736c>
   4035a:	7261                	lui	x4,0xffff8
   4035c:	000a2e6b          	0xa2e6b

00040360 <.LC9>:
   40360:	5d64255b          	0x5d64255b
   40364:	5245                	li	x4,-15
   40366:	4f52                	lw	x30,20(x2)
   40368:	2152                	fld	f2,272(x2)
   4036a:	6c20                	flw	f8,88(x8)
   4036c:	7369                	lui	x6,0xffffa
   4036e:	2074                	fld	f13,192(x8)
   40370:	20637263          	bgeu	x6,x6,40574 <.LC28+0x10>
   40374:	7830                	flw	f12,112(x8)
   40376:	6425                	lui	x8,0x9
   40378:	2d20                	fld	f8,88(x10)
   4037a:	7320                	flw	f8,96(x14)
   4037c:	6f68                	flw	f10,92(x14)
   4037e:	6c75                	lui	x24,0x1d
   40380:	2064                	fld	f9,192(x8)
   40382:	6562                	flw	f10,24(x2)
   40384:	3020                	fld	f8,96(x8)
   40386:	2578                	fld	f14,200(x10)
   40388:	0a64                	addi	x9,x2,284
	...

0004038c <.LC10>:
   4038c:	5d64255b          	0x5d64255b
   40390:	5245                	li	x4,-15
   40392:	4f52                	lw	x30,20(x2)
   40394:	2152                	fld	f2,272(x2)
   40396:	6d20                	flw	f8,88(x10)
   40398:	7461                	lui	x8,0xffff8
   4039a:	6972                	flw	f18,28(x2)
   4039c:	2078                	fld	f14,192(x8)
   4039e:	20637263          	bgeu	x6,x6,405a2 <.LC30+0x6>
   403a2:	7830                	flw	f12,112(x8)
   403a4:	6425                	lui	x8,0x9
   403a6:	2d20                	fld	f8,88(x10)
   403a8:	7320                	flw	f8,96(x14)
   403aa:	6f68                	flw	f10,92(x14)
   403ac:	6c75                	lui	x24,0x1d
   403ae:	2064                	fld	f9,192(x8)
   403b0:	6562                	flw	f10,24(x2)
   403b2:	3020                	fld	f8,96(x8)
   403b4:	2578                	fld	f14,200(x10)
   403b6:	0a64                	addi	x9,x2,284
   403b8:	0000                	unimp
	...

000403bc <.LC11>:
   403bc:	5d64255b          	0x5d64255b
   403c0:	5245                	li	x4,-15
   403c2:	4f52                	lw	x30,20(x2)
   403c4:	2152                	fld	f2,272(x2)
   403c6:	7320                	flw	f8,96(x14)
   403c8:	6174                	flw	f13,68(x10)
   403ca:	6574                	flw	f13,76(x10)
   403cc:	6320                	flw	f8,64(x14)
   403ce:	6372                	flw	f6,28(x2)
   403d0:	3020                	fld	f8,96(x8)
   403d2:	2578                	fld	f14,200(x10)
   403d4:	2064                	fld	f9,192(x8)
   403d6:	202d                	jal	40400 <.LC12+0x18>
   403d8:	756f6873          	csrrsi	x16,0x756,30
   403dc:	646c                	flw	f11,76(x8)
   403de:	6220                	flw	f8,64(x12)
   403e0:	2065                	jal	40488 <.LC17+0x30>
   403e2:	7830                	flw	f12,112(x8)
   403e4:	6425                	lui	x8,0x9
   403e6:	000a                	c.slli	x0,0x2

000403e8 <.LC12>:
   403e8:	65726f43          	0x65726f43
   403ec:	614d                	addi	x2,x2,176
   403ee:	6b72                	flw	f22,28(x2)
   403f0:	5320                	lw	x8,96(x14)
   403f2:	7a69                	lui	x20,0xffffa
   403f4:	2865                	jal	404ac <.LC18+0x14>
   403f6:	756c                	flw	f11,108(x10)
   403f8:	3e2d                	jal	3ff32 <.L119+0x3b28e>
   403fa:	2964                	fld	f9,208(x10)
   403fc:	2020                	fld	f8,64(x8)
   403fe:	2020                	fld	f8,64(x8)
   40400:	203a                	fld	f0,392(x2)
   40402:	6425                	lui	x8,0x9
   40404:	000a                	c.slli	x0,0x2
	...

00040408 <.LC13>:
   40408:	6f54                	flw	f13,28(x14)
   4040a:	6174                	flw	f13,68(x10)
   4040c:	206c                	fld	f11,192(x8)
   4040e:	6974                	flw	f13,84(x10)
   40410:	28736b63          	bltu	x6,x7,406a6 <.LC0+0x6>
   40414:	756c                	flw	f11,108(x10)
   40416:	3e2d                	jal	3ff50 <.L119+0x3b2ac>
   40418:	2964                	fld	f9,208(x10)
   4041a:	2020                	fld	f8,64(x8)
   4041c:	2020                	fld	f8,64(x8)
   4041e:	2020                	fld	f8,64(x8)
   40420:	203a                	fld	f0,392(x2)
   40422:	6425                	lui	x8,0x9
   40424:	000a                	c.slli	x0,0x2
	...

00040428 <.LC14>:
   40428:	6f54                	flw	f13,28(x14)
   4042a:	6174                	flw	f13,68(x10)
   4042c:	206c                	fld	f11,192(x8)
   4042e:	6974                	flw	f13,84(x10)
   40430:	656d                	lui	x10,0x1b
   40432:	2820                	fld	f8,80(x8)
   40434:	73636573          	csrrsi	x10,0x736,6
   40438:	3a29                	jal	3fd52 <.L119+0x3b0ae>
   4043a:	2520                	fld	f8,72(x10)
   4043c:	0a66                	slli	x20,x20,0x19
	...

00040440 <.LC15>:
   40440:	7449                	lui	x8,0xffff2
   40442:	7265                	lui	x4,0xffff9
   40444:	7461                	lui	x8,0xffff8
   40446:	6f69                	lui	x30,0x1a
   40448:	736e                	flw	f6,248(x2)
   4044a:	6365532f          	0x6365532f
   4044e:	2020                	fld	f8,64(x8)
   40450:	3a20                	fld	f8,112(x12)
   40452:	2520                	fld	f8,72(x10)
   40454:	0a66                	slli	x20,x20,0x19
	...

00040458 <.LC17>:
   40458:	5245                	li	x4,-15
   4045a:	4f52                	lw	x30,20(x2)
   4045c:	2152                	fld	f2,272(x2)
   4045e:	4d20                	lw	x8,88(x10)
   40460:	7375                	lui	x6,0xffffd
   40462:	2074                	fld	f13,192(x8)
   40464:	7865                	lui	x16,0xffff9
   40466:	6365                	lui	x6,0x19
   40468:	7475                	lui	x8,0xffffd
   4046a:	2065                	jal	40512 <.LC25+0x2>
   4046c:	6f66                	flw	f30,88(x2)
   4046e:	2072                	fld	f0,280(x2)
   40470:	7461                	lui	x8,0xffff8
   40472:	6c20                	flw	f8,88(x8)
   40474:	6165                	addi	x2,x2,112
   40476:	31207473          	csrrci	x8,0x312,0
   4047a:	2030                	fld	f12,64(x8)
   4047c:	73636573          	csrrsi	x10,0x736,6
   40480:	6620                	flw	f8,72(x12)
   40482:	6120726f          	jal	x4,47a94 <seed1_volatile+0x73d4>
   40486:	7620                	flw	f8,104(x12)
   40488:	6c61                	lui	x24,0x18
   4048a:	6469                	lui	x8,0x1a
   4048c:	7220                	flw	f8,96(x12)
   4048e:	7365                	lui	x6,0xffff9
   40490:	6c75                	lui	x24,0x1d
   40492:	2174                	fld	f13,192(x10)

00040494 <.LC33>:
   40494:	000a                	c.slli	x0,0x2
	...

00040498 <.LC18>:
   40498:	7449                	lui	x8,0xffff2
   4049a:	7265                	lui	x4,0xffff9
   4049c:	7461                	lui	x8,0xffff8
   4049e:	6f69                	lui	x30,0x1a
   404a0:	736e                	flw	f6,248(x2)
   404a2:	2020                	fld	f8,64(x8)
   404a4:	2020                	fld	f8,64(x8)
   404a6:	2020                	fld	f8,64(x8)
   404a8:	3a20                	fld	f8,112(x12)
   404aa:	2520                	fld	f8,72(x10)
   404ac:	0a64                	addi	x9,x2,284
	...

000404b0 <.LC19>:
   404b0:	31434347          	fmsub.s	f6,f6,f20,f6,rmm
   404b4:	2e30                	fld	f12,88(x12)
   404b6:	2e32                	fld	f28,264(x2)
   404b8:	0030                	addi	x12,x2,8
	...

000404bc <.LC20>:
   404bc:	706d6f43          	fmadd.s	f30,f26,f6,f14,unknown
   404c0:	6c69                	lui	x24,0x1a
   404c2:	7265                	lui	x4,0xffff9
   404c4:	7620                	flw	f8,104(x12)
   404c6:	7265                	lui	x4,0xffff9
   404c8:	6e6f6973          	csrrsi	x18,0x6e6,30
   404cc:	3a20                	fld	f8,112(x12)
   404ce:	2520                	fld	f8,72(x10)
   404d0:	00000a73          	0xa73

000404d4 <.LC21>:
   404d4:	6f2d                	lui	x30,0xb
   404d6:	0031                	c.nop	12

000404d8 <.LC22>:
   404d8:	706d6f43          	fmadd.s	f30,f26,f6,f14,unknown
   404dc:	6c69                	lui	x24,0x1a
   404de:	7265                	lui	x4,0xffff9
   404e0:	6620                	flw	f8,72(x12)
   404e2:	616c                	flw	f11,68(x10)
   404e4:	20207367          	0x20207367
   404e8:	3a20                	fld	f8,112(x12)
   404ea:	2520                	fld	f8,72(x10)
   404ec:	00000a73          	0xa73

000404f0 <.LC23>:
   404f0:	43415453          	0x43415453
   404f4:	0000004b          	fnmsub.s	f0,f0,f0,f0,rne

000404f8 <.LC24>:
   404f8:	654d                	lui	x10,0x13
   404fa:	6f6d                	lui	x30,0x1b
   404fc:	7972                	flw	f18,60(x2)
   404fe:	6c20                	flw	f8,88(x8)
   40500:	7461636f          	jal	x6,56c46 <seed1_volatile+0x16586>
   40504:	6f69                	lui	x30,0x1a
   40506:	206e                	fld	f0,216(x2)
   40508:	3a20                	fld	f8,112(x12)
   4050a:	2520                	fld	f8,72(x10)
   4050c:	00000a73          	0xa73

00040510 <.LC25>:
   40510:	64656573          	csrrsi	x10,0x646,10
   40514:	20637263          	bgeu	x6,x6,40718 <seed1_volatile+0x58>
   40518:	2020                	fld	f8,64(x8)
   4051a:	2020                	fld	f8,64(x8)
   4051c:	2020                	fld	f8,64(x8)
   4051e:	2020                	fld	f8,64(x8)
   40520:	3a20                	fld	f8,112(x12)
   40522:	3020                	fld	f8,96(x8)
   40524:	2578                	fld	f14,200(x10)
   40526:	0a64                	addi	x9,x2,284
   40528:	0000                	unimp
	...

0004052c <.LC26>:
   4052c:	5d64255b          	0x5d64255b
   40530:	6c637263          	bgeu	x6,x6,40bf4 <seed1_volatile+0x534>
   40534:	7369                	lui	x6,0xffffa
   40536:	2074                	fld	f13,192(x8)
   40538:	2020                	fld	f8,64(x8)
   4053a:	2020                	fld	f8,64(x8)
   4053c:	2020                	fld	f8,64(x8)
   4053e:	203a                	fld	f0,392(x2)
   40540:	7830                	flw	f12,112(x8)
   40542:	6425                	lui	x8,0x9
   40544:	000a                	c.slli	x0,0x2
	...

00040548 <.LC27>:
   40548:	5d64255b          	0x5d64255b
   4054c:	6d637263          	bgeu	x6,x22,40c10 <seed1_volatile+0x550>
   40550:	7461                	lui	x8,0xffff8
   40552:	6972                	flw	f18,28(x2)
   40554:	2078                	fld	f14,192(x8)
   40556:	2020                	fld	f8,64(x8)
   40558:	2020                	fld	f8,64(x8)
   4055a:	203a                	fld	f0,392(x2)
   4055c:	7830                	flw	f12,112(x8)
   4055e:	6425                	lui	x8,0x9
   40560:	000a                	c.slli	x0,0x2
	...

00040564 <.LC28>:
   40564:	5d64255b          	0x5d64255b
   40568:	73637263          	bgeu	x6,x22,40c8c <seed1_volatile+0x5cc>
   4056c:	6174                	flw	f13,68(x10)
   4056e:	6574                	flw	f13,76(x10)
   40570:	2020                	fld	f8,64(x8)
   40572:	2020                	fld	f8,64(x8)
   40574:	2020                	fld	f8,64(x8)
   40576:	203a                	fld	f0,392(x2)
   40578:	7830                	flw	f12,112(x8)
   4057a:	6425                	lui	x8,0x9
   4057c:	000a                	c.slli	x0,0x2
	...

00040580 <.LC29>:
   40580:	5d64255b          	0x5d64255b
   40584:	66637263          	bgeu	x6,x6,40be8 <seed1_volatile+0x528>
   40588:	6e69                	lui	x28,0x1a
   4058a:	6c61                	lui	x24,0x18
   4058c:	2020                	fld	f8,64(x8)
   4058e:	2020                	fld	f8,64(x8)
   40590:	2020                	fld	f8,64(x8)
   40592:	203a                	fld	f0,392(x2)
   40594:	7830                	flw	f12,112(x8)
   40596:	6425                	lui	x8,0x9
   40598:	000a                	c.slli	x0,0x2
	...

0004059c <.LC30>:
   4059c:	72726f43          	fmadd.d	f30,f4,f7,f14,unknown
   405a0:	6365                	lui	x6,0x19
   405a2:	2074                	fld	f13,192(x8)
   405a4:	7265706f          	j	97cca <seed1_volatile+0x5760a>
   405a8:	7461                	lui	x8,0xffff8
   405aa:	6f69                	lui	x30,0x1a
   405ac:	206e                	fld	f0,216(x2)
   405ae:	6176                	flw	f2,92(x2)
   405b0:	696c                	flw	f11,84(x10)
   405b2:	6164                	flw	f9,68(x10)
   405b4:	6574                	flw	f13,76(x10)
   405b6:	2e64                	fld	f9,216(x12)
   405b8:	5320                	lw	x8,96(x14)
   405ba:	6565                	lui	x10,0x19
   405bc:	5220                	lw	x8,96(x12)
   405be:	4145                	li	x2,17
   405c0:	4d44                	lw	x9,28(x10)
   405c2:	2e45                	jal	40972 <seed1_volatile+0x2b2>
   405c4:	646d                	lui	x8,0x1b
   405c6:	6620                	flw	f8,72(x12)
   405c8:	7220726f          	jal	x4,47cea <seed1_volatile+0x762a>
   405cc:	6e75                	lui	x28,0x1d
   405ce:	6120                	flw	f8,64(x10)
   405d0:	646e                	flw	f8,216(x2)
   405d2:	7220                	flw	f8,96(x12)
   405d4:	7065                	c.lui	x0,0xffff9
   405d6:	6974726f          	jal	x4,8846c <seed1_volatile+0x47dac>
   405da:	676e                	flw	f14,216(x2)
   405dc:	7220                	flw	f8,96(x12)
   405de:	6c75                	lui	x24,0x1d
   405e0:	7365                	lui	x6,0xffff9
   405e2:	0a2e                	slli	x20,x20,0xb
   405e4:	0000                	unimp
	...

000405e8 <.LC31>:
   405e8:	65726f43          	0x65726f43
   405ec:	614d                	addi	x2,x2,176
   405ee:	6b72                	flw	f22,28(x2)
   405f0:	3120                	fld	f8,96(x10)
   405f2:	302e                	fld	f0,232(x2)
   405f4:	3a20                	fld	f8,112(x12)
   405f6:	2520                	fld	f8,72(x10)
   405f8:	2066                	fld	f0,88(x2)
   405fa:	7325202f          	0x7325202f
   405fe:	2520                	fld	f8,72(x10)
   40600:	00000073          	ecall

00040604 <.LC32>:
   40604:	2f20                	fld	f8,88(x14)
   40606:	2520                	fld	f8,72(x10)
   40608:	00000073          	ecall

0004060c <.LC34>:
   4060c:	7245                	lui	x4,0xffff1
   4060e:	6f72                	flw	f30,28(x2)
   40610:	7372                	flw	f6,60(x2)
   40612:	6420                	flw	f8,72(x8)
   40614:	7465                	lui	x8,0xffff9
   40616:	6365                	lui	x6,0x19
   40618:	6574                	flw	f13,76(x10)
   4061a:	0a64                	addi	x9,x2,284
   4061c:	0000                	unimp
	...

00040620 <.LC35>:
   40620:	6e6e6143          	fmadd.q	f2,f28,f6,f13,unknown
   40624:	7620746f          	jal	x8,47d86 <seed1_volatile+0x76c6>
   40628:	6c61                	lui	x24,0x18
   4062a:	6469                	lui	x8,0x1a
   4062c:	7461                	lui	x8,0xffff8
   4062e:	2065                	jal	406d6 <seed1_volatile+0x16>
   40630:	7265706f          	j	97d56 <seed1_volatile+0x57696>
   40634:	7461                	lui	x8,0xffff8
   40636:	6f69                	lui	x30,0x1a
   40638:	206e                	fld	f0,216(x2)
   4063a:	6f66                	flw	f30,88(x2)
   4063c:	2072                	fld	f0,280(x2)
   4063e:	6874                	flw	f13,84(x8)
   40640:	7365                	lui	x6,0xffff9
   40642:	2065                	jal	406ea <seed1_volatile+0x2a>
   40644:	64656573          	csrrsi	x10,0x646,10
   40648:	7620                	flw	f8,104(x12)
   4064a:	6c61                	lui	x24,0x18
   4064c:	6575                	lui	x10,0x1d
   4064e:	70202c73          	csrr	x24,0x702
   40652:	656c                	flw	f11,76(x10)
   40654:	7361                	lui	x6,0xffff8
   40656:	2065                	jal	406fe <seed1_volatile+0x3e>
   40658:	706d6f63          	bltu	x26,x6,40d76 <seed1_volatile+0x6b6>
   4065c:	7261                	lui	x4,0xffff8
   4065e:	2065                	jal	40706 <seed1_volatile+0x46>
   40660:	68746977          	0x68746977
   40664:	7220                	flw	f8,96(x12)
   40666:	7365                	lui	x6,0xffff9
   40668:	6c75                	lui	x24,0x1d
   4066a:	7374                	flw	f13,100(x14)
   4066c:	6f20                	flw	f8,88(x14)
   4066e:	206e                	fld	f0,216(x2)
   40670:	2061                	jal	406f8 <seed1_volatile+0x38>
   40672:	776f6e6b          	0x776f6e6b
   40676:	206e                	fld	f0,216(x2)
   40678:	6c70                	flw	f12,92(x8)
   4067a:	7461                	lui	x8,0xffff8
   4067c:	6f66                	flw	f30,88(x2)
   4067e:	6d72                	flw	f26,28(x2)
   40680:	0a2e                	slli	x20,x20,0xb
	...

00040684 <.LC36>:
   40684:	74617453          	0x74617453
   40688:	6369                	lui	x6,0x1a
	...

0004068c <.LC37>:
   4068c:	6548                	flw	f10,12(x10)
   4068e:	7061                	c.lui	x0,0xffff8
   40690:	0000                	unimp
	...

00040694 <.LC38>:
   40694:	63617453          	0x63617453
   40698:	0000006b          	0x6b
   4069c:	0000                	unimp
	...

000406a0 <.LC0>:
   406a0:	0000                	unimp
   406a2:	0000                	unimp
   406a4:	0000                	unimp
   406a6:	3ff0                	fld	f12,248(x15)

000406a8 <.LC16>:
   406a8:	0000                	unimp
   406aa:	0000                	unimp
   406ac:	0000                	unimp
   406ae:	4024                	lw	x9,64(x8)

Disassembly of section .sbss:

000406b0 <stop_time_val>:
   406b0:	0000                	unimp
	...

000406b4 <start_time_val>:
   406b4:	0000                	unimp
	...

000406b8 <seed5_volatile>:
   406b8:	0000                	unimp
	...

000406bc <seed2_volatile>:
   406bc:	0000                	unimp
	...

000406c0 <seed1_volatile>:
   406c0:	0000                	unimp
	...

Disassembly of section .text:

00000000 <_start>:
       0:	00010137          	lui	x2,0x10
       4:	ff010113          	addi	x2,x2,-16 # fff0 <.L119+0xb34c>
       8:	7f0301b7          	lui	x3,0x7f030
       c:	00000293          	li	x5,0
      10:	00518023          	sb	x5,0(x3) # 7f030000 <seed1_volatile+0x7efef940>
      14:	0140006f          	j	28 <_call_main>

00000018 <_finish>:
      18:	7f0301b7          	lui	x3,0x7f030
      1c:	0ff00293          	li	x5,255
      20:	00518023          	sb	x5,0(x3) # 7f030000 <seed1_volatile+0x7efef940>
      24:	fe000ae3          	beqz	x0,18 <_finish>

00000028 <_call_main>:
      28:	154040ef          	jal	x1,417c <_end>
      2c:	fedff06f          	j	18 <_finish>

00000030 <get_seed_32>:
      30:	00500793          	li	x15,5
      34:	04a7ec63          	bltu	x15,x10,8c <.L9>
      38:	000407b7          	lui	x15,0x40
      3c:	00078793          	mv	x15,x15
      40:	00251513          	slli	x10,x10,0x2
      44:	00f50533          	add	x10,x10,x15
      48:	00052783          	lw	x15,0(x10) # 1d000 <.L119+0x1835c>
      4c:	00078067          	jr	x15 # 40000 <.L4>

00000050 <.L3>:
      50:	000407b7          	lui	x15,0x40
      54:	6b87a503          	lw	x10,1720(x15) # 406b8 <seed5_volatile>
      58:	00008067          	ret

0000005c <.L8>:
      5c:	000407b7          	lui	x15,0x40
      60:	6c07a503          	lw	x10,1728(x15) # 406c0 <seed1_volatile>
      64:	00008067          	ret

00000068 <.L7>:
      68:	000407b7          	lui	x15,0x40
      6c:	6bc7a503          	lw	x10,1724(x15) # 406bc <seed2_volatile>
      70:	00008067          	ret

00000074 <.L6>:
      74:	000407b7          	lui	x15,0x40
      78:	0647a503          	lw	x10,100(x15) # 40064 <seed3_volatile>
      7c:	00008067          	ret

00000080 <.L5>:
      80:	000407b7          	lui	x15,0x40
      84:	0607a503          	lw	x10,96(x15) # 40060 <seed4_volatile>
      88:	00008067          	ret

0000008c <.L9>:
      8c:	00000513          	li	x10,0
      90:	00008067          	ret

00000094 <crcu8>:
      94:	00b546b3          	xor	x13,x10,x11
      98:	0016f693          	andi	x13,x13,1
      9c:	00155713          	srli	x14,x10,0x1
      a0:	0015d793          	srli	x15,x11,0x1
      a4:	00068c63          	beqz	x13,bc <.L12>
      a8:	ffffa6b7          	lui	x13,0xffffa
      ac:	00168693          	addi	x13,x13,1 # ffffa001 <seed1_volatile+0xfffb9941>
      b0:	00d7c7b3          	xor	x15,x15,x13
      b4:	01079793          	slli	x15,x15,0x10
      b8:	0107d793          	srli	x15,x15,0x10

000000bc <.L12>:
      bc:	00e7c733          	xor	x14,x15,x14
      c0:	00177713          	andi	x14,x14,1
      c4:	00255693          	srli	x13,x10,0x2
      c8:	0017d793          	srli	x15,x15,0x1
      cc:	00070c63          	beqz	x14,e4 <.L13>
      d0:	ffffa737          	lui	x14,0xffffa
      d4:	00170713          	addi	x14,x14,1 # ffffa001 <seed1_volatile+0xfffb9941>
      d8:	00e7c7b3          	xor	x15,x15,x14
      dc:	01079793          	slli	x15,x15,0x10
      e0:	0107d793          	srli	x15,x15,0x10

000000e4 <.L13>:
      e4:	00d7c6b3          	xor	x13,x15,x13
      e8:	0016f693          	andi	x13,x13,1
      ec:	00355713          	srli	x14,x10,0x3
      f0:	0017d793          	srli	x15,x15,0x1
      f4:	00068c63          	beqz	x13,10c <.L14>
      f8:	ffffa6b7          	lui	x13,0xffffa
      fc:	00168693          	addi	x13,x13,1 # ffffa001 <seed1_volatile+0xfffb9941>
     100:	00d7c7b3          	xor	x15,x15,x13
     104:	01079793          	slli	x15,x15,0x10
     108:	0107d793          	srli	x15,x15,0x10

0000010c <.L14>:
     10c:	00e7c733          	xor	x14,x15,x14
     110:	00177713          	andi	x14,x14,1
     114:	00455693          	srli	x13,x10,0x4
     118:	0017d793          	srli	x15,x15,0x1
     11c:	00070c63          	beqz	x14,134 <.L15>
     120:	ffffa737          	lui	x14,0xffffa
     124:	00170713          	addi	x14,x14,1 # ffffa001 <seed1_volatile+0xfffb9941>
     128:	00e7c7b3          	xor	x15,x15,x14
     12c:	01079793          	slli	x15,x15,0x10
     130:	0107d793          	srli	x15,x15,0x10

00000134 <.L15>:
     134:	00d7c6b3          	xor	x13,x15,x13
     138:	0016f693          	andi	x13,x13,1
     13c:	00555713          	srli	x14,x10,0x5
     140:	0017d793          	srli	x15,x15,0x1
     144:	00068c63          	beqz	x13,15c <.L16>
     148:	ffffa6b7          	lui	x13,0xffffa
     14c:	00168693          	addi	x13,x13,1 # ffffa001 <seed1_volatile+0xfffb9941>
     150:	00d7c7b3          	xor	x15,x15,x13
     154:	01079793          	slli	x15,x15,0x10
     158:	0107d793          	srli	x15,x15,0x10

0000015c <.L16>:
     15c:	00e7c733          	xor	x14,x15,x14
     160:	00177713          	andi	x14,x14,1
     164:	00655693          	srli	x13,x10,0x6
     168:	0017d793          	srli	x15,x15,0x1
     16c:	00070c63          	beqz	x14,184 <.L17>
     170:	ffffa737          	lui	x14,0xffffa
     174:	00170713          	addi	x14,x14,1 # ffffa001 <seed1_volatile+0xfffb9941>
     178:	00e7c7b3          	xor	x15,x15,x14
     17c:	01079793          	slli	x15,x15,0x10
     180:	0107d793          	srli	x15,x15,0x10

00000184 <.L17>:
     184:	00d7c6b3          	xor	x13,x15,x13
     188:	0016f693          	andi	x13,x13,1
     18c:	00755713          	srli	x14,x10,0x7
     190:	0017d513          	srli	x10,x15,0x1
     194:	00068c63          	beqz	x13,1ac <.L18>
     198:	ffffa7b7          	lui	x15,0xffffa
     19c:	00178793          	addi	x15,x15,1 # ffffa001 <seed1_volatile+0xfffb9941>
     1a0:	00f54533          	xor	x10,x10,x15
     1a4:	01051513          	slli	x10,x10,0x10
     1a8:	01055513          	srli	x10,x10,0x10

000001ac <.L18>:
     1ac:	00157793          	andi	x15,x10,1
     1b0:	00155513          	srli	x10,x10,0x1
     1b4:	00e78c63          	beq	x15,x14,1cc <.L19>
     1b8:	ffffa7b7          	lui	x15,0xffffa
     1bc:	00178793          	addi	x15,x15,1 # ffffa001 <seed1_volatile+0xfffb9941>
     1c0:	00f54533          	xor	x10,x10,x15
     1c4:	01051513          	slli	x10,x10,0x10
     1c8:	01055513          	srli	x10,x10,0x10

000001cc <.L19>:
     1cc:	00008067          	ret

000001d0 <crcu16>:
     1d0:	00a5c6b3          	xor	x13,x11,x10
     1d4:	0ff57713          	andi	x14,x10,255
     1d8:	0016f693          	andi	x13,x13,1
     1dc:	00050793          	mv	x15,x10
     1e0:	00175613          	srli	x12,x14,0x1
     1e4:	0015d513          	srli	x10,x11,0x1
     1e8:	00068c63          	beqz	x13,200 <.L45>
     1ec:	ffffa6b7          	lui	x13,0xffffa
     1f0:	00168693          	addi	x13,x13,1 # ffffa001 <seed1_volatile+0xfffb9941>
     1f4:	00d54533          	xor	x10,x10,x13
     1f8:	01051513          	slli	x10,x10,0x10
     1fc:	01055513          	srli	x10,x10,0x10

00000200 <.L45>:
     200:	00c54633          	xor	x12,x10,x12
     204:	00167613          	andi	x12,x12,1
     208:	00275693          	srli	x13,x14,0x2
     20c:	00155513          	srli	x10,x10,0x1
     210:	00060c63          	beqz	x12,228 <.L46>
     214:	ffffa637          	lui	x12,0xffffa
     218:	00160613          	addi	x12,x12,1 # ffffa001 <seed1_volatile+0xfffb9941>
     21c:	00c54533          	xor	x10,x10,x12
     220:	01051513          	slli	x10,x10,0x10
     224:	01055513          	srli	x10,x10,0x10

00000228 <.L46>:
     228:	00d546b3          	xor	x13,x10,x13
     22c:	0016f693          	andi	x13,x13,1
     230:	00375613          	srli	x12,x14,0x3
     234:	00155513          	srli	x10,x10,0x1
     238:	00068c63          	beqz	x13,250 <.L47>
     23c:	ffffa6b7          	lui	x13,0xffffa
     240:	00168693          	addi	x13,x13,1 # ffffa001 <seed1_volatile+0xfffb9941>
     244:	00d54533          	xor	x10,x10,x13
     248:	01051513          	slli	x10,x10,0x10
     24c:	01055513          	srli	x10,x10,0x10

00000250 <.L47>:
     250:	00c54633          	xor	x12,x10,x12
     254:	00167613          	andi	x12,x12,1
     258:	00475693          	srli	x13,x14,0x4
     25c:	00155513          	srli	x10,x10,0x1
     260:	00060c63          	beqz	x12,278 <.L48>
     264:	ffffa637          	lui	x12,0xffffa
     268:	00160613          	addi	x12,x12,1 # ffffa001 <seed1_volatile+0xfffb9941>
     26c:	00c54533          	xor	x10,x10,x12
     270:	01051513          	slli	x10,x10,0x10
     274:	01055513          	srli	x10,x10,0x10

00000278 <.L48>:
     278:	00d546b3          	xor	x13,x10,x13
     27c:	0016f693          	andi	x13,x13,1
     280:	00575613          	srli	x12,x14,0x5
     284:	00155513          	srli	x10,x10,0x1
     288:	00068c63          	beqz	x13,2a0 <.L49>
     28c:	ffffa6b7          	lui	x13,0xffffa
     290:	00168693          	addi	x13,x13,1 # ffffa001 <seed1_volatile+0xfffb9941>
     294:	00d54533          	xor	x10,x10,x13
     298:	01051513          	slli	x10,x10,0x10
     29c:	01055513          	srli	x10,x10,0x10

000002a0 <.L49>:
     2a0:	00c54633          	xor	x12,x10,x12
     2a4:	00167613          	andi	x12,x12,1
     2a8:	00675693          	srli	x13,x14,0x6
     2ac:	00155513          	srli	x10,x10,0x1
     2b0:	00060c63          	beqz	x12,2c8 <.L50>
     2b4:	ffffa637          	lui	x12,0xffffa
     2b8:	00160613          	addi	x12,x12,1 # ffffa001 <seed1_volatile+0xfffb9941>
     2bc:	00c54533          	xor	x10,x10,x12
     2c0:	01051513          	slli	x10,x10,0x10
     2c4:	01055513          	srli	x10,x10,0x10

000002c8 <.L50>:
     2c8:	00d546b3          	xor	x13,x10,x13
     2cc:	0016f693          	andi	x13,x13,1
     2d0:	00775713          	srli	x14,x14,0x7
     2d4:	00155513          	srli	x10,x10,0x1
     2d8:	00068c63          	beqz	x13,2f0 <.L51>
     2dc:	ffffa6b7          	lui	x13,0xffffa
     2e0:	00168693          	addi	x13,x13,1 # ffffa001 <seed1_volatile+0xfffb9941>
     2e4:	00d54533          	xor	x10,x10,x13
     2e8:	01051513          	slli	x10,x10,0x10
     2ec:	01055513          	srli	x10,x10,0x10

000002f0 <.L51>:
     2f0:	00157693          	andi	x13,x10,1
     2f4:	00155513          	srli	x10,x10,0x1
     2f8:	00e68c63          	beq	x13,x14,310 <.L52>
     2fc:	ffffa737          	lui	x14,0xffffa
     300:	00170713          	addi	x14,x14,1 # ffffa001 <seed1_volatile+0xfffb9941>
     304:	00e54533          	xor	x10,x10,x14
     308:	01051513          	slli	x10,x10,0x10
     30c:	01055513          	srli	x10,x10,0x10

00000310 <.L52>:
     310:	0087d693          	srli	x13,x15,0x8
     314:	00a6c6b3          	xor	x13,x13,x10
     318:	0016f693          	andi	x13,x13,1
     31c:	0087d713          	srli	x14,x15,0x8
     320:	00155513          	srli	x10,x10,0x1
     324:	0097d793          	srli	x15,x15,0x9
     328:	00068c63          	beqz	x13,340 <.L53>
     32c:	ffffa6b7          	lui	x13,0xffffa
     330:	00168693          	addi	x13,x13,1 # ffffa001 <seed1_volatile+0xfffb9941>
     334:	00d54533          	xor	x10,x10,x13
     338:	01051513          	slli	x10,x10,0x10
     33c:	01055513          	srli	x10,x10,0x10

00000340 <.L53>:
     340:	00a7c7b3          	xor	x15,x15,x10
     344:	0017f793          	andi	x15,x15,1
     348:	00275693          	srli	x13,x14,0x2
     34c:	00155513          	srli	x10,x10,0x1
     350:	00078c63          	beqz	x15,368 <.L54>
     354:	ffffa7b7          	lui	x15,0xffffa
     358:	00178793          	addi	x15,x15,1 # ffffa001 <seed1_volatile+0xfffb9941>
     35c:	00f54533          	xor	x10,x10,x15
     360:	01051513          	slli	x10,x10,0x10
     364:	01055513          	srli	x10,x10,0x10

00000368 <.L54>:
     368:	00d547b3          	xor	x15,x10,x13
     36c:	0017f793          	andi	x15,x15,1
     370:	00375693          	srli	x13,x14,0x3
     374:	00155513          	srli	x10,x10,0x1
     378:	00078c63          	beqz	x15,390 <.L55>
     37c:	ffffa7b7          	lui	x15,0xffffa
     380:	00178793          	addi	x15,x15,1 # ffffa001 <seed1_volatile+0xfffb9941>
     384:	00f54533          	xor	x10,x10,x15
     388:	01051513          	slli	x10,x10,0x10
     38c:	01055513          	srli	x10,x10,0x10

00000390 <.L55>:
     390:	00d546b3          	xor	x13,x10,x13
     394:	0016f693          	andi	x13,x13,1
     398:	00475793          	srli	x15,x14,0x4
     39c:	00155513          	srli	x10,x10,0x1
     3a0:	00068c63          	beqz	x13,3b8 <.L56>
     3a4:	ffffa6b7          	lui	x13,0xffffa
     3a8:	00168693          	addi	x13,x13,1 # ffffa001 <seed1_volatile+0xfffb9941>
     3ac:	00d54533          	xor	x10,x10,x13
     3b0:	01051513          	slli	x10,x10,0x10
     3b4:	01055513          	srli	x10,x10,0x10

000003b8 <.L56>:
     3b8:	00f547b3          	xor	x15,x10,x15
     3bc:	0017f793          	andi	x15,x15,1
     3c0:	00575693          	srli	x13,x14,0x5
     3c4:	00155513          	srli	x10,x10,0x1
     3c8:	00078c63          	beqz	x15,3e0 <.L57>
     3cc:	ffffa7b7          	lui	x15,0xffffa
     3d0:	00178793          	addi	x15,x15,1 # ffffa001 <seed1_volatile+0xfffb9941>
     3d4:	00f54533          	xor	x10,x10,x15
     3d8:	01051513          	slli	x10,x10,0x10
     3dc:	01055513          	srli	x10,x10,0x10

000003e0 <.L57>:
     3e0:	00d546b3          	xor	x13,x10,x13
     3e4:	0016f693          	andi	x13,x13,1
     3e8:	00675793          	srli	x15,x14,0x6
     3ec:	00155513          	srli	x10,x10,0x1
     3f0:	00068c63          	beqz	x13,408 <.L58>
     3f4:	ffffa6b7          	lui	x13,0xffffa
     3f8:	00168693          	addi	x13,x13,1 # ffffa001 <seed1_volatile+0xfffb9941>
     3fc:	00d54533          	xor	x10,x10,x13
     400:	01051513          	slli	x10,x10,0x10
     404:	01055513          	srli	x10,x10,0x10

00000408 <.L58>:
     408:	00f547b3          	xor	x15,x10,x15
     40c:	0017f793          	andi	x15,x15,1
     410:	00775713          	srli	x14,x14,0x7
     414:	00155513          	srli	x10,x10,0x1
     418:	00078c63          	beqz	x15,430 <.L59>
     41c:	ffffa7b7          	lui	x15,0xffffa
     420:	00178793          	addi	x15,x15,1 # ffffa001 <seed1_volatile+0xfffb9941>
     424:	00f54533          	xor	x10,x10,x15
     428:	01051513          	slli	x10,x10,0x10
     42c:	01055513          	srli	x10,x10,0x10

00000430 <.L59>:
     430:	00157793          	andi	x15,x10,1
     434:	00155513          	srli	x10,x10,0x1
     438:	00e78c63          	beq	x15,x14,450 <.L60>
     43c:	ffffa7b7          	lui	x15,0xffffa
     440:	00178793          	addi	x15,x15,1 # ffffa001 <seed1_volatile+0xfffb9941>
     444:	00f54533          	xor	x10,x10,x15
     448:	01051513          	slli	x10,x10,0x10
     44c:	01055513          	srli	x10,x10,0x10

00000450 <.L60>:
     450:	00008067          	ret

00000454 <crcu32>:
     454:	00a5c833          	xor	x16,x11,x10
     458:	0ff57693          	andi	x13,x10,255
     45c:	01051713          	slli	x14,x10,0x10
     460:	00187813          	andi	x16,x16,1
     464:	00050793          	mv	x15,x10
     468:	01075713          	srli	x14,x14,0x10
     46c:	0016d613          	srli	x12,x13,0x1
     470:	0015d513          	srli	x10,x11,0x1
     474:	00080c63          	beqz	x16,48c <.L110>
     478:	ffffa5b7          	lui	x11,0xffffa
     47c:	00158593          	addi	x11,x11,1 # ffffa001 <seed1_volatile+0xfffb9941>
     480:	00b54533          	xor	x10,x10,x11
     484:	01051513          	slli	x10,x10,0x10
     488:	01055513          	srli	x10,x10,0x10

0000048c <.L110>:
     48c:	00c545b3          	xor	x11,x10,x12
     490:	0015f593          	andi	x11,x11,1
     494:	0026d613          	srli	x12,x13,0x2
     498:	00155513          	srli	x10,x10,0x1
     49c:	00058c63          	beqz	x11,4b4 <.L111>
     4a0:	ffffa5b7          	lui	x11,0xffffa
     4a4:	00158593          	addi	x11,x11,1 # ffffa001 <seed1_volatile+0xfffb9941>
     4a8:	00b54533          	xor	x10,x10,x11
     4ac:	01051513          	slli	x10,x10,0x10
     4b0:	01055513          	srli	x10,x10,0x10

000004b4 <.L111>:
     4b4:	00c54633          	xor	x12,x10,x12
     4b8:	00167613          	andi	x12,x12,1
     4bc:	0036d593          	srli	x11,x13,0x3
     4c0:	00155513          	srli	x10,x10,0x1
     4c4:	00060c63          	beqz	x12,4dc <.L112>
     4c8:	ffffa637          	lui	x12,0xffffa
     4cc:	00160613          	addi	x12,x12,1 # ffffa001 <seed1_volatile+0xfffb9941>
     4d0:	00c54533          	xor	x10,x10,x12
     4d4:	01051513          	slli	x10,x10,0x10
     4d8:	01055513          	srli	x10,x10,0x10

000004dc <.L112>:
     4dc:	00b545b3          	xor	x11,x10,x11
     4e0:	0015f593          	andi	x11,x11,1
     4e4:	0046d613          	srli	x12,x13,0x4
     4e8:	00155513          	srli	x10,x10,0x1
     4ec:	00058c63          	beqz	x11,504 <.L113>
     4f0:	ffffa5b7          	lui	x11,0xffffa
     4f4:	00158593          	addi	x11,x11,1 # ffffa001 <seed1_volatile+0xfffb9941>
     4f8:	00b54533          	xor	x10,x10,x11
     4fc:	01051513          	slli	x10,x10,0x10
     500:	01055513          	srli	x10,x10,0x10

00000504 <.L113>:
     504:	00c54633          	xor	x12,x10,x12
     508:	00167613          	andi	x12,x12,1
     50c:	0056d593          	srli	x11,x13,0x5
     510:	00155513          	srli	x10,x10,0x1
     514:	00060c63          	beqz	x12,52c <.L114>
     518:	ffffa637          	lui	x12,0xffffa
     51c:	00160613          	addi	x12,x12,1 # ffffa001 <seed1_volatile+0xfffb9941>
     520:	00c54533          	xor	x10,x10,x12
     524:	01051513          	slli	x10,x10,0x10
     528:	01055513          	srli	x10,x10,0x10

0000052c <.L114>:
     52c:	00b545b3          	xor	x11,x10,x11
     530:	0015f593          	andi	x11,x11,1
     534:	0066d613          	srli	x12,x13,0x6
     538:	00155513          	srli	x10,x10,0x1
     53c:	00058c63          	beqz	x11,554 <.L115>
     540:	ffffa5b7          	lui	x11,0xffffa
     544:	00158593          	addi	x11,x11,1 # ffffa001 <seed1_volatile+0xfffb9941>
     548:	00b54533          	xor	x10,x10,x11
     54c:	01051513          	slli	x10,x10,0x10
     550:	01055513          	srli	x10,x10,0x10

00000554 <.L115>:
     554:	00c54633          	xor	x12,x10,x12
     558:	00167613          	andi	x12,x12,1
     55c:	0076d693          	srli	x13,x13,0x7
     560:	00155513          	srli	x10,x10,0x1
     564:	00060c63          	beqz	x12,57c <.L116>
     568:	ffffa637          	lui	x12,0xffffa
     56c:	00160613          	addi	x12,x12,1 # ffffa001 <seed1_volatile+0xfffb9941>
     570:	00c54533          	xor	x10,x10,x12
     574:	01051513          	slli	x10,x10,0x10
     578:	01055513          	srli	x10,x10,0x10

0000057c <.L116>:
     57c:	00157613          	andi	x12,x10,1
     580:	00155513          	srli	x10,x10,0x1
     584:	3cd61a63          	bne	x12,x13,958 <.L238>

00000588 <.L117>:
     588:	00875613          	srli	x12,x14,0x8
     58c:	00c54633          	xor	x12,x10,x12
     590:	00167613          	andi	x12,x12,1
     594:	00875693          	srli	x13,x14,0x8
     598:	00155513          	srli	x10,x10,0x1
     59c:	00975713          	srli	x14,x14,0x9
     5a0:	00060c63          	beqz	x12,5b8 <.L118>
     5a4:	ffffa637          	lui	x12,0xffffa
     5a8:	00160613          	addi	x12,x12,1 # ffffa001 <seed1_volatile+0xfffb9941>
     5ac:	00c54533          	xor	x10,x10,x12
     5b0:	01051513          	slli	x10,x10,0x10
     5b4:	01055513          	srli	x10,x10,0x10

000005b8 <.L118>:
     5b8:	00e54733          	xor	x14,x10,x14
     5bc:	00177713          	andi	x14,x14,1
     5c0:	0026d613          	srli	x12,x13,0x2
     5c4:	00155513          	srli	x10,x10,0x1
     5c8:	00070c63          	beqz	x14,5e0 <.L119>
     5cc:	ffffa737          	lui	x14,0xffffa
     5d0:	00170713          	addi	x14,x14,1 # ffffa001 <seed1_volatile+0xfffb9941>
     5d4:	00e54533          	xor	x10,x10,x14
     5d8:	01051513          	slli	x10,x10,0x10
     5dc:	01055513          	srli	x10,x10,0x10

000005e0 <.L119>:
     5e0:	00c54733          	xor	x14,x10,x12
     5e4:	00177713          	andi	x14,x14,1
     5e8:	0036d613          	srli	x12,x13,0x3
     5ec:	00155513          	srli	x10,x10,0x1
     5f0:	00070c63          	beqz	x14,608 <.L120>
     5f4:	ffffa737          	lui	x14,0xffffa
     5f8:	00170713          	addi	x14,x14,1 # ffffa001 <seed1_volatile+0xfffb9941>
     5fc:	00e54533          	xor	x10,x10,x14
     600:	01051513          	slli	x10,x10,0x10
     604:	01055513          	srli	x10,x10,0x10

00000608 <.L120>:
     608:	00c54633          	xor	x12,x10,x12
     60c:	00167613          	andi	x12,x12,1
     610:	0046d713          	srli	x14,x13,0x4
     614:	00155513          	srli	x10,x10,0x1
     618:	00060c63          	beqz	x12,630 <.L121>
     61c:	ffffa637          	lui	x12,0xffffa
     620:	00160613          	addi	x12,x12,1 # ffffa001 <seed1_volatile+0xfffb9941>
     624:	00c54533          	xor	x10,x10,x12
     628:	01051513          	slli	x10,x10,0x10
     62c:	01055513          	srli	x10,x10,0x10

00000630 <.L121>:
     630:	00e54733          	xor	x14,x10,x14
     634:	00177713          	andi	x14,x14,1
     638:	0056d613          	srli	x12,x13,0x5
     63c:	00155513          	srli	x10,x10,0x1
     640:	00070c63          	beqz	x14,658 <.L122>
     644:	ffffa737          	lui	x14,0xffffa
     648:	00170713          	addi	x14,x14,1 # ffffa001 <seed1_volatile+0xfffb9941>
     64c:	00e54533          	xor	x10,x10,x14
     650:	01051513          	slli	x10,x10,0x10
     654:	01055513          	srli	x10,x10,0x10

00000658 <.L122>:
     658:	00c54633          	xor	x12,x10,x12
     65c:	00167613          	andi	x12,x12,1
     660:	0066d713          	srli	x14,x13,0x6
     664:	00155513          	srli	x10,x10,0x1
     668:	00060c63          	beqz	x12,680 <.L123>
     66c:	ffffa637          	lui	x12,0xffffa
     670:	00160613          	addi	x12,x12,1 # ffffa001 <seed1_volatile+0xfffb9941>
     674:	00c54533          	xor	x10,x10,x12
     678:	01051513          	slli	x10,x10,0x10
     67c:	01055513          	srli	x10,x10,0x10

00000680 <.L123>:
     680:	00e54733          	xor	x14,x10,x14
     684:	00177713          	andi	x14,x14,1
     688:	0076d693          	srli	x13,x13,0x7
     68c:	00155513          	srli	x10,x10,0x1
     690:	00070c63          	beqz	x14,6a8 <.L124>
     694:	ffffa737          	lui	x14,0xffffa
     698:	00170713          	addi	x14,x14,1 # ffffa001 <seed1_volatile+0xfffb9941>
     69c:	00e54533          	xor	x10,x10,x14
     6a0:	01051513          	slli	x10,x10,0x10
     6a4:	01055513          	srli	x10,x10,0x10

000006a8 <.L124>:
     6a8:	00157713          	andi	x14,x10,1
     6ac:	00155513          	srli	x10,x10,0x1
     6b0:	28d71863          	bne	x14,x13,940 <.L239>

000006b4 <.L125>:
     6b4:	0107d713          	srli	x14,x15,0x10
     6b8:	00e546b3          	xor	x13,x10,x14
     6bc:	0016f693          	andi	x13,x13,1
     6c0:	0ff77713          	andi	x14,x14,255
     6c4:	0107d793          	srli	x15,x15,0x10
     6c8:	00175613          	srli	x12,x14,0x1
     6cc:	00155513          	srli	x10,x10,0x1
     6d0:	00068c63          	beqz	x13,6e8 <.L126>
     6d4:	ffffa6b7          	lui	x13,0xffffa
     6d8:	00168693          	addi	x13,x13,1 # ffffa001 <seed1_volatile+0xfffb9941>
     6dc:	00d54533          	xor	x10,x10,x13
     6e0:	01051513          	slli	x10,x10,0x10
     6e4:	01055513          	srli	x10,x10,0x10

000006e8 <.L126>:
     6e8:	00c54633          	xor	x12,x10,x12
     6ec:	00167613          	andi	x12,x12,1
     6f0:	00275693          	srli	x13,x14,0x2
     6f4:	00155513          	srli	x10,x10,0x1
     6f8:	00060c63          	beqz	x12,710 <.L127>
     6fc:	ffffa637          	lui	x12,0xffffa
     700:	00160613          	addi	x12,x12,1 # ffffa001 <seed1_volatile+0xfffb9941>
     704:	00c54533          	xor	x10,x10,x12
     708:	01051513          	slli	x10,x10,0x10
     70c:	01055513          	srli	x10,x10,0x10

00000710 <.L127>:
     710:	00d546b3          	xor	x13,x10,x13
     714:	0016f693          	andi	x13,x13,1
     718:	00375613          	srli	x12,x14,0x3
     71c:	00155513          	srli	x10,x10,0x1
     720:	00068c63          	beqz	x13,738 <.L128>
     724:	ffffa6b7          	lui	x13,0xffffa
     728:	00168693          	addi	x13,x13,1 # ffffa001 <seed1_volatile+0xfffb9941>
     72c:	00d54533          	xor	x10,x10,x13
     730:	01051513          	slli	x10,x10,0x10
     734:	01055513          	srli	x10,x10,0x10

00000738 <.L128>:
     738:	00c54633          	xor	x12,x10,x12
     73c:	00167613          	andi	x12,x12,1
     740:	00475693          	srli	x13,x14,0x4
     744:	00155513          	srli	x10,x10,0x1
     748:	00060c63          	beqz	x12,760 <.L129>
     74c:	ffffa637          	lui	x12,0xffffa
     750:	00160613          	addi	x12,x12,1 # ffffa001 <seed1_volatile+0xfffb9941>
     754:	00c54533          	xor	x10,x10,x12
     758:	01051513          	slli	x10,x10,0x10
     75c:	01055513          	srli	x10,x10,0x10

00000760 <.L129>:
     760:	00d546b3          	xor	x13,x10,x13
     764:	0016f693          	andi	x13,x13,1
     768:	00575613          	srli	x12,x14,0x5
     76c:	00155513          	srli	x10,x10,0x1
     770:	00068c63          	beqz	x13,788 <.L130>
     774:	ffffa6b7          	lui	x13,0xffffa
     778:	00168693          	addi	x13,x13,1 # ffffa001 <seed1_volatile+0xfffb9941>
     77c:	00d54533          	xor	x10,x10,x13
     780:	01051513          	slli	x10,x10,0x10
     784:	01055513          	srli	x10,x10,0x10

00000788 <.L130>:
     788:	00c54633          	xor	x12,x10,x12
     78c:	00167613          	andi	x12,x12,1
     790:	00675693          	srli	x13,x14,0x6
     794:	00155513          	srli	x10,x10,0x1
     798:	00060c63          	beqz	x12,7b0 <.L131>
     79c:	ffffa637          	lui	x12,0xffffa
     7a0:	00160613          	addi	x12,x12,1 # ffffa001 <seed1_volatile+0xfffb9941>
     7a4:	00c54533          	xor	x10,x10,x12
     7a8:	01051513          	slli	x10,x10,0x10
     7ac:	01055513          	srli	x10,x10,0x10

000007b0 <.L131>:
     7b0:	00d546b3          	xor	x13,x10,x13
     7b4:	0016f693          	andi	x13,x13,1
     7b8:	00775713          	srli	x14,x14,0x7
     7bc:	00155513          	srli	x10,x10,0x1
     7c0:	00068c63          	beqz	x13,7d8 <.L132>
     7c4:	ffffa6b7          	lui	x13,0xffffa
     7c8:	00168693          	addi	x13,x13,1 # ffffa001 <seed1_volatile+0xfffb9941>
     7cc:	00d54533          	xor	x10,x10,x13
     7d0:	01051513          	slli	x10,x10,0x10
     7d4:	01055513          	srli	x10,x10,0x10

000007d8 <.L132>:
     7d8:	00157693          	andi	x13,x10,1
     7dc:	00155513          	srli	x10,x10,0x1
     7e0:	14e69463          	bne	x13,x14,928 <.L240>

000007e4 <.L133>:
     7e4:	0087d693          	srli	x13,x15,0x8
     7e8:	00a6c6b3          	xor	x13,x13,x10
     7ec:	0016f693          	andi	x13,x13,1
     7f0:	0087d713          	srli	x14,x15,0x8
     7f4:	00155513          	srli	x10,x10,0x1
     7f8:	0097d793          	srli	x15,x15,0x9
     7fc:	00068c63          	beqz	x13,814 <.L134>
     800:	ffffa6b7          	lui	x13,0xffffa
     804:	00168693          	addi	x13,x13,1 # ffffa001 <seed1_volatile+0xfffb9941>
     808:	00d54533          	xor	x10,x10,x13
     80c:	01051513          	slli	x10,x10,0x10
     810:	01055513          	srli	x10,x10,0x10

00000814 <.L134>:
     814:	00f547b3          	xor	x15,x10,x15
     818:	0017f793          	andi	x15,x15,1
     81c:	00275693          	srli	x13,x14,0x2
     820:	00155513          	srli	x10,x10,0x1
     824:	00078c63          	beqz	x15,83c <.L135>
     828:	ffffa7b7          	lui	x15,0xffffa
     82c:	00178793          	addi	x15,x15,1 # ffffa001 <seed1_volatile+0xfffb9941>
     830:	00f54533          	xor	x10,x10,x15
     834:	01051513          	slli	x10,x10,0x10
     838:	01055513          	srli	x10,x10,0x10

0000083c <.L135>:
     83c:	00a6c7b3          	xor	x15,x13,x10
     840:	0017f793          	andi	x15,x15,1
     844:	00375693          	srli	x13,x14,0x3
     848:	00155513          	srli	x10,x10,0x1
     84c:	00078c63          	beqz	x15,864 <.L136>
     850:	ffffa7b7          	lui	x15,0xffffa
     854:	00178793          	addi	x15,x15,1 # ffffa001 <seed1_volatile+0xfffb9941>
     858:	00f54533          	xor	x10,x10,x15
     85c:	01051513          	slli	x10,x10,0x10
     860:	01055513          	srli	x10,x10,0x10

00000864 <.L136>:
     864:	00a6c6b3          	xor	x13,x13,x10
     868:	0016f693          	andi	x13,x13,1
     86c:	00475793          	srli	x15,x14,0x4
     870:	00155513          	srli	x10,x10,0x1
     874:	00068c63          	beqz	x13,88c <.L137>
     878:	ffffa6b7          	lui	x13,0xffffa
     87c:	00168693          	addi	x13,x13,1 # ffffa001 <seed1_volatile+0xfffb9941>
     880:	00d54533          	xor	x10,x10,x13
     884:	01051513          	slli	x10,x10,0x10
     888:	01055513          	srli	x10,x10,0x10

0000088c <.L137>:
     88c:	00f547b3          	xor	x15,x10,x15
     890:	0017f793          	andi	x15,x15,1
     894:	00575693          	srli	x13,x14,0x5
     898:	00155513          	srli	x10,x10,0x1
     89c:	00078c63          	beqz	x15,8b4 <.L138>
     8a0:	ffffa7b7          	lui	x15,0xffffa
     8a4:	00178793          	addi	x15,x15,1 # ffffa001 <seed1_volatile+0xfffb9941>
     8a8:	00f54533          	xor	x10,x10,x15
     8ac:	01051513          	slli	x10,x10,0x10
     8b0:	01055513          	srli	x10,x10,0x10

000008b4 <.L138>:
     8b4:	00d546b3          	xor	x13,x10,x13
     8b8:	0016f693          	andi	x13,x13,1
     8bc:	00675793          	srli	x15,x14,0x6
     8c0:	00155513          	srli	x10,x10,0x1
     8c4:	00068c63          	beqz	x13,8dc <.L139>
     8c8:	ffffa6b7          	lui	x13,0xffffa
     8cc:	00168693          	addi	x13,x13,1 # ffffa001 <seed1_volatile+0xfffb9941>
     8d0:	00d54533          	xor	x10,x10,x13
     8d4:	01051513          	slli	x10,x10,0x10
     8d8:	01055513          	srli	x10,x10,0x10

000008dc <.L139>:
     8dc:	00f547b3          	xor	x15,x10,x15
     8e0:	0017f793          	andi	x15,x15,1
     8e4:	00775713          	srli	x14,x14,0x7
     8e8:	00155513          	srli	x10,x10,0x1
     8ec:	00078c63          	beqz	x15,904 <.L140>
     8f0:	ffffa7b7          	lui	x15,0xffffa
     8f4:	00178793          	addi	x15,x15,1 # ffffa001 <seed1_volatile+0xfffb9941>
     8f8:	00f54533          	xor	x10,x10,x15
     8fc:	01051513          	slli	x10,x10,0x10
     900:	01055513          	srli	x10,x10,0x10

00000904 <.L140>:
     904:	00157793          	andi	x15,x10,1
     908:	00155513          	srli	x10,x10,0x1
     90c:	00e78c63          	beq	x15,x14,924 <.L141>
     910:	ffffa7b7          	lui	x15,0xffffa
     914:	00178793          	addi	x15,x15,1 # ffffa001 <seed1_volatile+0xfffb9941>
     918:	00f54533          	xor	x10,x10,x15
     91c:	01051513          	slli	x10,x10,0x10
     920:	01055513          	srli	x10,x10,0x10

00000924 <.L141>:
     924:	00008067          	ret

00000928 <.L240>:
     928:	ffffa737          	lui	x14,0xffffa
     92c:	00170713          	addi	x14,x14,1 # ffffa001 <seed1_volatile+0xfffb9941>
     930:	00e54533          	xor	x10,x10,x14
     934:	01051513          	slli	x10,x10,0x10
     938:	01055513          	srli	x10,x10,0x10
     93c:	ea9ff06f          	j	7e4 <.L133>

00000940 <.L239>:
     940:	ffffa737          	lui	x14,0xffffa
     944:	00170713          	addi	x14,x14,1 # ffffa001 <seed1_volatile+0xfffb9941>
     948:	00e54533          	xor	x10,x10,x14
     94c:	01051513          	slli	x10,x10,0x10
     950:	01055513          	srli	x10,x10,0x10
     954:	d61ff06f          	j	6b4 <.L125>

00000958 <.L238>:
     958:	ffffa6b7          	lui	x13,0xffffa
     95c:	00168693          	addi	x13,x13,1 # ffffa001 <seed1_volatile+0xfffb9941>
     960:	00d54533          	xor	x10,x10,x13
     964:	01051513          	slli	x10,x10,0x10
     968:	01055513          	srli	x10,x10,0x10
     96c:	c1dff06f          	j	588 <.L117>

00000970 <crc16>:
     970:	00a5c6b3          	xor	x13,x11,x10
     974:	0ff57713          	andi	x14,x10,255
     978:	01051793          	slli	x15,x10,0x10
     97c:	0016f693          	andi	x13,x13,1
     980:	0107d793          	srli	x15,x15,0x10
     984:	00175613          	srli	x12,x14,0x1
     988:	0015d513          	srli	x10,x11,0x1
     98c:	00068c63          	beqz	x13,9a4 <.L242>
     990:	ffffa6b7          	lui	x13,0xffffa
     994:	00168693          	addi	x13,x13,1 # ffffa001 <seed1_volatile+0xfffb9941>
     998:	00d54533          	xor	x10,x10,x13
     99c:	01051513          	slli	x10,x10,0x10
     9a0:	01055513          	srli	x10,x10,0x10

000009a4 <.L242>:
     9a4:	00c54633          	xor	x12,x10,x12
     9a8:	00167613          	andi	x12,x12,1
     9ac:	00275693          	srli	x13,x14,0x2
     9b0:	00155513          	srli	x10,x10,0x1
     9b4:	00060c63          	beqz	x12,9cc <.L243>
     9b8:	ffffa637          	lui	x12,0xffffa
     9bc:	00160613          	addi	x12,x12,1 # ffffa001 <seed1_volatile+0xfffb9941>
     9c0:	00c54533          	xor	x10,x10,x12
     9c4:	01051513          	slli	x10,x10,0x10
     9c8:	01055513          	srli	x10,x10,0x10

000009cc <.L243>:
     9cc:	00d546b3          	xor	x13,x10,x13
     9d0:	0016f693          	andi	x13,x13,1
     9d4:	00375613          	srli	x12,x14,0x3
     9d8:	00155513          	srli	x10,x10,0x1
     9dc:	00068c63          	beqz	x13,9f4 <.L244>
     9e0:	ffffa6b7          	lui	x13,0xffffa
     9e4:	00168693          	addi	x13,x13,1 # ffffa001 <seed1_volatile+0xfffb9941>
     9e8:	00d54533          	xor	x10,x10,x13
     9ec:	01051513          	slli	x10,x10,0x10
     9f0:	01055513          	srli	x10,x10,0x10

000009f4 <.L244>:
     9f4:	00c54633          	xor	x12,x10,x12
     9f8:	00167613          	andi	x12,x12,1
     9fc:	00475693          	srli	x13,x14,0x4
     a00:	00155513          	srli	x10,x10,0x1
     a04:	00060c63          	beqz	x12,a1c <.L245>
     a08:	ffffa637          	lui	x12,0xffffa
     a0c:	00160613          	addi	x12,x12,1 # ffffa001 <seed1_volatile+0xfffb9941>
     a10:	00c54533          	xor	x10,x10,x12
     a14:	01051513          	slli	x10,x10,0x10
     a18:	01055513          	srli	x10,x10,0x10

00000a1c <.L245>:
     a1c:	00d546b3          	xor	x13,x10,x13
     a20:	0016f693          	andi	x13,x13,1
     a24:	00575613          	srli	x12,x14,0x5
     a28:	00155513          	srli	x10,x10,0x1
     a2c:	00068c63          	beqz	x13,a44 <.L246>
     a30:	ffffa6b7          	lui	x13,0xffffa
     a34:	00168693          	addi	x13,x13,1 # ffffa001 <seed1_volatile+0xfffb9941>
     a38:	00d54533          	xor	x10,x10,x13
     a3c:	01051513          	slli	x10,x10,0x10
     a40:	01055513          	srli	x10,x10,0x10

00000a44 <.L246>:
     a44:	00c54633          	xor	x12,x10,x12
     a48:	00167613          	andi	x12,x12,1
     a4c:	00675693          	srli	x13,x14,0x6
     a50:	00155513          	srli	x10,x10,0x1
     a54:	00060c63          	beqz	x12,a6c <.L247>
     a58:	ffffa637          	lui	x12,0xffffa
     a5c:	00160613          	addi	x12,x12,1 # ffffa001 <seed1_volatile+0xfffb9941>
     a60:	00c54533          	xor	x10,x10,x12
     a64:	01051513          	slli	x10,x10,0x10
     a68:	01055513          	srli	x10,x10,0x10

00000a6c <.L247>:
     a6c:	00d546b3          	xor	x13,x10,x13
     a70:	0016f693          	andi	x13,x13,1
     a74:	00775713          	srli	x14,x14,0x7
     a78:	00155513          	srli	x10,x10,0x1
     a7c:	00068c63          	beqz	x13,a94 <.L248>
     a80:	ffffa6b7          	lui	x13,0xffffa
     a84:	00168693          	addi	x13,x13,1 # ffffa001 <seed1_volatile+0xfffb9941>
     a88:	00d54533          	xor	x10,x10,x13
     a8c:	01051513          	slli	x10,x10,0x10
     a90:	01055513          	srli	x10,x10,0x10

00000a94 <.L248>:
     a94:	00157693          	andi	x13,x10,1
     a98:	00155513          	srli	x10,x10,0x1
     a9c:	14e69463          	bne	x13,x14,be4 <.L306>

00000aa0 <.L249>:
     aa0:	0087d693          	srli	x13,x15,0x8
     aa4:	00a6c6b3          	xor	x13,x13,x10
     aa8:	0016f693          	andi	x13,x13,1
     aac:	0087d713          	srli	x14,x15,0x8
     ab0:	00155513          	srli	x10,x10,0x1
     ab4:	0097d793          	srli	x15,x15,0x9
     ab8:	00068c63          	beqz	x13,ad0 <.L250>
     abc:	ffffa6b7          	lui	x13,0xffffa
     ac0:	00168693          	addi	x13,x13,1 # ffffa001 <seed1_volatile+0xfffb9941>
     ac4:	00d54533          	xor	x10,x10,x13
     ac8:	01051513          	slli	x10,x10,0x10
     acc:	01055513          	srli	x10,x10,0x10

00000ad0 <.L250>:
     ad0:	00a7c7b3          	xor	x15,x15,x10
     ad4:	0017f793          	andi	x15,x15,1
     ad8:	00275693          	srli	x13,x14,0x2
     adc:	00155513          	srli	x10,x10,0x1
     ae0:	00078c63          	beqz	x15,af8 <.L251>
     ae4:	ffffa7b7          	lui	x15,0xffffa
     ae8:	00178793          	addi	x15,x15,1 # ffffa001 <seed1_volatile+0xfffb9941>
     aec:	00f54533          	xor	x10,x10,x15
     af0:	01051513          	slli	x10,x10,0x10
     af4:	01055513          	srli	x10,x10,0x10

00000af8 <.L251>:
     af8:	00d547b3          	xor	x15,x10,x13
     afc:	0017f793          	andi	x15,x15,1
     b00:	00375693          	srli	x13,x14,0x3
     b04:	00155513          	srli	x10,x10,0x1
     b08:	00078c63          	beqz	x15,b20 <.L252>
     b0c:	ffffa7b7          	lui	x15,0xffffa
     b10:	00178793          	addi	x15,x15,1 # ffffa001 <seed1_volatile+0xfffb9941>
     b14:	00f54533          	xor	x10,x10,x15
     b18:	01051513          	slli	x10,x10,0x10
     b1c:	01055513          	srli	x10,x10,0x10

00000b20 <.L252>:
     b20:	00d546b3          	xor	x13,x10,x13
     b24:	0016f693          	andi	x13,x13,1
     b28:	00475793          	srli	x15,x14,0x4
     b2c:	00155513          	srli	x10,x10,0x1
     b30:	00068c63          	beqz	x13,b48 <.L253>
     b34:	ffffa6b7          	lui	x13,0xffffa
     b38:	00168693          	addi	x13,x13,1 # ffffa001 <seed1_volatile+0xfffb9941>
     b3c:	00d54533          	xor	x10,x10,x13
     b40:	01051513          	slli	x10,x10,0x10
     b44:	01055513          	srli	x10,x10,0x10

00000b48 <.L253>:
     b48:	00f547b3          	xor	x15,x10,x15
     b4c:	0017f793          	andi	x15,x15,1
     b50:	00575693          	srli	x13,x14,0x5
     b54:	00155513          	srli	x10,x10,0x1
     b58:	00078c63          	beqz	x15,b70 <.L254>
     b5c:	ffffa7b7          	lui	x15,0xffffa
     b60:	00178793          	addi	x15,x15,1 # ffffa001 <seed1_volatile+0xfffb9941>
     b64:	00f54533          	xor	x10,x10,x15
     b68:	01051513          	slli	x10,x10,0x10
     b6c:	01055513          	srli	x10,x10,0x10

00000b70 <.L254>:
     b70:	00d546b3          	xor	x13,x10,x13
     b74:	0016f693          	andi	x13,x13,1
     b78:	00675793          	srli	x15,x14,0x6
     b7c:	00155513          	srli	x10,x10,0x1
     b80:	00068c63          	beqz	x13,b98 <.L255>
     b84:	ffffa6b7          	lui	x13,0xffffa
     b88:	00168693          	addi	x13,x13,1 # ffffa001 <seed1_volatile+0xfffb9941>
     b8c:	00d54533          	xor	x10,x10,x13
     b90:	01051513          	slli	x10,x10,0x10
     b94:	01055513          	srli	x10,x10,0x10

00000b98 <.L255>:
     b98:	00f547b3          	xor	x15,x10,x15
     b9c:	0017f793          	andi	x15,x15,1
     ba0:	00775713          	srli	x14,x14,0x7
     ba4:	00155513          	srli	x10,x10,0x1
     ba8:	00078c63          	beqz	x15,bc0 <.L256>
     bac:	ffffa7b7          	lui	x15,0xffffa
     bb0:	00178793          	addi	x15,x15,1 # ffffa001 <seed1_volatile+0xfffb9941>
     bb4:	00f54533          	xor	x10,x10,x15
     bb8:	01051513          	slli	x10,x10,0x10
     bbc:	01055513          	srli	x10,x10,0x10

00000bc0 <.L256>:
     bc0:	00157793          	andi	x15,x10,1
     bc4:	00155513          	srli	x10,x10,0x1
     bc8:	00e78c63          	beq	x15,x14,be0 <.L257>
     bcc:	ffffa7b7          	lui	x15,0xffffa
     bd0:	00178793          	addi	x15,x15,1 # ffffa001 <seed1_volatile+0xfffb9941>
     bd4:	00f54533          	xor	x10,x10,x15
     bd8:	01051513          	slli	x10,x10,0x10
     bdc:	01055513          	srli	x10,x10,0x10

00000be0 <.L257>:
     be0:	00008067          	ret

00000be4 <.L306>:
     be4:	ffffa737          	lui	x14,0xffffa
     be8:	00170713          	addi	x14,x14,1 # ffffa001 <seed1_volatile+0xfffb9941>
     bec:	00e54533          	xor	x10,x10,x14
     bf0:	01051513          	slli	x10,x10,0x10
     bf4:	01055513          	srli	x10,x10,0x10
     bf8:	ea9ff06f          	j	aa0 <.L249>

00000bfc <check_data_types>:
     bfc:	00000513          	li	x10,0
     c00:	00008067          	ret

00000c04 <printf_num>:
     c04:	00051463          	bnez	x10,c0c <.L15>
     c08:	00008067          	ret

00000c0c <.L15>:
     c0c:	fe010113          	addi	x2,x2,-32
     c10:	00812c23          	sw	x8,24(x2)
     c14:	00912a23          	sw	x9,20(x2)
     c18:	00112e23          	sw	x1,28(x2)
     c1c:	01212823          	sw	x18,16(x2)
     c20:	01312623          	sw	x19,12(x2)
     c24:	00900793          	li	x15,9
     c28:	00050413          	mv	x8,x10
     c2c:	000404b7          	lui	x9,0x40
     c30:	02a7ee63          	bltu	x15,x10,c6c <.L16>

00000c34 <.L3>:
     c34:	00040513          	mv	x10,x8
     c38:	00a00593          	li	x11,10
     c3c:	490030ef          	jal	x1,40cc <__umodsi3>
     c40:	0184a783          	lw	x15,24(x9) # 40018 <outputAddr>
     c44:	03050513          	addi	x10,x10,48
     c48:	0ff57513          	andi	x10,x10,255
     c4c:	00a78023          	sb	x10,0(x15)
     c50:	01c12083          	lw	x1,28(x2)
     c54:	01812403          	lw	x8,24(x2)
     c58:	01412483          	lw	x9,20(x2)
     c5c:	01012903          	lw	x18,16(x2)
     c60:	00c12983          	lw	x19,12(x2)
     c64:	02010113          	addi	x2,x2,32
     c68:	00008067          	ret

00000c6c <.L16>:
     c6c:	00a00593          	li	x11,10
     c70:	414030ef          	jal	x1,4084 <__udivsi3>
     c74:	06300793          	li	x15,99
     c78:	00050913          	mv	x18,x10
     c7c:	0287e263          	bltu	x15,x8,ca0 <.L17>

00000c80 <.L4>:
     c80:	00a00593          	li	x11,10
     c84:	00090513          	mv	x10,x18
     c88:	444030ef          	jal	x1,40cc <__umodsi3>
     c8c:	0184a783          	lw	x15,24(x9)
     c90:	03050513          	addi	x10,x10,48
     c94:	0ff57513          	andi	x10,x10,255
     c98:	00a78023          	sb	x10,0(x15)
     c9c:	f99ff06f          	j	c34 <.L3>

00000ca0 <.L17>:
     ca0:	00a00593          	li	x11,10
     ca4:	3e0030ef          	jal	x1,4084 <__udivsi3>
     ca8:	00a00593          	li	x11,10
     cac:	00050993          	mv	x19,x10
     cb0:	3d4030ef          	jal	x1,4084 <__udivsi3>
     cb4:	f51ff0ef          	jal	x1,c04 <printf_num>
     cb8:	00a00593          	li	x11,10
     cbc:	00098513          	mv	x10,x19
     cc0:	40c030ef          	jal	x1,40cc <__umodsi3>
     cc4:	0184a703          	lw	x14,24(x9)
     cc8:	03050793          	addi	x15,x10,48
     ccc:	0ff7f793          	andi	x15,x15,255
     cd0:	00f70023          	sb	x15,0(x14)
     cd4:	fadff06f          	j	c80 <.L4>

00000cd8 <printf_deci>:
     cd8:	0c050c63          	beqz	x10,db0 <.L32>
     cdc:	fd010113          	addi	x2,x2,-48
     ce0:	02812423          	sw	x8,40(x2)
     ce4:	02912223          	sw	x9,36(x2)
     ce8:	02112623          	sw	x1,44(x2)
     cec:	03212023          	sw	x18,32(x2)
     cf0:	01312e23          	sw	x19,28(x2)
     cf4:	01412c23          	sw	x20,24(x2)
     cf8:	01512a23          	sw	x21,20(x2)
     cfc:	01612823          	sw	x22,16(x2)
     d00:	01712623          	sw	x23,12(x2)
     d04:	00050413          	mv	x8,x10
     d08:	000404b7          	lui	x9,0x40
     d0c:	04054a63          	bltz	x10,d60 <.L33>
     d10:	00900793          	li	x15,9
     d14:	0687c263          	blt	x15,x8,d78 <.L34>

00000d18 <.L22>:
     d18:	00040513          	mv	x10,x8
     d1c:	00a00593          	li	x11,10
     d20:	3ac030ef          	jal	x1,40cc <__umodsi3>
     d24:	0184a783          	lw	x15,24(x9) # 40018 <outputAddr>
     d28:	03050513          	addi	x10,x10,48
     d2c:	0ff57513          	andi	x10,x10,255
     d30:	00a78023          	sb	x10,0(x15)
     d34:	02c12083          	lw	x1,44(x2)
     d38:	02812403          	lw	x8,40(x2)
     d3c:	02412483          	lw	x9,36(x2)
     d40:	02012903          	lw	x18,32(x2)
     d44:	01c12983          	lw	x19,28(x2)
     d48:	01812a03          	lw	x20,24(x2)
     d4c:	01412a83          	lw	x21,20(x2)
     d50:	01012b03          	lw	x22,16(x2)
     d54:	00c12b83          	lw	x23,12(x2)
     d58:	03010113          	addi	x2,x2,48
     d5c:	00008067          	ret

00000d60 <.L33>:
     d60:	0184a783          	lw	x15,24(x9)
     d64:	02d00713          	li	x14,45
     d68:	40a00433          	neg	x8,x10
     d6c:	00e78023          	sb	x14,0(x15)
     d70:	00900793          	li	x15,9
     d74:	fa87d2e3          	bge	x15,x8,d18 <.L22>

00000d78 <.L34>:
     d78:	00a00593          	li	x11,10
     d7c:	00040513          	mv	x10,x8
     d80:	304030ef          	jal	x1,4084 <__udivsi3>
     d84:	06300793          	li	x15,99
     d88:	00050913          	mv	x18,x10
     d8c:	0287cc63          	blt	x15,x8,dc4 <.L35>

00000d90 <.L23>:
     d90:	00a00593          	li	x11,10
     d94:	00090513          	mv	x10,x18
     d98:	334030ef          	jal	x1,40cc <__umodsi3>
     d9c:	0184a783          	lw	x15,24(x9)
     da0:	03050513          	addi	x10,x10,48
     da4:	0ff57513          	andi	x10,x10,255
     da8:	00a78023          	sb	x10,0(x15)
     dac:	f6dff06f          	j	d18 <.L22>

00000db0 <.L32>:
     db0:	000407b7          	lui	x15,0x40
     db4:	0187a783          	lw	x15,24(x15) # 40018 <outputAddr>
     db8:	03000713          	li	x14,48
     dbc:	00e78023          	sb	x14,0(x15)
     dc0:	00008067          	ret

00000dc4 <.L35>:
     dc4:	00a00593          	li	x11,10
     dc8:	2bc030ef          	jal	x1,4084 <__udivsi3>
     dcc:	3e700793          	li	x15,999
     dd0:	00050993          	mv	x19,x10
     dd4:	0287e263          	bltu	x15,x8,df8 <.L36>

00000dd8 <.L24>:
     dd8:	00a00593          	li	x11,10
     ddc:	00098513          	mv	x10,x19
     de0:	2ec030ef          	jal	x1,40cc <__umodsi3>
     de4:	0184a783          	lw	x15,24(x9)
     de8:	03050513          	addi	x10,x10,48
     dec:	0ff57513          	andi	x10,x10,255
     df0:	00a78023          	sb	x10,0(x15)
     df4:	f9dff06f          	j	d90 <.L23>

00000df8 <.L36>:
     df8:	00a00593          	li	x11,10
     dfc:	288030ef          	jal	x1,4084 <__udivsi3>
     e00:	000027b7          	lui	x15,0x2
     e04:	70f78793          	addi	x15,x15,1807 # 270f <stop_time+0xb>
     e08:	00050a13          	mv	x20,x10
     e0c:	0287e263          	bltu	x15,x8,e30 <.L37>

00000e10 <.L25>:
     e10:	00a00593          	li	x11,10
     e14:	000a0513          	mv	x10,x20
     e18:	2b4030ef          	jal	x1,40cc <__umodsi3>
     e1c:	0184a703          	lw	x14,24(x9)
     e20:	03050793          	addi	x15,x10,48
     e24:	0ff7f793          	andi	x15,x15,255
     e28:	00f70023          	sb	x15,0(x14)
     e2c:	fadff06f          	j	dd8 <.L24>

00000e30 <.L37>:
     e30:	00a00593          	li	x11,10
     e34:	250030ef          	jal	x1,4084 <__udivsi3>
     e38:	000187b7          	lui	x15,0x18
     e3c:	69f78793          	addi	x15,x15,1695 # 1869f <.L119+0x139fb>
     e40:	00050a93          	mv	x21,x10
     e44:	0287e263          	bltu	x15,x8,e68 <.L38>

00000e48 <.L26>:
     e48:	00a00593          	li	x11,10
     e4c:	000a8513          	mv	x10,x21
     e50:	27c030ef          	jal	x1,40cc <__umodsi3>
     e54:	0184a703          	lw	x14,24(x9)
     e58:	03050793          	addi	x15,x10,48
     e5c:	0ff7f793          	andi	x15,x15,255
     e60:	00f70023          	sb	x15,0(x14)
     e64:	fadff06f          	j	e10 <.L25>

00000e68 <.L38>:
     e68:	00a00593          	li	x11,10
     e6c:	218030ef          	jal	x1,4084 <__udivsi3>
     e70:	000f47b7          	lui	x15,0xf4
     e74:	23f78793          	addi	x15,x15,575 # f423f <seed1_volatile+0xb3b7f>
     e78:	00050b13          	mv	x22,x10
     e7c:	0287e263          	bltu	x15,x8,ea0 <.L39>

00000e80 <.L27>:
     e80:	00a00593          	li	x11,10
     e84:	000b0513          	mv	x10,x22
     e88:	244030ef          	jal	x1,40cc <__umodsi3>
     e8c:	0184a703          	lw	x14,24(x9)
     e90:	03050793          	addi	x15,x10,48
     e94:	0ff7f793          	andi	x15,x15,255
     e98:	00f70023          	sb	x15,0(x14)
     e9c:	fadff06f          	j	e48 <.L26>

00000ea0 <.L39>:
     ea0:	00a00593          	li	x11,10
     ea4:	1e0030ef          	jal	x1,4084 <__udivsi3>
     ea8:	00a00593          	li	x11,10
     eac:	00050b93          	mv	x23,x10
     eb0:	1d4030ef          	jal	x1,4084 <__udivsi3>
     eb4:	d51ff0ef          	jal	x1,c04 <printf_num>
     eb8:	00a00593          	li	x11,10
     ebc:	000b8513          	mv	x10,x23
     ec0:	20c030ef          	jal	x1,40cc <__umodsi3>
     ec4:	0184a703          	lw	x14,24(x9)
     ec8:	03050793          	addi	x15,x10,48
     ecc:	0ff7f793          	andi	x15,x15,255
     ed0:	00f70023          	sb	x15,0(x14)
     ed4:	fadff06f          	j	e80 <.L27>

00000ed8 <printf_char>:
     ed8:	000407b7          	lui	x15,0x40
     edc:	0187a783          	lw	x15,24(x15) # 40018 <outputAddr>
     ee0:	0ff57513          	andi	x10,x10,255
     ee4:	00a78023          	sb	x10,0(x15)
     ee8:	00008067          	ret

00000eec <printf_str>:
     eec:	00054783          	lbu	x15,0(x10)
     ef0:	02078063          	beqz	x15,f10 <.L41>
     ef4:	00150513          	addi	x10,x10,1
     ef8:	000406b7          	lui	x13,0x40

00000efc <.L43>:
     efc:	0186a703          	lw	x14,24(x13) # 40018 <outputAddr>
     f00:	00150513          	addi	x10,x10,1
     f04:	00f70023          	sb	x15,0(x14)
     f08:	fff54783          	lbu	x15,-1(x10)
     f0c:	fe0798e3          	bnez	x15,efc <.L43>

00000f10 <.L41>:
     f10:	00008067          	ret

00000f14 <ee_printf>:
     f14:	f7010113          	addi	x2,x2,-144
     f18:	06112623          	sw	x1,108(x2)
     f1c:	06812423          	sw	x8,104(x2)
     f20:	06912223          	sw	x9,100(x2)
     f24:	07212023          	sw	x18,96(x2)
     f28:	05312e23          	sw	x19,92(x2)
     f2c:	05412c23          	sw	x20,88(x2)
     f30:	05512a23          	sw	x21,84(x2)
     f34:	05612823          	sw	x22,80(x2)
     f38:	05712623          	sw	x23,76(x2)
     f3c:	05812423          	sw	x24,72(x2)
     f40:	05912223          	sw	x25,68(x2)
     f44:	05a12023          	sw	x26,64(x2)
     f48:	03b12e23          	sw	x27,60(x2)
     f4c:	00054303          	lbu	x6,0(x10)
     f50:	08f12223          	sw	x15,132(x2)
     f54:	07410793          	addi	x15,x2,116
     f58:	06b12a23          	sw	x11,116(x2)
     f5c:	06c12c23          	sw	x12,120(x2)
     f60:	06d12e23          	sw	x13,124(x2)
     f64:	08e12023          	sw	x14,128(x2)
     f68:	09012423          	sw	x16,136(x2)
     f6c:	09112623          	sw	x17,140(x2)
     f70:	02f12623          	sw	x15,44(x2)
     f74:	08030a63          	beqz	x6,1008 <.L75>
     f78:	00002937          	lui	x18,0x2
     f7c:	00018a37          	lui	x20,0x18
     f80:	000f49b7          	lui	x19,0xf4
     f84:	00050a93          	mv	x21,x10
     f88:	00000413          	li	x8,0
     f8c:	02500c93          	li	x25,37
     f90:	00040b37          	lui	x22,0x40
     f94:	70f90913          	addi	x18,x18,1807 # 270f <stop_time+0xb>
     f98:	69fa0a13          	addi	x20,x20,1695 # 1869f <.L119+0x139fb>
     f9c:	23f98993          	addi	x19,x19,575 # f423f <seed1_volatile+0xb3b7f>
     fa0:	0180006f          	j	fb8 <.L49>

00000fa4 <.L77>:
     fa4:	018b2703          	lw	x14,24(x22) # 40018 <outputAddr>
     fa8:	00078413          	mv	x8,x15
     fac:	00670023          	sb	x6,0(x14)

00000fb0 <.L51>:
     fb0:	0004c303          	lbu	x6,0(x9)
     fb4:	04030a63          	beqz	x6,1008 <.L75>

00000fb8 <.L49>:
     fb8:	00140793          	addi	x15,x8,1 # ffff8001 <seed1_volatile+0xfffb7941>
     fbc:	00fa84b3          	add	x9,x21,x15
     fc0:	ff9312e3          	bne	x6,x25,fa4 <.L77>
     fc4:	0004c783          	lbu	x15,0(x9)
     fc8:	00240413          	addi	x8,x8,2
     fcc:	06400713          	li	x14,100
     fd0:	008a84b3          	add	x9,x21,x8
     fd4:	0ae78463          	beq	x15,x14,107c <.L52>
     fd8:	07300713          	li	x14,115
     fdc:	06e78663          	beq	x15,x14,1048 <.L53>
     fe0:	06300713          	li	x14,99
     fe4:	fce796e3          	bne	x15,x14,fb0 <.L51>
     fe8:	02c12783          	lw	x15,44(x2)
     fec:	018b2703          	lw	x14,24(x22)
     ff0:	0007c683          	lbu	x13,0(x15)
     ff4:	00478793          	addi	x15,x15,4
     ff8:	02f12623          	sw	x15,44(x2)
     ffc:	00d70023          	sb	x13,0(x14)
    1000:	0004c303          	lbu	x6,0(x9)
    1004:	fa031ae3          	bnez	x6,fb8 <.L49>

00001008 <.L75>:
    1008:	06c12083          	lw	x1,108(x2)
    100c:	06812403          	lw	x8,104(x2)
    1010:	06412483          	lw	x9,100(x2)
    1014:	06012903          	lw	x18,96(x2)
    1018:	05c12983          	lw	x19,92(x2)
    101c:	05812a03          	lw	x20,88(x2)
    1020:	05412a83          	lw	x21,84(x2)
    1024:	05012b03          	lw	x22,80(x2)
    1028:	04c12b83          	lw	x23,76(x2)
    102c:	04812c03          	lw	x24,72(x2)
    1030:	04412c83          	lw	x25,68(x2)
    1034:	04012d03          	lw	x26,64(x2)
    1038:	03c12d83          	lw	x27,60(x2)
    103c:	00100513          	li	x10,1
    1040:	09010113          	addi	x2,x2,144
    1044:	00008067          	ret

00001048 <.L53>:
    1048:	02c12703          	lw	x14,44(x2)
    104c:	00072783          	lw	x15,0(x14)
    1050:	00470713          	addi	x14,x14,4
    1054:	02e12623          	sw	x14,44(x2)
    1058:	0007c703          	lbu	x14,0(x15)
    105c:	f4070ae3          	beqz	x14,fb0 <.L51>
    1060:	00178793          	addi	x15,x15,1

00001064 <.L65>:
    1064:	018b2683          	lw	x13,24(x22)
    1068:	00178793          	addi	x15,x15,1
    106c:	00e68023          	sb	x14,0(x13)
    1070:	fff7c703          	lbu	x14,-1(x15)
    1074:	fe0718e3          	bnez	x14,1064 <.L65>
    1078:	f39ff06f          	j	fb0 <.L51>

0000107c <.L52>:
    107c:	02c12703          	lw	x14,44(x2)
    1080:	00072d03          	lw	x26,0(x14)
    1084:	00470713          	addi	x14,x14,4
    1088:	02e12623          	sw	x14,44(x2)
    108c:	080d0063          	beqz	x26,110c <.L78>
    1090:	020d4663          	bltz	x26,10bc <.L79>
    1094:	00900713          	li	x14,9
    1098:	03a74e63          	blt	x14,x26,10d4 <.L80>

0000109c <.L57>:
    109c:	00a00593          	li	x11,10
    10a0:	000d0513          	mv	x10,x26
    10a4:	028030ef          	jal	x1,40cc <__umodsi3>
    10a8:	018b2783          	lw	x15,24(x22)
    10ac:	03050513          	addi	x10,x10,48
    10b0:	0ff57513          	andi	x10,x10,255
    10b4:	00a78023          	sb	x10,0(x15)
    10b8:	ef9ff06f          	j	fb0 <.L51>

000010bc <.L79>:
    10bc:	018b2703          	lw	x14,24(x22)
    10c0:	02d00693          	li	x13,45
    10c4:	41a00d33          	neg	x26,x26
    10c8:	00d70023          	sb	x13,0(x14)
    10cc:	00900713          	li	x14,9
    10d0:	fda756e3          	bge	x14,x26,109c <.L57>

000010d4 <.L80>:
    10d4:	00a00593          	li	x11,10
    10d8:	000d0513          	mv	x10,x26
    10dc:	7a9020ef          	jal	x1,4084 <__udivsi3>
    10e0:	06300693          	li	x13,99
    10e4:	00050d93          	mv	x27,x10
    10e8:	03a6ca63          	blt	x13,x26,111c <.L81>

000010ec <.L58>:
    10ec:	00a00593          	li	x11,10
    10f0:	000d8513          	mv	x10,x27
    10f4:	7d9020ef          	jal	x1,40cc <__umodsi3>
    10f8:	018b2683          	lw	x13,24(x22)
    10fc:	03050713          	addi	x14,x10,48
    1100:	0ff77713          	andi	x14,x14,255
    1104:	00e68023          	sb	x14,0(x13)
    1108:	f95ff06f          	j	109c <.L57>

0000110c <.L78>:
    110c:	018b2783          	lw	x15,24(x22)
    1110:	03000713          	li	x14,48
    1114:	00e78023          	sb	x14,0(x15)
    1118:	e99ff06f          	j	fb0 <.L51>

0000111c <.L81>:
    111c:	00a00593          	li	x11,10
    1120:	765020ef          	jal	x1,4084 <__udivsi3>
    1124:	3e700693          	li	x13,999
    1128:	00050b93          	mv	x23,x10
    112c:	03a6e263          	bltu	x13,x26,1150 <.L82>

00001130 <.L59>:
    1130:	00a00593          	li	x11,10
    1134:	000b8513          	mv	x10,x23
    1138:	795020ef          	jal	x1,40cc <__umodsi3>
    113c:	018b2583          	lw	x11,24(x22)
    1140:	03050693          	addi	x13,x10,48
    1144:	0ff6f693          	andi	x13,x13,255
    1148:	00d58023          	sb	x13,0(x11)
    114c:	fa1ff06f          	j	10ec <.L58>

00001150 <.L82>:
    1150:	00a00593          	li	x11,10
    1154:	731020ef          	jal	x1,4084 <__udivsi3>
    1158:	00050c13          	mv	x24,x10
    115c:	03a96263          	bltu	x18,x26,1180 <.L83>

00001160 <.L60>:
    1160:	00a00593          	li	x11,10
    1164:	000c0513          	mv	x10,x24
    1168:	765020ef          	jal	x1,40cc <__umodsi3>
    116c:	018b2583          	lw	x11,24(x22)
    1170:	03050693          	addi	x13,x10,48
    1174:	0ff6f693          	andi	x13,x13,255
    1178:	00d58023          	sb	x13,0(x11)
    117c:	fb5ff06f          	j	1130 <.L59>

00001180 <.L83>:
    1180:	00a00593          	li	x11,10
    1184:	701020ef          	jal	x1,4084 <__udivsi3>
    1188:	00a12623          	sw	x10,12(x2)
    118c:	03aa6263          	bltu	x20,x26,11b0 <.L84>

00001190 <.L61>:
    1190:	00c12503          	lw	x10,12(x2)
    1194:	00a00593          	li	x11,10
    1198:	735020ef          	jal	x1,40cc <__umodsi3>
    119c:	018b2583          	lw	x11,24(x22)
    11a0:	03050693          	addi	x13,x10,48
    11a4:	0ff6f693          	andi	x13,x13,255
    11a8:	00d58023          	sb	x13,0(x11)
    11ac:	fb5ff06f          	j	1160 <.L60>

000011b0 <.L84>:
    11b0:	00a00593          	li	x11,10
    11b4:	6d1020ef          	jal	x1,4084 <__udivsi3>
    11b8:	00a12823          	sw	x10,16(x2)
    11bc:	03a9e263          	bltu	x19,x26,11e0 <.L85>

000011c0 <.L62>:
    11c0:	01012503          	lw	x10,16(x2)
    11c4:	00a00593          	li	x11,10
    11c8:	705020ef          	jal	x1,40cc <__umodsi3>
    11cc:	018b2583          	lw	x11,24(x22)
    11d0:	03050693          	addi	x13,x10,48
    11d4:	0ff6f693          	andi	x13,x13,255
    11d8:	00d58023          	sb	x13,0(x11)
    11dc:	fb5ff06f          	j	1190 <.L61>

000011e0 <.L85>:
    11e0:	00a00593          	li	x11,10
    11e4:	6a1020ef          	jal	x1,4084 <__udivsi3>
    11e8:	009896b7          	lui	x13,0x989
    11ec:	67f68693          	addi	x13,x13,1663 # 98967f <seed1_volatile+0x948fbf>
    11f0:	00a12a23          	sw	x10,20(x2)
    11f4:	03a6e263          	bltu	x13,x26,1218 <.L86>

000011f8 <.L63>:
    11f8:	01412503          	lw	x10,20(x2)
    11fc:	00a00593          	li	x11,10
    1200:	6cd020ef          	jal	x1,40cc <__umodsi3>
    1204:	018b2583          	lw	x11,24(x22)
    1208:	03050693          	addi	x13,x10,48
    120c:	0ff6f693          	andi	x13,x13,255
    1210:	00d58023          	sb	x13,0(x11)
    1214:	fadff06f          	j	11c0 <.L62>

00001218 <.L86>:
    1218:	00a00593          	li	x11,10
    121c:	669020ef          	jal	x1,4084 <__udivsi3>
    1220:	05f5e6b7          	lui	x13,0x5f5e
    1224:	0ff68693          	addi	x13,x13,255 # 5f5e0ff <seed1_volatile+0x5f1da3f>
    1228:	00050813          	mv	x16,x10
    122c:	03a6e263          	bltu	x13,x26,1250 <.L87>

00001230 <.L64>:
    1230:	00a00593          	li	x11,10
    1234:	00080513          	mv	x10,x16
    1238:	695020ef          	jal	x1,40cc <__umodsi3>
    123c:	018b2583          	lw	x11,24(x22)
    1240:	03050693          	addi	x13,x10,48
    1244:	0ff6f693          	andi	x13,x13,255
    1248:	00d58023          	sb	x13,0(x11)
    124c:	fadff06f          	j	11f8 <.L63>

00001250 <.L87>:
    1250:	00a00593          	li	x11,10
    1254:	00a12e23          	sw	x10,28(x2)
    1258:	62d020ef          	jal	x1,4084 <__udivsi3>
    125c:	00a00593          	li	x11,10
    1260:	00a12c23          	sw	x10,24(x2)
    1264:	621020ef          	jal	x1,4084 <__udivsi3>
    1268:	99dff0ef          	jal	x1,c04 <printf_num>
    126c:	01812683          	lw	x13,24(x2)
    1270:	00a00593          	li	x11,10
    1274:	00068513          	mv	x10,x13
    1278:	655020ef          	jal	x1,40cc <__umodsi3>
    127c:	018b2583          	lw	x11,24(x22)
    1280:	03050693          	addi	x13,x10,48
    1284:	0ff6f693          	andi	x13,x13,255
    1288:	01c12803          	lw	x16,28(x2)
    128c:	00d58023          	sb	x13,0(x11)
    1290:	fa1ff06f          	j	1230 <.L64>

00001294 <core_init_state>:
    1294:	fff50313          	addi	x6,x10,-1
    1298:	00100793          	li	x15,1
    129c:	00060893          	mv	x17,x12
    12a0:	1c67f663          	bgeu	x15,x6,146c <.L10>
    12a4:	00158593          	addi	x11,x11,1
    12a8:	01059593          	slli	x11,x11,0x10
    12ac:	0105d593          	srli	x11,x11,0x10
    12b0:	00040637          	lui	x12,0x40
    12b4:	0035d793          	srli	x15,x11,0x3
    12b8:	00700e93          	li	x29,7
    12bc:	0075f693          	andi	x13,x11,7
    12c0:	00000713          	li	x14,0
    12c4:	01c60613          	addi	x12,x12,28 # 4001c <intpat>
    12c8:	00800f93          	li	x31,8
    12cc:	00400813          	li	x16,4
    12d0:	00100e13          	li	x28,1
    12d4:	02c00f13          	li	x30,44
    12d8:	0037f793          	andi	x15,x15,3
    12dc:	15d68863          	beq	x13,x29,142c <.L15>
    12e0:	16d86a63          	bltu	x16,x13,1454 <.L17>
    12e4:	ffd68693          	addi	x13,x13,-3
    12e8:	01069693          	slli	x13,x13,0x10
    12ec:	00279793          	slli	x15,x15,0x2
    12f0:	0106d693          	srli	x13,x13,0x10
    12f4:	00f607b3          	add	x15,x12,x15
    12f8:	14de6663          	bltu	x28,x13,1444 <.L28>
    12fc:	0107a683          	lw	x13,16(x15)
    1300:	00900293          	li	x5,9
    1304:	00800393          	li	x7,8

00001308 <.L20>:
    1308:	005702b3          	add	x5,x14,x5
    130c:	1662fa63          	bgeu	x5,x6,1480 <.L29>
    1310:	ff010113          	addi	x2,x2,-16
    1314:	00812623          	sw	x8,12(x2)
    1318:	0340006f          	j	134c <.L9>

0000131c <.L32>:
    131c:	0ed86663          	bltu	x16,x13,1408 <.L6>
    1320:	ffd68693          	addi	x13,x13,-3
    1324:	01069693          	slli	x13,x13,0x10
    1328:	00279793          	slli	x15,x15,0x2
    132c:	0106d693          	srli	x13,x13,0x10
    1330:	00f607b3          	add	x15,x12,x15
    1334:	0cde6263          	bltu	x28,x13,13f8 <.L30>
    1338:	0107a683          	lw	x13,16(x15)
    133c:	00900293          	li	x5,9
    1340:	00800393          	li	x7,8

00001344 <.L8>:
    1344:	005702b3          	add	x5,x14,x5
    1348:	0862fa63          	bgeu	x5,x6,13dc <.L31>

0000134c <.L9>:
    134c:	0006c403          	lbu	x8,0(x13)
    1350:	00e887b3          	add	x15,x17,x14
    1354:	00878023          	sb	x8,0(x15)
    1358:	0016c703          	lbu	x14,1(x13)
    135c:	00e780a3          	sb	x14,1(x15)
    1360:	0026c703          	lbu	x14,2(x13)
    1364:	00e78123          	sb	x14,2(x15)
    1368:	0036c703          	lbu	x14,3(x13)
    136c:	00e781a3          	sb	x14,3(x15)
    1370:	03038463          	beq	x7,x16,1398 <.L4>
    1374:	0046c703          	lbu	x14,4(x13)
    1378:	00e78223          	sb	x14,4(x15)
    137c:	0056c703          	lbu	x14,5(x13)
    1380:	00e782a3          	sb	x14,5(x15)
    1384:	0066c703          	lbu	x14,6(x13)
    1388:	00e78323          	sb	x14,6(x15)
    138c:	01f39663          	bne	x7,x31,1398 <.L4>
    1390:	0076c703          	lbu	x14,7(x13)
    1394:	00e783a3          	sb	x14,7(x15)

00001398 <.L4>:
    1398:	00158593          	addi	x11,x11,1
    139c:	01059593          	slli	x11,x11,0x10
    13a0:	007787b3          	add	x15,x15,x7
    13a4:	0105d593          	srli	x11,x11,0x10
    13a8:	01e78023          	sb	x30,0(x15)
    13ac:	0075f693          	andi	x13,x11,7
    13b0:	0035d793          	srli	x15,x11,0x3
    13b4:	00028713          	mv	x14,x5
    13b8:	0037f793          	andi	x15,x15,3
    13bc:	f7d690e3          	bne	x13,x29,131c <.L32>
    13c0:	00279793          	slli	x15,x15,0x2
    13c4:	00900293          	li	x5,9
    13c8:	00f607b3          	add	x15,x12,x15
    13cc:	005702b3          	add	x5,x14,x5
    13d0:	0307a683          	lw	x13,48(x15)
    13d4:	00800393          	li	x7,8
    13d8:	f662eae3          	bltu	x5,x6,134c <.L9>

000013dc <.L31>:
    13dc:	04a77263          	bgeu	x14,x10,1420 <.L33>
    13e0:	00c12403          	lw	x8,12(x2)
    13e4:	40e50633          	sub	x12,x10,x14
    13e8:	00000593          	li	x11,0
    13ec:	00e88533          	add	x10,x17,x14
    13f0:	01010113          	addi	x2,x2,16
    13f4:	0e40206f          	j	34d8 <memset>

000013f8 <.L30>:
    13f8:	0007a683          	lw	x13,0(x15)
    13fc:	00500293          	li	x5,5
    1400:	00400393          	li	x7,4
    1404:	f41ff06f          	j	1344 <.L8>

00001408 <.L6>:
    1408:	00279793          	slli	x15,x15,0x2
    140c:	00f607b3          	add	x15,x12,x15
    1410:	0207a683          	lw	x13,32(x15)
    1414:	00900293          	li	x5,9
    1418:	00800393          	li	x7,8
    141c:	f29ff06f          	j	1344 <.L8>

00001420 <.L33>:
    1420:	00c12403          	lw	x8,12(x2)
    1424:	01010113          	addi	x2,x2,16
    1428:	00008067          	ret

0000142c <.L15>:
    142c:	00279793          	slli	x15,x15,0x2
    1430:	00f607b3          	add	x15,x12,x15
    1434:	0307a683          	lw	x13,48(x15)
    1438:	00900293          	li	x5,9
    143c:	00800393          	li	x7,8
    1440:	ec9ff06f          	j	1308 <.L20>

00001444 <.L28>:
    1444:	0007a683          	lw	x13,0(x15)
    1448:	00500293          	li	x5,5
    144c:	00400393          	li	x7,4
    1450:	eb9ff06f          	j	1308 <.L20>

00001454 <.L17>:
    1454:	00279793          	slli	x15,x15,0x2
    1458:	00f607b3          	add	x15,x12,x15
    145c:	0207a683          	lw	x13,32(x15)
    1460:	00900293          	li	x5,9
    1464:	00800393          	li	x7,8
    1468:	ea1ff06f          	j	1308 <.L20>

0000146c <.L10>:
    146c:	00000713          	li	x14,0

00001470 <.L22>:
    1470:	40e50633          	sub	x12,x10,x14
    1474:	00000593          	li	x11,0
    1478:	00e88533          	add	x10,x17,x14
    147c:	05c0206f          	j	34d8 <memset>

00001480 <.L29>:
    1480:	fea768e3          	bltu	x14,x10,1470 <.L22>
    1484:	00008067          	ret

00001488 <core_state_transition>:
    1488:	00052783          	lw	x15,0(x10)
    148c:	00050813          	mv	x16,x10
    1490:	00000513          	li	x10,0
    1494:	0007c683          	lbu	x13,0(x15)
    1498:	00078713          	mv	x14,x15
    149c:	0c068c63          	beqz	x13,1574 <.L36>
    14a0:	02c00513          	li	x10,44
    14a4:	00178713          	addi	x14,x15,1
    14a8:	2aa68863          	beq	x13,x10,1758 <.L99>
    14ac:	0005a883          	lw	x17,0(x11)
    14b0:	fd068613          	addi	x12,x13,-48
    14b4:	0ff67613          	andi	x12,x12,255
    14b8:	00900313          	li	x6,9
    14bc:	00188893          	addi	x17,x17,1
    14c0:	0ac36e63          	bltu	x6,x12,157c <.L43>
    14c4:	0115a023          	sw	x17,0(x11)
    14c8:	0017c683          	lbu	x13,1(x15)
    14cc:	16068063          	beqz	x13,162c <.L96>
    14d0:	00278793          	addi	x15,x15,2
    14d4:	14a68a63          	beq	x13,x10,1628 <.L80>

000014d8 <.L41>:
    14d8:	fd068613          	addi	x12,x13,-48
    14dc:	02e00513          	li	x10,46
    14e0:	00900893          	li	x17,9
    14e4:	02c00313          	li	x6,44
    14e8:	0ff67613          	andi	x12,x12,255
    14ec:	02a68663          	beq	x13,x10,1518 <.L100>

000014f0 <.L53>:
    14f0:	0cc8e063          	bltu	x17,x12,15b0 <.L101>
    14f4:	00174683          	lbu	x13,1(x14)
    14f8:	00178613          	addi	x12,x15,1
    14fc:	00078713          	mv	x14,x15
    1500:	12068463          	beqz	x13,1628 <.L80>
    1504:	28668863          	beq	x13,x6,1794 <.L81>
    1508:	00060793          	mv	x15,x12
    150c:	fd068613          	addi	x12,x13,-48
    1510:	0ff67613          	andi	x12,x12,255
    1514:	fca69ee3          	bne	x13,x10,14f0 <.L53>

00001518 <.L100>:
    1518:	0105a683          	lw	x13,16(x11)
    151c:	00500513          	li	x10,5
    1520:	00168693          	addi	x13,x13,1
    1524:	00d5a823          	sw	x13,16(x11)
    1528:	00174683          	lbu	x13,1(x14)
    152c:	00078713          	mv	x14,x15
    1530:	04068263          	beqz	x13,1574 <.L36>
    1534:	02c00713          	li	x14,44
    1538:	00178613          	addi	x12,x15,1
    153c:	20e68863          	beq	x13,x14,174c <.L84>

00001540 <.L39>:
    1540:	04500513          	li	x10,69
    1544:	00900893          	li	x17,9
    1548:	02c00313          	li	x6,44

0000154c <.L65>:
    154c:	fd068713          	addi	x14,x13,-48
    1550:	0df6f693          	andi	x13,x13,223
    1554:	0ff77713          	andi	x14,x14,255
    1558:	0ca68e63          	beq	x13,x10,1634 <.L102>
    155c:	1ae8f063          	bgeu	x17,x14,16fc <.L58>
    1560:	0145a783          	lw	x15,20(x11)
    1564:	00060713          	mv	x14,x12
    1568:	00100513          	li	x10,1
    156c:	00178793          	addi	x15,x15,1
    1570:	00f5aa23          	sw	x15,20(x11)

00001574 <.L36>:
    1574:	00e82023          	sw	x14,0(x16) # ffff9000 <seed1_volatile+0xfffb8940>
    1578:	00008067          	ret

0000157c <.L43>:
    157c:	02b00613          	li	x12,43
    1580:	04c68663          	beq	x13,x12,15cc <.L46>
    1584:	02d00613          	li	x12,45
    1588:	04c68263          	beq	x13,x12,15cc <.L46>
    158c:	02e00613          	li	x12,46
    1590:	18c68463          	beq	x13,x12,1718 <.L47>
    1594:	0045a783          	lw	x15,4(x11)
    1598:	0115a023          	sw	x17,0(x11)
    159c:	00100513          	li	x10,1
    15a0:	00178793          	addi	x15,x15,1
    15a4:	00f5a223          	sw	x15,4(x11)
    15a8:	00e82023          	sw	x14,0(x16)
    15ac:	00008067          	ret

000015b0 <.L101>:
    15b0:	0105a683          	lw	x13,16(x11)
    15b4:	00078713          	mv	x14,x15
    15b8:	00100513          	li	x10,1
    15bc:	00168793          	addi	x15,x13,1
    15c0:	00f5a823          	sw	x15,16(x11)
    15c4:	00e82023          	sw	x14,0(x16)
    15c8:	00008067          	ret

000015cc <.L46>:
    15cc:	0115a023          	sw	x17,0(x11)
    15d0:	0017c883          	lbu	x17,1(x15)
    15d4:	1a088663          	beqz	x17,1780 <.L78>
    15d8:	00278713          	addi	x14,x15,2
    15dc:	1aa88263          	beq	x17,x10,1780 <.L78>
    15e0:	0085a603          	lw	x12,8(x11)
    15e4:	fd088693          	addi	x13,x17,-48
    15e8:	0ff6f693          	andi	x13,x13,255
    15ec:	00900513          	li	x10,9
    15f0:	00160613          	addi	x12,x12,1
    15f4:	00d57e63          	bgeu	x10,x13,1610 <.L48>
    15f8:	02e00693          	li	x13,46
    15fc:	12d88c63          	beq	x17,x13,1734 <.L103>
    1600:	00c5a423          	sw	x12,8(x11)
    1604:	00100513          	li	x10,1
    1608:	00e82023          	sw	x14,0(x16)
    160c:	00008067          	ret

00001610 <.L48>:
    1610:	00c5a423          	sw	x12,8(x11)
    1614:	0027c683          	lbu	x13,2(x15)
    1618:	00068a63          	beqz	x13,162c <.L96>
    161c:	02c00613          	li	x12,44
    1620:	00170793          	addi	x15,x14,1
    1624:	eac69ae3          	bne	x13,x12,14d8 <.L41>

00001628 <.L80>:
    1628:	00078713          	mv	x14,x15

0000162c <.L96>:
    162c:	00400513          	li	x10,4
    1630:	f45ff06f          	j	1574 <.L36>

00001634 <.L102>:
    1634:	0145a703          	lw	x14,20(x11)
    1638:	00170713          	addi	x14,x14,1
    163c:	00e5aa23          	sw	x14,20(x11)
    1640:	0017c783          	lbu	x15,1(x15)
    1644:	12078463          	beqz	x15,176c <.L104>
    1648:	02c00513          	li	x10,44
    164c:	00160713          	addi	x14,x12,1
    1650:	12a78063          	beq	x15,x10,1770 <.L94>
    1654:	00c5a683          	lw	x13,12(x11)
    1658:	fd578793          	addi	x15,x15,-43
    165c:	0fd7f793          	andi	x15,x15,253
    1660:	00168693          	addi	x13,x13,1
    1664:	00d5a623          	sw	x13,12(x11)
    1668:	00078863          	beqz	x15,1678 <.L105>

0000166c <.L92>:
    166c:	00100513          	li	x10,1
    1670:	00e82023          	sw	x14,0(x16)
    1674:	00008067          	ret

00001678 <.L105>:
    1678:	00164783          	lbu	x15,1(x12)
    167c:	0e078e63          	beqz	x15,1778 <.L93>
    1680:	00260713          	addi	x14,x12,2
    1684:	0ea78a63          	beq	x15,x10,1778 <.L93>
    1688:	0185a683          	lw	x13,24(x11)
    168c:	fd078793          	addi	x15,x15,-48
    1690:	0ff7f793          	andi	x15,x15,255
    1694:	00168693          	addi	x13,x13,1
    1698:	00900893          	li	x17,9
    169c:	00d5ac23          	sw	x13,24(x11)
    16a0:	fcf8e6e3          	bltu	x17,x15,166c <.L92>
    16a4:	00264683          	lbu	x13,2(x12)
    16a8:	0a068e63          	beqz	x13,1764 <.L95>
    16ac:	00360793          	addi	x15,x12,3
    16b0:	0aa68863          	beq	x13,x10,1760 <.L82>
    16b4:	00900613          	li	x12,9
    16b8:	02c00893          	li	x17,44

000016bc <.L40>:
    16bc:	fd068693          	addi	x13,x13,-48
    16c0:	0ff6f693          	andi	x13,x13,255
    16c4:	00d67e63          	bgeu	x12,x13,16e0 <.L63>
    16c8:	0045a683          	lw	x13,4(x11)
    16cc:	00078713          	mv	x14,x15
    16d0:	00100513          	li	x10,1
    16d4:	00168793          	addi	x15,x13,1
    16d8:	00f5a223          	sw	x15,4(x11)
    16dc:	e99ff06f          	j	1574 <.L36>

000016e0 <.L63>:
    16e0:	00174683          	lbu	x13,1(x14)
    16e4:	00178513          	addi	x10,x15,1
    16e8:	00078713          	mv	x14,x15
    16ec:	06068a63          	beqz	x13,1760 <.L82>
    16f0:	09168c63          	beq	x13,x17,1788 <.L83>
    16f4:	00050793          	mv	x15,x10
    16f8:	fc5ff06f          	j	16bc <.L40>

000016fc <.L58>:
    16fc:	0017c683          	lbu	x13,1(x15)
    1700:	00160713          	addi	x14,x12,1
    1704:	00060793          	mv	x15,x12
    1708:	04068263          	beqz	x13,174c <.L84>
    170c:	04668263          	beq	x13,x6,1750 <.L91>
    1710:	00070613          	mv	x12,x14
    1714:	e39ff06f          	j	154c <.L65>

00001718 <.L47>:
    1718:	0115a023          	sw	x17,0(x11)
    171c:	0017c683          	lbu	x13,1(x15)
    1720:	02068863          	beqz	x13,1750 <.L91>
    1724:	00278613          	addi	x12,x15,2
    1728:	02a68263          	beq	x13,x10,174c <.L84>

0000172c <.L90>:
    172c:	00070793          	mv	x15,x14
    1730:	e11ff06f          	j	1540 <.L39>

00001734 <.L103>:
    1734:	00c5a423          	sw	x12,8(x11)
    1738:	0027c683          	lbu	x13,2(x15)
    173c:	00068a63          	beqz	x13,1750 <.L91>
    1740:	02c00793          	li	x15,44
    1744:	00170613          	addi	x12,x14,1
    1748:	fef692e3          	bne	x13,x15,172c <.L90>

0000174c <.L84>:
    174c:	00060713          	mv	x14,x12

00001750 <.L91>:
    1750:	00500513          	li	x10,5
    1754:	e21ff06f          	j	1574 <.L36>

00001758 <.L99>:
    1758:	00000513          	li	x10,0
    175c:	e19ff06f          	j	1574 <.L36>

00001760 <.L82>:
    1760:	00078713          	mv	x14,x15

00001764 <.L95>:
    1764:	00700513          	li	x10,7
    1768:	e0dff06f          	j	1574 <.L36>

0000176c <.L104>:
    176c:	00060713          	mv	x14,x12

00001770 <.L94>:
    1770:	00300513          	li	x10,3
    1774:	e01ff06f          	j	1574 <.L36>

00001778 <.L93>:
    1778:	00600513          	li	x10,6
    177c:	df9ff06f          	j	1574 <.L36>

00001780 <.L78>:
    1780:	00200513          	li	x10,2
    1784:	df1ff06f          	j	1574 <.L36>

00001788 <.L83>:
    1788:	00050713          	mv	x14,x10
    178c:	00700513          	li	x10,7
    1790:	de5ff06f          	j	1574 <.L36>

00001794 <.L81>:
    1794:	00060713          	mv	x14,x12
    1798:	00400513          	li	x10,4
    179c:	dd9ff06f          	j	1574 <.L36>

000017a0 <core_bench_state>:
    17a0:	f8010113          	addi	x2,x2,-128
    17a4:	06812c23          	sw	x8,120(x2)
    17a8:	06912a23          	sw	x9,116(x2)
    17ac:	07212823          	sw	x18,112(x2)
    17b0:	07312623          	sw	x19,108(x2)
    17b4:	07412423          	sw	x20,104(x2)
    17b8:	07512223          	sw	x21,100(x2)
    17bc:	07612023          	sw	x22,96(x2)
    17c0:	06112e23          	sw	x1,124(x2)
    17c4:	05712e23          	sw	x23,92(x2)
    17c8:	00058413          	mv	x8,x11
    17cc:	0005c583          	lbu	x11,0(x11)
    17d0:	00812623          	sw	x8,12(x2)
    17d4:	02012823          	sw	x0,48(x2)
    17d8:	00012823          	sw	x0,16(x2)
    17dc:	02012a23          	sw	x0,52(x2)
    17e0:	02012c23          	sw	x0,56(x2)
    17e4:	02012e23          	sw	x0,60(x2)
    17e8:	04012023          	sw	x0,64(x2)
    17ec:	04012223          	sw	x0,68(x2)
    17f0:	04012423          	sw	x0,72(x2)
    17f4:	04012623          	sw	x0,76(x2)
    17f8:	00012a23          	sw	x0,20(x2)
    17fc:	00012c23          	sw	x0,24(x2)
    1800:	00012e23          	sw	x0,28(x2)
    1804:	02012023          	sw	x0,32(x2)
    1808:	02012223          	sw	x0,36(x2)
    180c:	02012423          	sw	x0,40(x2)
    1810:	02012623          	sw	x0,44(x2)
    1814:	03010913          	addi	x18,x2,48
    1818:	00050b13          	mv	x22,x10
    181c:	00060a93          	mv	x21,x12
    1820:	00068a13          	mv	x20,x13
    1824:	00070993          	mv	x19,x14
    1828:	00078493          	mv	x9,x15
    182c:	14058e63          	beqz	x11,1988 <.L107>
    1830:	00c10b93          	addi	x23,x2,12

00001834 <.L108>:
    1834:	00090593          	mv	x11,x18
    1838:	000b8513          	mv	x10,x23
    183c:	c4dff0ef          	jal	x1,1488 <core_state_transition>
    1840:	05010793          	addi	x15,x2,80
    1844:	00251813          	slli	x16,x10,0x2
    1848:	01078833          	add	x16,x15,x16
    184c:	00c12703          	lw	x14,12(x2)
    1850:	fc082783          	lw	x15,-64(x16)
    1854:	00074703          	lbu	x14,0(x14)
    1858:	00178793          	addi	x15,x15,1
    185c:	fcf82023          	sw	x15,-64(x16)
    1860:	fc071ae3          	bnez	x14,1834 <.L108>
    1864:	00812623          	sw	x8,12(x2)
    1868:	01640b33          	add	x22,x8,x22
    186c:	00044583          	lbu	x11,0(x8)
    1870:	13647263          	bgeu	x8,x22,1994 <.L109>

00001874 <.L124>:
    1874:	02c00713          	li	x14,44
    1878:	00040813          	mv	x16,x8
    187c:	0155c7b3          	xor	x15,x11,x21
    1880:	02e58263          	beq	x11,x14,18a4 <.L110>

00001884 <.L132>:
    1884:	00f80023          	sb	x15,0(x16)
    1888:	00c12803          	lw	x16,12(x2)
    188c:	01380833          	add	x16,x16,x19
    1890:	01012623          	sw	x16,12(x2)
    1894:	01687e63          	bgeu	x16,x22,18b0 <.L112>

00001898 <.L111>:
    1898:	00084583          	lbu	x11,0(x16)
    189c:	0155c7b3          	xor	x15,x11,x21
    18a0:	fee592e3          	bne	x11,x14,1884 <.L132>

000018a4 <.L110>:
    18a4:	01380833          	add	x16,x16,x19
    18a8:	01012623          	sw	x16,12(x2)
    18ac:	ff6866e3          	bltu	x16,x22,1898 <.L111>

000018b0 <.L112>:
    18b0:	00044783          	lbu	x15,0(x8)
    18b4:	00812623          	sw	x8,12(x2)
    18b8:	00c10b93          	addi	x23,x2,12
    18bc:	02078e63          	beqz	x15,18f8 <.L116>

000018c0 <.L118>:
    18c0:	00090593          	mv	x11,x18
    18c4:	000b8513          	mv	x10,x23
    18c8:	bc1ff0ef          	jal	x1,1488 <core_state_transition>
    18cc:	05010793          	addi	x15,x2,80
    18d0:	00251613          	slli	x12,x10,0x2
    18d4:	00c78633          	add	x12,x15,x12
    18d8:	00c12703          	lw	x14,12(x2)
    18dc:	fc062783          	lw	x15,-64(x12)
    18e0:	00074703          	lbu	x14,0(x14)
    18e4:	00178793          	addi	x15,x15,1
    18e8:	fcf62023          	sw	x15,-64(x12)
    18ec:	fc071ae3          	bnez	x14,18c0 <.L118>
    18f0:	00812623          	sw	x8,12(x2)
    18f4:	03647463          	bgeu	x8,x22,191c <.L117>

000018f8 <.L116>:
    18f8:	02c00693          	li	x13,44

000018fc <.L123>:
    18fc:	00044783          	lbu	x15,0(x8)
    1900:	0147c733          	xor	x14,x15,x20
    1904:	06d78a63          	beq	x15,x13,1978 <.L121>
    1908:	00e40023          	sb	x14,0(x8)
    190c:	00c12403          	lw	x8,12(x2)
    1910:	01340433          	add	x8,x8,x19
    1914:	00812623          	sw	x8,12(x2)
    1918:	ff6462e3          	bltu	x8,x22,18fc <.L123>

0000191c <.L117>:
    191c:	01010413          	addi	x8,x2,16
    1920:	00090993          	mv	x19,x18

00001924 <.L120>:
    1924:	00042503          	lw	x10,0(x8)
    1928:	00048593          	mv	x11,x9
    192c:	00440413          	addi	x8,x8,4
    1930:	b25fe0ef          	jal	x1,454 <crcu32>
    1934:	00050593          	mv	x11,x10
    1938:	0009a503          	lw	x10,0(x19)
    193c:	00498993          	addi	x19,x19,4
    1940:	b15fe0ef          	jal	x1,454 <crcu32>
    1944:	00050493          	mv	x9,x10
    1948:	fc891ee3          	bne	x18,x8,1924 <.L120>
    194c:	07c12083          	lw	x1,124(x2)
    1950:	07812403          	lw	x8,120(x2)
    1954:	07412483          	lw	x9,116(x2)
    1958:	07012903          	lw	x18,112(x2)
    195c:	06c12983          	lw	x19,108(x2)
    1960:	06812a03          	lw	x20,104(x2)
    1964:	06412a83          	lw	x21,100(x2)
    1968:	06012b03          	lw	x22,96(x2)
    196c:	05c12b83          	lw	x23,92(x2)
    1970:	08010113          	addi	x2,x2,128
    1974:	00008067          	ret

00001978 <.L121>:
    1978:	01340433          	add	x8,x8,x19
    197c:	00812623          	sw	x8,12(x2)
    1980:	f7646ee3          	bltu	x8,x22,18fc <.L123>
    1984:	f99ff06f          	j	191c <.L117>

00001988 <.L107>:
    1988:	00a40b33          	add	x22,x8,x10
    198c:	ef6464e3          	bltu	x8,x22,1874 <.L124>
    1990:	f8dff06f          	j	191c <.L117>

00001994 <.L109>:
    1994:	f20596e3          	bnez	x11,18c0 <.L118>
    1998:	f85ff06f          	j	191c <.L117>

0000199c <calc_func>:
    199c:	fe010113          	addi	x2,x2,-32
    19a0:	00812c23          	sw	x8,24(x2)
    19a4:	00051403          	lh	x8,0(x10)
    19a8:	00112e23          	sw	x1,28(x2)
    19ac:	00912a23          	sw	x9,20(x2)
    19b0:	40745793          	srai	x15,x8,0x7
    19b4:	01212823          	sw	x18,16(x2)
    19b8:	01312623          	sw	x19,12(x2)
    19bc:	0017f793          	andi	x15,x15,1
    19c0:	02078263          	beqz	x15,19e4 <.L2>
    19c4:	01c12083          	lw	x1,28(x2)
    19c8:	07f47513          	andi	x10,x8,127
    19cc:	01812403          	lw	x8,24(x2)
    19d0:	01412483          	lw	x9,20(x2)
    19d4:	01012903          	lw	x18,16(x2)
    19d8:	00c12983          	lw	x19,12(x2)
    19dc:	02010113          	addi	x2,x2,32
    19e0:	00008067          	ret

000019e4 <.L2>:
    19e4:	00058493          	mv	x9,x11
    19e8:	40345593          	srai	x11,x8,0x3
    19ec:	00f5f593          	andi	x11,x11,15
    19f0:	00459713          	slli	x14,x11,0x4
    19f4:	00747693          	andi	x13,x8,7
    19f8:	0384d783          	lhu	x15,56(x9)
    19fc:	00050993          	mv	x19,x10
    1a00:	00b765b3          	or	x11,x14,x11
    1a04:	04068c63          	beqz	x13,1a5c <.L4>
    1a08:	00100713          	li	x14,1
    1a0c:	08e68a63          	beq	x13,x14,1aa0 <.L5>
    1a10:	01041513          	slli	x10,x8,0x10
    1a14:	01055513          	srli	x10,x10,0x10
    1a18:	00040913          	mv	x18,x8

00001a1c <.L6>:
    1a1c:	00078593          	mv	x11,x15
    1a20:	fb0fe0ef          	jal	x1,1d0 <crcu16>
    1a24:	00050793          	mv	x15,x10
    1a28:	f0047413          	andi	x8,x8,-256
    1a2c:	07f97513          	andi	x10,x18,127
    1a30:	00856433          	or	x8,x10,x8
    1a34:	02f49c23          	sh	x15,56(x9)
    1a38:	08046413          	ori	x8,x8,128
    1a3c:	00899023          	sh	x8,0(x19)
    1a40:	01c12083          	lw	x1,28(x2)
    1a44:	01812403          	lw	x8,24(x2)
    1a48:	01412483          	lw	x9,20(x2)
    1a4c:	01012903          	lw	x18,16(x2)
    1a50:	00c12983          	lw	x19,12(x2)
    1a54:	02010113          	addi	x2,x2,32
    1a58:	00008067          	ret

00001a5c <.L4>:
    1a5c:	02200693          	li	x13,34
    1a60:	00058713          	mv	x14,x11
    1a64:	00d5d463          	bge	x11,x13,1a6c <.L7>
    1a68:	02200713          	li	x14,34

00001a6c <.L7>:
    1a6c:	00249683          	lh	x13,2(x9)
    1a70:	00049603          	lh	x12,0(x9)
    1a74:	0144a583          	lw	x11,20(x9)
    1a78:	0184a503          	lw	x10,24(x9)
    1a7c:	0ff77713          	andi	x14,x14,255
    1a80:	d21ff0ef          	jal	x1,17a0 <core_bench_state>
    1a84:	03e4d783          	lhu	x15,62(x9)
    1a88:	01051913          	slli	x18,x10,0x10
    1a8c:	41095913          	srai	x18,x18,0x10
    1a90:	02079c63          	bnez	x15,1ac8 <.L11>
    1a94:	0384d783          	lhu	x15,56(x9)
    1a98:	02a49f23          	sh	x10,62(x9)
    1a9c:	f81ff06f          	j	1a1c <.L6>

00001aa0 <.L5>:
    1aa0:	00078613          	mv	x12,x15
    1aa4:	02848513          	addi	x10,x9,40
    1aa8:	324010ef          	jal	x1,2dcc <core_bench_matrix>
    1aac:	03c4d783          	lhu	x15,60(x9)
    1ab0:	01051913          	slli	x18,x10,0x10
    1ab4:	41095913          	srai	x18,x18,0x10
    1ab8:	00079863          	bnez	x15,1ac8 <.L11>
    1abc:	0384d783          	lhu	x15,56(x9)
    1ac0:	02a49e23          	sh	x10,60(x9)
    1ac4:	f59ff06f          	j	1a1c <.L6>

00001ac8 <.L11>:
    1ac8:	0384d783          	lhu	x15,56(x9)
    1acc:	f51ff06f          	j	1a1c <.L6>

00001ad0 <cmp_complex>:
    1ad0:	fe010113          	addi	x2,x2,-32
    1ad4:	00912a23          	sw	x9,20(x2)
    1ad8:	00051483          	lh	x9,0(x10)
    1adc:	00812c23          	sw	x8,24(x2)
    1ae0:	01212823          	sw	x18,16(x2)
    1ae4:	4074d793          	srai	x15,x9,0x7
    1ae8:	01412423          	sw	x20,8(x2)
    1aec:	00112e23          	sw	x1,28(x2)
    1af0:	01312623          	sw	x19,12(x2)
    1af4:	0017f793          	andi	x15,x15,1
    1af8:	00058913          	mv	x18,x11
    1afc:	00060413          	mv	x8,x12
    1b00:	07f4fa13          	andi	x20,x9,127
    1b04:	04079c63          	bnez	x15,1b5c <.L15>
    1b08:	4034d593          	srai	x11,x9,0x3
    1b0c:	00f5f593          	andi	x11,x11,15
    1b10:	00459693          	slli	x13,x11,0x4
    1b14:	0074f713          	andi	x14,x9,7
    1b18:	03865783          	lhu	x15,56(x12)
    1b1c:	00050993          	mv	x19,x10
    1b20:	00d5e5b3          	or	x11,x11,x13
    1b24:	0e070463          	beqz	x14,1c0c <.L16>
    1b28:	00100693          	li	x13,1
    1b2c:	16d70463          	beq	x14,x13,1c94 <.L17>
    1b30:	01049513          	slli	x10,x9,0x10
    1b34:	01055513          	srli	x10,x10,0x10
    1b38:	00048a13          	mv	x20,x9

00001b3c <.L18>:
    1b3c:	00078593          	mv	x11,x15
    1b40:	07fa7a13          	andi	x20,x20,127
    1b44:	f004f493          	andi	x9,x9,-256
    1b48:	e88fe0ef          	jal	x1,1d0 <crcu16>
    1b4c:	009a64b3          	or	x9,x20,x9
    1b50:	02a41c23          	sh	x10,56(x8)
    1b54:	0804e493          	ori	x9,x9,128
    1b58:	00999023          	sh	x9,0(x19)

00001b5c <.L15>:
    1b5c:	00091483          	lh	x9,0(x18)
    1b60:	4074d793          	srai	x15,x9,0x7
    1b64:	0017f793          	andi	x15,x15,1
    1b68:	07f4f993          	andi	x19,x9,127
    1b6c:	06079663          	bnez	x15,1bd8 <.L23>
    1b70:	4034d593          	srai	x11,x9,0x3
    1b74:	00f5f593          	andi	x11,x11,15
    1b78:	00459693          	slli	x13,x11,0x4
    1b7c:	0074f713          	andi	x14,x9,7
    1b80:	03845783          	lhu	x15,56(x8)
    1b84:	00d5e5b3          	or	x11,x11,x13
    1b88:	0c070463          	beqz	x14,1c50 <.L24>
    1b8c:	00100693          	li	x13,1
    1b90:	06d71663          	bne	x14,x13,1bfc <.L33>
    1b94:	00078613          	mv	x12,x15
    1b98:	02840513          	addi	x10,x8,40
    1b9c:	230010ef          	jal	x1,2dcc <core_bench_matrix>
    1ba0:	03c45783          	lhu	x15,60(x8)
    1ba4:	01051993          	slli	x19,x10,0x10
    1ba8:	4109d993          	srai	x19,x19,0x10
    1bac:	10079863          	bnez	x15,1cbc <.L32>
    1bb0:	03845783          	lhu	x15,56(x8)
    1bb4:	02a41e23          	sh	x10,60(x8)

00001bb8 <.L26>:
    1bb8:	00078593          	mv	x11,x15
    1bbc:	07f9f993          	andi	x19,x19,127
    1bc0:	f004f493          	andi	x9,x9,-256
    1bc4:	e0cfe0ef          	jal	x1,1d0 <crcu16>
    1bc8:	0099e4b3          	or	x9,x19,x9
    1bcc:	02a41c23          	sh	x10,56(x8)
    1bd0:	0804e493          	ori	x9,x9,128
    1bd4:	00991023          	sh	x9,0(x18)

00001bd8 <.L23>:
    1bd8:	01c12083          	lw	x1,28(x2)
    1bdc:	01812403          	lw	x8,24(x2)
    1be0:	413a0533          	sub	x10,x20,x19
    1be4:	01412483          	lw	x9,20(x2)
    1be8:	01012903          	lw	x18,16(x2)
    1bec:	00c12983          	lw	x19,12(x2)
    1bf0:	00812a03          	lw	x20,8(x2)
    1bf4:	02010113          	addi	x2,x2,32
    1bf8:	00008067          	ret

00001bfc <.L33>:
    1bfc:	01049513          	slli	x10,x9,0x10
    1c00:	01055513          	srli	x10,x10,0x10
    1c04:	00048993          	mv	x19,x9
    1c08:	fb1ff06f          	j	1bb8 <.L26>

00001c0c <.L16>:
    1c0c:	02200693          	li	x13,34
    1c10:	00058713          	mv	x14,x11
    1c14:	00d5d463          	bge	x11,x13,1c1c <.L19>
    1c18:	02200713          	li	x14,34

00001c1c <.L19>:
    1c1c:	00241683          	lh	x13,2(x8)
    1c20:	00041603          	lh	x12,0(x8)
    1c24:	01442583          	lw	x11,20(x8)
    1c28:	01842503          	lw	x10,24(x8)
    1c2c:	0ff77713          	andi	x14,x14,255
    1c30:	b71ff0ef          	jal	x1,17a0 <core_bench_state>
    1c34:	03e45783          	lhu	x15,62(x8)
    1c38:	01051a13          	slli	x20,x10,0x10
    1c3c:	410a5a13          	srai	x20,x20,0x10
    1c40:	08079263          	bnez	x15,1cc4 <.L31>
    1c44:	03845783          	lhu	x15,56(x8)
    1c48:	02a41f23          	sh	x10,62(x8)
    1c4c:	ef1ff06f          	j	1b3c <.L18>

00001c50 <.L24>:
    1c50:	02200693          	li	x13,34
    1c54:	00058713          	mv	x14,x11
    1c58:	00d5d463          	bge	x11,x13,1c60 <.L27>
    1c5c:	02200713          	li	x14,34

00001c60 <.L27>:
    1c60:	00241683          	lh	x13,2(x8)
    1c64:	00041603          	lh	x12,0(x8)
    1c68:	01442583          	lw	x11,20(x8)
    1c6c:	01842503          	lw	x10,24(x8)
    1c70:	0ff77713          	andi	x14,x14,255
    1c74:	b2dff0ef          	jal	x1,17a0 <core_bench_state>
    1c78:	03e45783          	lhu	x15,62(x8)
    1c7c:	01051993          	slli	x19,x10,0x10
    1c80:	4109d993          	srai	x19,x19,0x10
    1c84:	02079c63          	bnez	x15,1cbc <.L32>
    1c88:	03845783          	lhu	x15,56(x8)
    1c8c:	02a41f23          	sh	x10,62(x8)
    1c90:	f29ff06f          	j	1bb8 <.L26>

00001c94 <.L17>:
    1c94:	00078613          	mv	x12,x15
    1c98:	02840513          	addi	x10,x8,40
    1c9c:	130010ef          	jal	x1,2dcc <core_bench_matrix>
    1ca0:	03c45783          	lhu	x15,60(x8)
    1ca4:	01051a13          	slli	x20,x10,0x10
    1ca8:	410a5a13          	srai	x20,x20,0x10
    1cac:	00079c63          	bnez	x15,1cc4 <.L31>
    1cb0:	03845783          	lhu	x15,56(x8)
    1cb4:	02a41e23          	sh	x10,60(x8)
    1cb8:	e85ff06f          	j	1b3c <.L18>

00001cbc <.L32>:
    1cbc:	03845783          	lhu	x15,56(x8)
    1cc0:	ef9ff06f          	j	1bb8 <.L26>

00001cc4 <.L31>:
    1cc4:	03845783          	lhu	x15,56(x8)
    1cc8:	e75ff06f          	j	1b3c <.L18>

00001ccc <cmp_idx>:
    1ccc:	00060a63          	beqz	x12,1ce0 <.L36>
    1cd0:	00251503          	lh	x10,2(x10)
    1cd4:	00259783          	lh	x15,2(x11)
    1cd8:	40f50533          	sub	x10,x10,x15
    1cdc:	00008067          	ret

00001ce0 <.L36>:
    1ce0:	00051783          	lh	x15,0(x10)
    1ce4:	01079713          	slli	x14,x15,0x10
    1ce8:	01075713          	srli	x14,x14,0x10
    1cec:	00875713          	srli	x14,x14,0x8
    1cf0:	f007f793          	andi	x15,x15,-256
    1cf4:	00e7e7b3          	or	x15,x15,x14
    1cf8:	00f51023          	sh	x15,0(x10)
    1cfc:	00059783          	lh	x15,0(x11)
    1d00:	00251503          	lh	x10,2(x10)
    1d04:	01079713          	slli	x14,x15,0x10
    1d08:	01075713          	srli	x14,x14,0x10
    1d0c:	00875713          	srli	x14,x14,0x8
    1d10:	f007f793          	andi	x15,x15,-256
    1d14:	00e7e7b3          	or	x15,x15,x14
    1d18:	00f59023          	sh	x15,0(x11)
    1d1c:	00259783          	lh	x15,2(x11)
    1d20:	40f50533          	sub	x10,x10,x15
    1d24:	00008067          	ret

00001d28 <copy_info>:
    1d28:	00059703          	lh	x14,0(x11)
    1d2c:	00259783          	lh	x15,2(x11)
    1d30:	00e51023          	sh	x14,0(x10)
    1d34:	00f51123          	sh	x15,2(x10)
    1d38:	00008067          	ret

00001d3c <core_bench_list>:
    1d3c:	00451883          	lh	x17,4(x10)
    1d40:	fc010113          	addi	x2,x2,-64
    1d44:	02812c23          	sw	x8,56(x2)
    1d48:	01b12623          	sw	x27,12(x2)
    1d4c:	02112e23          	sw	x1,60(x2)
    1d50:	02912a23          	sw	x9,52(x2)
    1d54:	03212823          	sw	x18,48(x2)
    1d58:	03312623          	sw	x19,44(x2)
    1d5c:	03412423          	sw	x20,40(x2)
    1d60:	03512223          	sw	x21,36(x2)
    1d64:	03612023          	sw	x22,32(x2)
    1d68:	01712e23          	sw	x23,28(x2)
    1d6c:	01812c23          	sw	x24,24(x2)
    1d70:	01912a23          	sw	x25,20(x2)
    1d74:	01a12823          	sw	x26,16(x2)
    1d78:	02452403          	lw	x8,36(x10)
    1d7c:	00050d93          	mv	x27,x10
    1d80:	00058513          	mv	x10,x11
    1d84:	43105263          	blez	x17,21a8 <.L98>
    1d88:	00058b93          	mv	x23,x11
    1d8c:	00000613          	li	x12,0
    1d90:	00000813          	li	x16,0
    1d94:	00000593          	li	x11,0
    1d98:	00000913          	li	x18,0

00001d9c <.L52>:
    1d9c:	0ff67c93          	andi	x25,x12,255
    1da0:	280bc063          	bltz	x23,2020 <.L147>
    1da4:	40040a63          	beqz	x8,21b8 <.L41>
    1da8:	00040793          	mv	x15,x8
    1dac:	00c0006f          	j	1db8 <.L43>

00001db0 <.L45>:
    1db0:	0007a783          	lw	x15,0(x15)
    1db4:	00078863          	beqz	x15,1dc4 <.L44>

00001db8 <.L43>:
    1db8:	0047a703          	lw	x14,4(x15)
    1dbc:	00271703          	lh	x14,2(x14)
    1dc0:	ff7718e3          	bne	x14,x23,1db0 <.L45>

00001dc4 <.L44>:
    1dc4:	00000693          	li	x13,0
    1dc8:	00c0006f          	j	1dd4 <.L47>

00001dcc <.L100>:
    1dcc:	00040693          	mv	x13,x8
    1dd0:	00070413          	mv	x8,x14

00001dd4 <.L47>:
    1dd4:	00042703          	lw	x14,0(x8)
    1dd8:	00d42023          	sw	x13,0(x8)
    1ddc:	fe0718e3          	bnez	x14,1dcc <.L100>
    1de0:	26078263          	beqz	x15,2044 <.L148>
    1de4:	0047a683          	lw	x13,4(x15)
    1de8:	00158593          	addi	x11,x11,1
    1dec:	01059593          	slli	x11,x11,0x10
    1df0:	00069703          	lh	x14,0(x13)
    1df4:	0105d593          	srli	x11,x11,0x10
    1df8:	00177693          	andi	x13,x14,1
    1dfc:	00068c63          	beqz	x13,1e14 <.L50>
    1e00:	40975713          	srai	x14,x14,0x9
    1e04:	00177713          	andi	x14,x14,1
    1e08:	00e90733          	add	x14,x18,x14
    1e0c:	01071913          	slli	x18,x14,0x10
    1e10:	01095913          	srli	x18,x18,0x10

00001e14 <.L50>:
    1e14:	0007a683          	lw	x13,0(x15)
    1e18:	00068c63          	beqz	x13,1e30 <.L49>
    1e1c:	0006a703          	lw	x14,0(x13)
    1e20:	00e7a023          	sw	x14,0(x15)
    1e24:	00042783          	lw	x15,0(x8)
    1e28:	00f6a023          	sw	x15,0(x13)
    1e2c:	00d42023          	sw	x13,0(x8)

00001e30 <.L49>:
    1e30:	000bc863          	bltz	x23,1e40 <.L51>
    1e34:	001b8b93          	addi	x23,x23,1
    1e38:	010b9b93          	slli	x23,x23,0x10
    1e3c:	410bdb93          	srai	x23,x23,0x10

00001e40 <.L51>:
    1e40:	00160613          	addi	x12,x12,1
    1e44:	01061613          	slli	x12,x12,0x10
    1e48:	41065613          	srai	x12,x12,0x10
    1e4c:	f4c898e3          	bne	x17,x12,1d9c <.L52>
    1e50:	00259793          	slli	x15,x11,0x2
    1e54:	410787b3          	sub	x15,x15,x16
    1e58:	00f907b3          	add	x15,x18,x15
    1e5c:	01079913          	slli	x18,x15,0x10
    1e60:	01095913          	srli	x18,x18,0x10

00001e64 <.L39>:
    1e64:	26a04a63          	bgtz	x10,20d8 <.L149>

00001e68 <.L53>:
    1e68:	00042783          	lw	x15,0(x8)
    1e6c:	00040493          	mv	x9,x8
    1e70:	0007a983          	lw	x19,0(x15)
    1e74:	0047a703          	lw	x14,4(x15)
    1e78:	0049a603          	lw	x12,4(x19)
    1e7c:	0009a683          	lw	x13,0(x19)
    1e80:	00c7a223          	sw	x12,4(x15)
    1e84:	00e9a223          	sw	x14,4(x19)
    1e88:	00d7a023          	sw	x13,0(x15)
    1e8c:	0009a023          	sw	x0,0(x19)
    1e90:	120bc663          	bltz	x23,1fbc <.L71>

00001e94 <.L70>:
    1e94:	0044a783          	lw	x15,4(x9)
    1e98:	00279783          	lh	x15,2(x15)
    1e9c:	01778a63          	beq	x15,x23,1eb0 <.L76>
    1ea0:	0004a483          	lw	x9,0(x9)
    1ea4:	fe0498e3          	bnez	x9,1e94 <.L70>
    1ea8:	00042483          	lw	x9,0(x8)
    1eac:	02048463          	beqz	x9,1ed4 <.L97>

00001eb0 <.L76>:
    1eb0:	00442783          	lw	x15,4(x8)
    1eb4:	00090593          	mv	x11,x18
    1eb8:	00079503          	lh	x10,0(x15)
    1ebc:	ab5fe0ef          	jal	x1,970 <crc16>
    1ec0:	0004a483          	lw	x9,0(x9)
    1ec4:	00050913          	mv	x18,x10
    1ec8:	fe0494e3          	bnez	x9,1eb0 <.L76>
    1ecc:	00042483          	lw	x9,0(x8)
    1ed0:	0049a703          	lw	x14,4(x19)

00001ed4 <.L97>:
    1ed4:	0044a683          	lw	x13,4(x9)
    1ed8:	0004a783          	lw	x15,0(x9)
    1edc:	00100e13          	li	x28,1
    1ee0:	00d9a223          	sw	x13,4(x19)
    1ee4:	00e4a223          	sw	x14,4(x9)
    1ee8:	00f9a023          	sw	x15,0(x19)
    1eec:	0134a023          	sw	x19,0(x9)
    1ef0:	00000613          	li	x12,0
    1ef4:	00000493          	li	x9,0
    1ef8:	00000f13          	li	x30,0
    1efc:	00100f93          	li	x31,1

00001f00 <.L77>:
    1f00:	001f0f13          	addi	x30,x30,1 # 1a001 <.L119+0x1535d>
    1f04:	00040793          	mv	x15,x8
    1f08:	00000713          	li	x14,0

00001f0c <.L80>:
    1f0c:	0007a783          	lw	x15,0(x15)
    1f10:	00170713          	addi	x14,x14,1
    1f14:	00078463          	beqz	x15,1f1c <.L81>
    1f18:	feee1ae3          	bne	x28,x14,1f0c <.L80>

00001f1c <.L81>:
    1f1c:	000e0593          	mv	x11,x28
    1f20:	06070c63          	beqz	x14,1f98 <.L150>

00001f24 <.L87>:
    1f24:	0a058c63          	beqz	x11,1fdc <.L145>
    1f28:	0a078a63          	beqz	x15,1fdc <.L145>
    1f2c:	00442883          	lw	x17,4(x8)
    1f30:	0047a803          	lw	x16,4(x15)
    1f34:	00089683          	lh	x13,0(x17)
    1f38:	00281e83          	lh	x29,2(x16)
    1f3c:	00289503          	lh	x10,2(x17)
    1f40:	01069313          	slli	x6,x13,0x10
    1f44:	01035313          	srli	x6,x6,0x10
    1f48:	f006f693          	andi	x13,x13,-256
    1f4c:	00835313          	srli	x6,x6,0x8
    1f50:	0066e6b3          	or	x13,x13,x6
    1f54:	00d89023          	sh	x13,0(x17)
    1f58:	00081683          	lh	x13,0(x16)
    1f5c:	41d50533          	sub	x10,x10,x29
    1f60:	01069893          	slli	x17,x13,0x10
    1f64:	0108d893          	srli	x17,x17,0x10
    1f68:	f006f693          	andi	x13,x13,-256
    1f6c:	0088d893          	srli	x17,x17,0x8
    1f70:	0116e6b3          	or	x13,x13,x17
    1f74:	00d81023          	sh	x13,0(x16)
    1f78:	06a05263          	blez	x10,1fdc <.L145>
    1f7c:	00078693          	mv	x13,x15
    1f80:	0007a783          	lw	x15,0(x15)
    1f84:	fff58593          	addi	x11,x11,-1

00001f88 <.L82>:
    1f88:	02060463          	beqz	x12,1fb0 <.L104>

00001f8c <.L151>:
    1f8c:	00d62023          	sw	x13,0(x12)
    1f90:	00068613          	mv	x12,x13

00001f94 <.L152>:
    1f94:	f80718e3          	bnez	x14,1f24 <.L87>

00001f98 <.L150>:
    1f98:	04058a63          	beqz	x11,1fec <.L88>
    1f9c:	04078e63          	beqz	x15,1ff8 <.L90>
    1fa0:	00078693          	mv	x13,x15
    1fa4:	fff58593          	addi	x11,x11,-1
    1fa8:	0007a783          	lw	x15,0(x15)
    1fac:	fe0610e3          	bnez	x12,1f8c <.L151>

00001fb0 <.L104>:
    1fb0:	00068493          	mv	x9,x13
    1fb4:	00068613          	mv	x12,x13
    1fb8:	fddff06f          	j	1f94 <.L152>

00001fbc <.L71>:
    1fbc:	0044a783          	lw	x15,4(x9)
    1fc0:	0007c783          	lbu	x15,0(x15)
    1fc4:	eefc86e3          	beq	x25,x15,1eb0 <.L76>
    1fc8:	0004a483          	lw	x9,0(x9)
    1fcc:	fe0498e3          	bnez	x9,1fbc <.L71>
    1fd0:	00042483          	lw	x9,0(x8)
    1fd4:	ec049ee3          	bnez	x9,1eb0 <.L76>
    1fd8:	efdff06f          	j	1ed4 <.L97>

00001fdc <.L145>:
    1fdc:	00040693          	mv	x13,x8
    1fe0:	fff70713          	addi	x14,x14,-1
    1fe4:	00042403          	lw	x8,0(x8)
    1fe8:	fa1ff06f          	j	1f88 <.L82>

00001fec <.L88>:
    1fec:	00078663          	beqz	x15,1ff8 <.L90>
    1ff0:	00078413          	mv	x8,x15
    1ff4:	f0dff06f          	j	1f00 <.L77>

00001ff8 <.L90>:
    1ff8:	00062023          	sw	x0,0(x12)
    1ffc:	07ff0c63          	beq	x30,x31,2074 <.L153>
    2000:	001e1e13          	slli	x28,x28,0x1
    2004:	06048463          	beqz	x9,206c <.L142>
    2008:	00048793          	mv	x15,x9
    200c:	00000f13          	li	x30,0
    2010:	00000613          	li	x12,0
    2014:	00000493          	li	x9,0
    2018:	00078413          	mv	x8,x15
    201c:	ee5ff06f          	j	1f00 <.L77>

00002020 <.L147>:
    2020:	18040c63          	beqz	x8,21b8 <.L41>
    2024:	00040793          	mv	x15,x8
    2028:	00c0006f          	j	2034 <.L42>

0000202c <.L46>:
    202c:	0007a783          	lw	x15,0(x15)
    2030:	d8078ae3          	beqz	x15,1dc4 <.L44>

00002034 <.L42>:
    2034:	0047a703          	lw	x14,4(x15)
    2038:	00074703          	lbu	x14,0(x14)
    203c:	feec98e3          	bne	x25,x14,202c <.L46>
    2040:	d85ff06f          	j	1dc4 <.L44>

00002044 <.L148>:
    2044:	0046a703          	lw	x14,4(x13)
    2048:	00180793          	addi	x15,x16,1
    204c:	01079813          	slli	x16,x15,0x10
    2050:	00170783          	lb	x15,1(x14)
    2054:	01085813          	srli	x16,x16,0x10
    2058:	0017f793          	andi	x15,x15,1
    205c:	00f907b3          	add	x15,x18,x15
    2060:	01079913          	slli	x18,x15,0x10
    2064:	01095913          	srli	x18,x18,0x10
    2068:	dc9ff06f          	j	1e30 <.L49>

0000206c <.L142>:
    206c:	00002023          	sw	x0,0(x0) # 0 <_start>
    2070:	00100073          	ebreak

00002074 <.L153>:
    2074:	0004a403          	lw	x8,0(x9)
    2078:	02040063          	beqz	x8,2098 <.L141>

0000207c <.L93>:
    207c:	0044a783          	lw	x15,4(x9)
    2080:	00090593          	mv	x11,x18
    2084:	00079503          	lh	x10,0(x15)
    2088:	8e9fe0ef          	jal	x1,970 <crc16>
    208c:	00042403          	lw	x8,0(x8)
    2090:	00050913          	mv	x18,x10
    2094:	fe0414e3          	bnez	x8,207c <.L93>

00002098 <.L141>:
    2098:	03c12083          	lw	x1,60(x2)
    209c:	03812403          	lw	x8,56(x2)
    20a0:	03412483          	lw	x9,52(x2)
    20a4:	02c12983          	lw	x19,44(x2)
    20a8:	02812a03          	lw	x20,40(x2)
    20ac:	02412a83          	lw	x21,36(x2)
    20b0:	02012b03          	lw	x22,32(x2)
    20b4:	01c12b83          	lw	x23,28(x2)
    20b8:	01812c03          	lw	x24,24(x2)
    20bc:	01412c83          	lw	x25,20(x2)
    20c0:	01012d03          	lw	x26,16(x2)
    20c4:	00c12d83          	lw	x27,12(x2)
    20c8:	00090513          	mv	x10,x18
    20cc:	03012903          	lw	x18,48(x2)
    20d0:	04010113          	addi	x2,x2,64
    20d4:	00008067          	ret

000020d8 <.L149>:
    20d8:	00100d13          	li	x26,1

000020dc <.L69>:
    20dc:	f80408e3          	beqz	x8,206c <.L142>
    20e0:	00000993          	li	x19,0
    20e4:	00000b13          	li	x22,0
    20e8:	00000c13          	li	x24,0

000020ec <.L68>:
    20ec:	001c0c13          	addi	x24,x24,1 # 1d001 <.L119+0x1835d>
    20f0:	00040793          	mv	x15,x8
    20f4:	00000493          	li	x9,0

000020f8 <.L57>:
    20f8:	0007a783          	lw	x15,0(x15)
    20fc:	00148493          	addi	x9,x9,1
    2100:	00078463          	beqz	x15,2108 <.L58>
    2104:	ffa49ae3          	bne	x9,x26,20f8 <.L57>

00002108 <.L58>:
    2108:	00040a93          	mv	x21,x8
    210c:	000d0a13          	mv	x20,x26
    2110:	00078413          	mv	x8,x15
    2114:	02048e63          	beqz	x9,2150 <.L154>

00002118 <.L64>:
    2118:	040a0e63          	beqz	x20,2174 <.L144>
    211c:	04040c63          	beqz	x8,2174 <.L144>
    2120:	00442583          	lw	x11,4(x8)
    2124:	004aa503          	lw	x10,4(x21)
    2128:	000d8613          	mv	x12,x27
    212c:	9a5ff0ef          	jal	x1,1ad0 <cmp_complex>
    2130:	04a05263          	blez	x10,2174 <.L144>
    2134:	00040793          	mv	x15,x8
    2138:	00042403          	lw	x8,0(x8)
    213c:	fffa0a13          	addi	x20,x20,-1

00002140 <.L59>:
    2140:	02098463          	beqz	x19,2168 <.L101>

00002144 <.L155>:
    2144:	00f9a023          	sw	x15,0(x19)
    2148:	00078993          	mv	x19,x15

0000214c <.L156>:
    214c:	fc0496e3          	bnez	x9,2118 <.L64>

00002150 <.L154>:
    2150:	020a0a63          	beqz	x20,2184 <.L65>
    2154:	02040a63          	beqz	x8,2188 <.L67>
    2158:	00040793          	mv	x15,x8
    215c:	fffa0a13          	addi	x20,x20,-1
    2160:	00042403          	lw	x8,0(x8)
    2164:	fe0990e3          	bnez	x19,2144 <.L155>

00002168 <.L101>:
    2168:	00078b13          	mv	x22,x15
    216c:	00078993          	mv	x19,x15
    2170:	fddff06f          	j	214c <.L156>

00002174 <.L144>:
    2174:	000a8793          	mv	x15,x21
    2178:	fff48493          	addi	x9,x9,-1
    217c:	000aaa83          	lw	x21,0(x21)
    2180:	fc1ff06f          	j	2140 <.L59>

00002184 <.L65>:
    2184:	f60414e3          	bnez	x8,20ec <.L68>

00002188 <.L67>:
    2188:	0009a023          	sw	x0,0(x19)
    218c:	00100793          	li	x15,1
    2190:	00fc0863          	beq	x24,x15,21a0 <.L102>
    2194:	001d1d13          	slli	x26,x26,0x1
    2198:	000b0413          	mv	x8,x22
    219c:	f41ff06f          	j	20dc <.L69>

000021a0 <.L102>:
    21a0:	000b0413          	mv	x8,x22
    21a4:	cc5ff06f          	j	1e68 <.L53>

000021a8 <.L98>:
    21a8:	00000c93          	li	x25,0
    21ac:	00058b93          	mv	x23,x11
    21b0:	00000913          	li	x18,0
    21b4:	cb1ff06f          	j	1e64 <.L39>

000021b8 <.L41>:
    21b8:	00002783          	lw	x15,0(x0) # 0 <_start>
    21bc:	00100073          	ebreak

000021c0 <core_list_init>:
    21c0:	fe010113          	addi	x2,x2,-32
    21c4:	00812c23          	sw	x8,24(x2)
    21c8:	00058413          	mv	x8,x11
    21cc:	01400593          	li	x11,20
    21d0:	00912a23          	sw	x9,20(x2)
    21d4:	01312623          	sw	x19,12(x2)
    21d8:	00112e23          	sw	x1,28(x2)
    21dc:	00060993          	mv	x19,x12
    21e0:	01212823          	sw	x18,16(x2)
    21e4:	6a1010ef          	jal	x1,4084 <__udivsi3>
    21e8:	ffe50513          	addi	x10,x10,-2
    21ec:	00351593          	slli	x11,x10,0x3
    21f0:	00b405b3          	add	x11,x8,x11
    21f4:	ffff87b7          	lui	x15,0xffff8
    21f8:	00042023          	sw	x0,0(x8)
    21fc:	00b42223          	sw	x11,4(x8)
    2200:	08078713          	addi	x14,x15,128 # ffff8080 <seed1_volatile+0xfffb79c0>
    2204:	00251e13          	slli	x28,x10,0x2
    2208:	00e59023          	sh	x14,0(x11)
    220c:	00059123          	sh	x0,2(x11)
    2210:	01040713          	addi	x14,x8,16
    2214:	01c58e33          	add	x28,x11,x28
    2218:	00840493          	addi	x9,x8,8
    221c:	00458613          	addi	x12,x11,4
    2220:	24b77863          	bgeu	x14,x11,2470 <.L189>
    2224:	00858693          	addi	x13,x11,8
    2228:	25c6f463          	bgeu	x13,x28,2470 <.L189>
    222c:	00c42623          	sw	x12,12(x8)
    2230:	00042423          	sw	x0,8(x8)
    2234:	00942023          	sw	x9,0(x8)
    2238:	fff7c793          	not	x15,x15
    223c:	fff00613          	li	x12,-1
    2240:	00c59223          	sh	x12,4(x11)
    2244:	00f59323          	sh	x15,6(x11)

00002248 <.L158>:
    2248:	06050a63          	beqz	x10,22bc <.L159>
    224c:	01099f13          	slli	x30,x19,0x10
    2250:	ffff8eb7          	lui	x29,0xffff8
    2254:	010f5f13          	srli	x30,x30,0x10
    2258:	00000613          	li	x12,0
    225c:	fffece93          	not	x29,x29

00002260 <.L164>:
    2260:	00870893          	addi	x17,x14,8
    2264:	04b8fc63          	bgeu	x17,x11,22bc <.L159>
    2268:	00468313          	addi	x6,x13,4
    226c:	05c37463          	bgeu	x6,x28,22b4 <.L161>
    2270:	01061813          	slli	x16,x12,0x10
    2274:	01085813          	srli	x16,x16,0x10
    2278:	01e847b3          	xor	x15,x16,x30
    227c:	00379793          	slli	x15,x15,0x3
    2280:	00787813          	andi	x16,x16,7
    2284:	0787f793          	andi	x15,x15,120
    2288:	00972023          	sw	x9,0(x14)
    228c:	0107e7b3          	or	x15,x15,x16
    2290:	00e42023          	sw	x14,0(x8)
    2294:	00879813          	slli	x16,x15,0x8
    2298:	00d72223          	sw	x13,4(x14)
    229c:	00f867b3          	or	x15,x16,x15
    22a0:	00f69023          	sh	x15,0(x13)
    22a4:	01d69123          	sh	x29,2(x13)
    22a8:	00070493          	mv	x9,x14
    22ac:	00030693          	mv	x13,x6
    22b0:	00088713          	mv	x14,x17

000022b4 <.L161>:
    22b4:	00160613          	addi	x12,x12,1
    22b8:	fac514e3          	bne	x10,x12,2260 <.L164>

000022bc <.L159>:
    22bc:	0004a903          	lw	x18,0(x9)
    22c0:	06090c63          	beqz	x18,2338 <.L169>
    22c4:	00500593          	li	x11,5
    22c8:	5bd010ef          	jal	x1,4084 <__udivsi3>
    22cc:	00004837          	lui	x16,0x4
    22d0:	20000793          	li	x15,512
    22d4:	00100713          	li	x14,1
    22d8:	fff80813          	addi	x16,x16,-1 # 3fff <.LBE5+0x3>
    22dc:	0280006f          	j	2304 <.L170>

000022e0 <.L206>:
    22e0:	00092683          	lw	x13,0(x18)
    22e4:	10078793          	addi	x15,x15,256
    22e8:	00e59123          	sh	x14,2(x11)
    22ec:	01079793          	slli	x15,x15,0x10
    22f0:	00170713          	addi	x14,x14,1
    22f4:	0107d793          	srli	x15,x15,0x10
    22f8:	04068063          	beqz	x13,2338 <.L169>

000022fc <.L168>:
    22fc:	00090493          	mv	x9,x18
    2300:	00068913          	mv	x18,x13

00002304 <.L170>:
    2304:	0044a583          	lw	x11,4(x9)
    2308:	fca76ce3          	bltu	x14,x10,22e0 <.L206>
    230c:	013746b3          	xor	x13,x14,x19
    2310:	7007f613          	andi	x12,x15,1792
    2314:	00d66633          	or	x12,x12,x13
    2318:	00092683          	lw	x13,0(x18)
    231c:	01067633          	and	x12,x12,x16
    2320:	10078793          	addi	x15,x15,256
    2324:	01079793          	slli	x15,x15,0x10
    2328:	00c59123          	sh	x12,2(x11)
    232c:	00170713          	addi	x14,x14,1
    2330:	0107d793          	srli	x15,x15,0x10
    2334:	fc0694e3          	bnez	x13,22fc <.L168>

00002338 <.L169>:
    2338:	00100e93          	li	x29,1
    233c:	00000593          	li	x11,0
    2340:	00000513          	li	x10,0
    2344:	00000f93          	li	x31,0
    2348:	00100293          	li	x5,1

0000234c <.L166>:
    234c:	001f8f93          	addi	x31,x31,1
    2350:	00040793          	mv	x15,x8
    2354:	00000713          	li	x14,0

00002358 <.L173>:
    2358:	0007a783          	lw	x15,0(x15)
    235c:	00170713          	addi	x14,x14,1
    2360:	00078463          	beqz	x15,2368 <.L174>
    2364:	ffd71ae3          	bne	x14,x29,2358 <.L173>

00002368 <.L174>:
    2368:	000e8613          	mv	x12,x29
    236c:	06070c63          	beqz	x14,23e4 <.L207>

00002370 <.L180>:
    2370:	08060c63          	beqz	x12,2408 <.L205>
    2374:	08078a63          	beqz	x15,2408 <.L205>
    2378:	00442303          	lw	x6,4(x8)
    237c:	0047a883          	lw	x17,4(x15)
    2380:	00031683          	lh	x13,0(x6) # 1a000 <.L119+0x1535c>
    2384:	00289f03          	lh	x30,2(x17)
    2388:	00231803          	lh	x16,2(x6)
    238c:	01069e13          	slli	x28,x13,0x10
    2390:	010e5e13          	srli	x28,x28,0x10
    2394:	f006f693          	andi	x13,x13,-256
    2398:	008e5e13          	srli	x28,x28,0x8
    239c:	01c6e6b3          	or	x13,x13,x28
    23a0:	00d31023          	sh	x13,0(x6)
    23a4:	00089683          	lh	x13,0(x17)
    23a8:	41e80833          	sub	x16,x16,x30
    23ac:	01069313          	slli	x6,x13,0x10
    23b0:	01035313          	srli	x6,x6,0x10
    23b4:	f006f693          	andi	x13,x13,-256
    23b8:	00835313          	srli	x6,x6,0x8
    23bc:	0066e6b3          	or	x13,x13,x6
    23c0:	00d89023          	sh	x13,0(x17)
    23c4:	05005263          	blez	x16,2408 <.L205>
    23c8:	00078693          	mv	x13,x15
    23cc:	0007a783          	lw	x15,0(x15)
    23d0:	fff60613          	addi	x12,x12,-1

000023d4 <.L175>:
    23d4:	02058463          	beqz	x11,23fc <.L190>

000023d8 <.L208>:
    23d8:	00d5a023          	sw	x13,0(x11)
    23dc:	00068593          	mv	x11,x13

000023e0 <.L209>:
    23e0:	f80718e3          	bnez	x14,2370 <.L180>

000023e4 <.L207>:
    23e4:	02060a63          	beqz	x12,2418 <.L181>
    23e8:	02078e63          	beqz	x15,2424 <.L183>
    23ec:	00078693          	mv	x13,x15
    23f0:	fff60613          	addi	x12,x12,-1
    23f4:	0007a783          	lw	x15,0(x15)
    23f8:	fe0590e3          	bnez	x11,23d8 <.L208>

000023fc <.L190>:
    23fc:	00068513          	mv	x10,x13
    2400:	00068593          	mv	x11,x13
    2404:	fddff06f          	j	23e0 <.L209>

00002408 <.L205>:
    2408:	00040693          	mv	x13,x8
    240c:	fff70713          	addi	x14,x14,-1
    2410:	00042403          	lw	x8,0(x8)
    2414:	fc1ff06f          	j	23d4 <.L175>

00002418 <.L181>:
    2418:	00078663          	beqz	x15,2424 <.L183>
    241c:	00078413          	mv	x8,x15
    2420:	f2dff06f          	j	234c <.L166>

00002424 <.L183>:
    2424:	0005a023          	sw	x0,0(x11)
    2428:	025f8263          	beq	x31,x5,244c <.L202>
    242c:	001e9e93          	slli	x29,x29,0x1
    2430:	02050c63          	beqz	x10,2468 <.L210>
    2434:	00050793          	mv	x15,x10
    2438:	00000f93          	li	x31,0
    243c:	00000593          	li	x11,0
    2440:	00000513          	li	x10,0
    2444:	00078413          	mv	x8,x15
    2448:	f05ff06f          	j	234c <.L166>

0000244c <.L202>:
    244c:	01c12083          	lw	x1,28(x2)
    2450:	01812403          	lw	x8,24(x2)
    2454:	01412483          	lw	x9,20(x2)
    2458:	01012903          	lw	x18,16(x2)
    245c:	00c12983          	lw	x19,12(x2)
    2460:	02010113          	addi	x2,x2,32
    2464:	00008067          	ret

00002468 <.L210>:
    2468:	00002023          	sw	x0,0(x0) # 0 <_start>
    246c:	00100073          	ebreak

00002470 <.L189>:
    2470:	00048713          	mv	x14,x9
    2474:	00060693          	mv	x13,x12
    2478:	00000493          	li	x9,0
    247c:	dcdff06f          	j	2248 <.L158>

00002480 <core_list_insert_new>:
    2480:	00062803          	lw	x16,0(x12)
    2484:	00880893          	addi	x17,x16,8
    2488:	04e8f663          	bgeu	x17,x14,24d4 <.L214>
    248c:	0006a703          	lw	x14,0(x13)
    2490:	00470313          	addi	x6,x14,4
    2494:	04f37063          	bgeu	x6,x15,24d4 <.L214>
    2498:	01162023          	sw	x17,0(x12)
    249c:	00052783          	lw	x15,0(x10)
    24a0:	00059883          	lh	x17,0(x11)
    24a4:	00259603          	lh	x12,2(x11)
    24a8:	00f82023          	sw	x15,0(x16)
    24ac:	01052023          	sw	x16,0(x10)
    24b0:	00e82223          	sw	x14,4(x16)
    24b4:	0006a783          	lw	x15,0(x13)
    24b8:	00080513          	mv	x10,x16
    24bc:	00478793          	addi	x15,x15,4
    24c0:	00f6a023          	sw	x15,0(x13)
    24c4:	00482783          	lw	x15,4(x16)
    24c8:	01179023          	sh	x17,0(x15)
    24cc:	00c79123          	sh	x12,2(x15)
    24d0:	00008067          	ret

000024d4 <.L214>:
    24d4:	00000813          	li	x16,0
    24d8:	00080513          	mv	x10,x16
    24dc:	00008067          	ret

000024e0 <core_list_remove>:
    24e0:	00050793          	mv	x15,x10
    24e4:	00052503          	lw	x10,0(x10)
    24e8:	0047a683          	lw	x13,4(x15)
    24ec:	00452603          	lw	x12,4(x10)
    24f0:	00052703          	lw	x14,0(x10)
    24f4:	00c7a223          	sw	x12,4(x15)
    24f8:	00d52223          	sw	x13,4(x10)
    24fc:	00e7a023          	sw	x14,0(x15)
    2500:	00052023          	sw	x0,0(x10)
    2504:	00008067          	ret

00002508 <core_list_undo_remove>:
    2508:	0045a603          	lw	x12,4(x11)
    250c:	00452683          	lw	x13,4(x10)
    2510:	0005a703          	lw	x14,0(x11)
    2514:	00c52223          	sw	x12,4(x10)
    2518:	00d5a223          	sw	x13,4(x11)
    251c:	00e52023          	sw	x14,0(x10)
    2520:	00a5a023          	sw	x10,0(x11)
    2524:	00008067          	ret

00002528 <core_list_find>:
    2528:	00259703          	lh	x14,2(x11)
    252c:	02074263          	bltz	x14,2550 <.L230>
    2530:	00051863          	bnez	x10,2540 <.L221>
    2534:	0480006f          	j	257c <.L231>

00002538 <.L222>:
    2538:	00052503          	lw	x10,0(x10)
    253c:	02050c63          	beqz	x10,2574 <.L225>

00002540 <.L221>:
    2540:	00452783          	lw	x15,4(x10)
    2544:	00279783          	lh	x15,2(x15)
    2548:	fee798e3          	bne	x15,x14,2538 <.L222>
    254c:	00008067          	ret

00002550 <.L230>:
    2550:	02050263          	beqz	x10,2574 <.L225>
    2554:	00059703          	lh	x14,0(x11)
    2558:	00c0006f          	j	2564 <.L220>

0000255c <.L223>:
    255c:	00052503          	lw	x10,0(x10)
    2560:	00050c63          	beqz	x10,2578 <.L217>

00002564 <.L220>:
    2564:	00452783          	lw	x15,4(x10)
    2568:	0007c783          	lbu	x15,0(x15)
    256c:	fee798e3          	bne	x15,x14,255c <.L223>
    2570:	00008067          	ret

00002574 <.L225>:
    2574:	00000513          	li	x10,0

00002578 <.L217>:
    2578:	00008067          	ret

0000257c <.L231>:
    257c:	00008067          	ret

00002580 <core_list_reverse>:
    2580:	02050063          	beqz	x10,25a0 <.L233>
    2584:	00000713          	li	x14,0
    2588:	0080006f          	j	2590 <.L234>

0000258c <.L235>:
    258c:	00078513          	mv	x10,x15

00002590 <.L234>:
    2590:	00052783          	lw	x15,0(x10)
    2594:	00e52023          	sw	x14,0(x10)
    2598:	00050713          	mv	x14,x10
    259c:	fe0798e3          	bnez	x15,258c <.L235>

000025a0 <.L233>:
    25a0:	00008067          	ret

000025a4 <core_list_mergesort>:
    25a4:	fd010113          	addi	x2,x2,-48
    25a8:	02912223          	sw	x9,36(x2)
    25ac:	01512a23          	sw	x21,20(x2)
    25b0:	01712623          	sw	x23,12(x2)
    25b4:	01912223          	sw	x25,4(x2)
    25b8:	01a12023          	sw	x26,0(x2)
    25bc:	02112623          	sw	x1,44(x2)
    25c0:	02812423          	sw	x8,40(x2)
    25c4:	03212023          	sw	x18,32(x2)
    25c8:	01312e23          	sw	x19,28(x2)
    25cc:	01412c23          	sw	x20,24(x2)
    25d0:	01612823          	sw	x22,16(x2)
    25d4:	01812423          	sw	x24,8(x2)
    25d8:	00050493          	mv	x9,x10
    25dc:	00058b93          	mv	x23,x11
    25e0:	00060d13          	mv	x26,x12
    25e4:	00100a93          	li	x21,1
    25e8:	00100c93          	li	x25,1

000025ec <.L256>:
    25ec:	0c048063          	beqz	x9,26ac <.L240>
    25f0:	00000c13          	li	x24,0
    25f4:	00000913          	li	x18,0
    25f8:	00000b13          	li	x22,0

000025fc <.L254>:
    25fc:	001c0c13          	addi	x24,x24,1
    2600:	00048793          	mv	x15,x9
    2604:	00000413          	li	x8,0

00002608 <.L243>:
    2608:	0007a783          	lw	x15,0(x15)
    260c:	00140413          	addi	x8,x8,1
    2610:	00078463          	beqz	x15,2618 <.L244>
    2614:	fe8a9ae3          	bne	x21,x8,2608 <.L243>

00002618 <.L244>:
    2618:	00048a13          	mv	x20,x9
    261c:	000a8993          	mv	x19,x21
    2620:	00078493          	mv	x9,x15
    2624:	02040e63          	beqz	x8,2660 <.L266>

00002628 <.L250>:
    2628:	04098e63          	beqz	x19,2684 <.L265>
    262c:	04048c63          	beqz	x9,2684 <.L265>
    2630:	0044a583          	lw	x11,4(x9)
    2634:	004a2503          	lw	x10,4(x20)
    2638:	000d0613          	mv	x12,x26
    263c:	000b80e7          	jalr	x23
    2640:	04a05263          	blez	x10,2684 <.L265>
    2644:	00048793          	mv	x15,x9
    2648:	0004a483          	lw	x9,0(x9)
    264c:	fff98993          	addi	x19,x19,-1

00002650 <.L245>:
    2650:	02090463          	beqz	x18,2678 <.L257>

00002654 <.L267>:
    2654:	00f92023          	sw	x15,0(x18)
    2658:	00078913          	mv	x18,x15

0000265c <.L268>:
    265c:	fc0416e3          	bnez	x8,2628 <.L250>

00002660 <.L266>:
    2660:	02098a63          	beqz	x19,2694 <.L251>
    2664:	02048a63          	beqz	x9,2698 <.L253>
    2668:	00048793          	mv	x15,x9
    266c:	fff98993          	addi	x19,x19,-1
    2670:	0004a483          	lw	x9,0(x9)
    2674:	fe0910e3          	bnez	x18,2654 <.L267>

00002678 <.L257>:
    2678:	00078b13          	mv	x22,x15
    267c:	00078913          	mv	x18,x15
    2680:	fddff06f          	j	265c <.L268>

00002684 <.L265>:
    2684:	000a0793          	mv	x15,x20
    2688:	fff40413          	addi	x8,x8,-1
    268c:	000a2a03          	lw	x20,0(x20)
    2690:	fc1ff06f          	j	2650 <.L245>

00002694 <.L251>:
    2694:	f60494e3          	bnez	x9,25fc <.L254>

00002698 <.L253>:
    2698:	00092023          	sw	x0,0(x18)
    269c:	019c0c63          	beq	x24,x25,26b4 <.L263>
    26a0:	001a9a93          	slli	x21,x21,0x1
    26a4:	000b0493          	mv	x9,x22
    26a8:	f45ff06f          	j	25ec <.L256>

000026ac <.L240>:
    26ac:	00002023          	sw	x0,0(x0) # 0 <_start>
    26b0:	00100073          	ebreak

000026b4 <.L263>:
    26b4:	02c12083          	lw	x1,44(x2)
    26b8:	02812403          	lw	x8,40(x2)
    26bc:	02412483          	lw	x9,36(x2)
    26c0:	02012903          	lw	x18,32(x2)
    26c4:	01c12983          	lw	x19,28(x2)
    26c8:	01812a03          	lw	x20,24(x2)
    26cc:	01412a83          	lw	x21,20(x2)
    26d0:	00c12b83          	lw	x23,12(x2)
    26d4:	00812c03          	lw	x24,8(x2)
    26d8:	00412c83          	lw	x25,4(x2)
    26dc:	00012d03          	lw	x26,0(x2)
    26e0:	000b0513          	mv	x10,x22
    26e4:	01012b03          	lw	x22,16(x2)
    26e8:	03010113          	addi	x2,x2,48
    26ec:	00008067          	ret

000026f0 <barebones_clock>:
    26f0:	00000513          	li	x10,0
    26f4:	00008067          	ret

000026f8 <start_time>:
    26f8:	000407b7          	lui	x15,0x40
    26fc:	6a07aa23          	sw	x0,1716(x15) # 406b4 <start_time_val>
    2700:	00008067          	ret

00002704 <stop_time>:
    2704:	000407b7          	lui	x15,0x40
    2708:	6a07a823          	sw	x0,1712(x15) # 406b0 <stop_time_val>
    270c:	00008067          	ret

00002710 <get_time>:
    2710:	000407b7          	lui	x15,0x40
    2714:	6b07a503          	lw	x10,1712(x15) # 406b0 <stop_time_val>
    2718:	000407b7          	lui	x15,0x40
    271c:	6b47a783          	lw	x15,1716(x15) # 406b4 <start_time_val>
    2720:	40f50533          	sub	x10,x10,x15
    2724:	00008067          	ret

00002728 <time_in_secs>:
    2728:	00000513          	li	x10,0
    272c:	00000593          	li	x11,0
    2730:	00008067          	ret

00002734 <portable_init>:
    2734:	00100793          	li	x15,1
    2738:	00f50023          	sb	x15,0(x10)
    273c:	00008067          	ret

00002740 <portable_fini>:
    2740:	00050023          	sb	x0,0(x10)
    2744:	00008067          	ret

00002748 <iterate>:
    2748:	ff010113          	addi	x2,x2,-16
    274c:	01212023          	sw	x18,0(x2)
    2750:	01c52903          	lw	x18,28(x10)
    2754:	00112623          	sw	x1,12(x2)
    2758:	00812423          	sw	x8,8(x2)
    275c:	00912223          	sw	x9,4(x2)
    2760:	02052c23          	sw	x0,56(x10)
    2764:	02052e23          	sw	x0,60(x10)
    2768:	04090463          	beqz	x18,27b0 <.L2>
    276c:	00050413          	mv	x8,x10
    2770:	00000493          	li	x9,0

00002774 <.L5>:
    2774:	00100593          	li	x11,1
    2778:	00040513          	mv	x10,x8
    277c:	dc0ff0ef          	jal	x1,1d3c <core_bench_list>
    2780:	03845583          	lhu	x11,56(x8)
    2784:	a4dfd0ef          	jal	x1,1d0 <crcu16>
    2788:	02a41c23          	sh	x10,56(x8)
    278c:	fff00593          	li	x11,-1
    2790:	00040513          	mv	x10,x8
    2794:	da8ff0ef          	jal	x1,1d3c <core_bench_list>
    2798:	03845583          	lhu	x11,56(x8)
    279c:	a35fd0ef          	jal	x1,1d0 <crcu16>
    27a0:	02a41c23          	sh	x10,56(x8)
    27a4:	02048463          	beqz	x9,27cc <.L12>
    27a8:	00148493          	addi	x9,x9,1
    27ac:	fc9914e3          	bne	x18,x9,2774 <.L5>

000027b0 <.L2>:
    27b0:	00c12083          	lw	x1,12(x2)
    27b4:	00812403          	lw	x8,8(x2)
    27b8:	00412483          	lw	x9,4(x2)
    27bc:	00012903          	lw	x18,0(x2)
    27c0:	00000513          	li	x10,0
    27c4:	01010113          	addi	x2,x2,16
    27c8:	00008067          	ret

000027cc <.L12>:
    27cc:	02a41d23          	sh	x10,58(x8)
    27d0:	00100793          	li	x15,1
    27d4:	fcf90ee3          	beq	x18,x15,27b0 <.L2>
    27d8:	00100493          	li	x9,1
    27dc:	f99ff06f          	j	2774 <.L5>

000027e0 <matrix_test>:
    27e0:	f9010113          	addi	x2,x2,-112
    27e4:	07212023          	sw	x18,96(x2)
    27e8:	06112623          	sw	x1,108(x2)
    27ec:	fffff937          	lui	x18,0xfffff
    27f0:	06812423          	sw	x8,104(x2)
    27f4:	06912223          	sw	x9,100(x2)
    27f8:	05312e23          	sw	x19,92(x2)
    27fc:	05412c23          	sw	x20,88(x2)
    2800:	05512a23          	sw	x21,84(x2)
    2804:	05612823          	sw	x22,80(x2)
    2808:	05712623          	sw	x23,76(x2)
    280c:	05812423          	sw	x24,72(x2)
    2810:	05912223          	sw	x25,68(x2)
    2814:	05a12023          	sw	x26,64(x2)
    2818:	03b12e23          	sw	x27,60(x2)
    281c:	00b12623          	sw	x11,12(x2)
    2820:	00c12823          	sw	x12,16(x2)
    2824:	00d12a23          	sw	x13,20(x2)
    2828:	01276933          	or	x18,x14,x18
    282c:	56050863          	beqz	x10,2d9c <.L2>
    2830:	40a00ab3          	neg	x21,x10
    2834:	00151493          	slli	x9,x10,0x1
    2838:	001a9793          	slli	x15,x21,0x1
    283c:	009609b3          	add	x19,x12,x9
    2840:	01071b13          	slli	x22,x14,0x10
    2844:	00070d13          	mv	x26,x14
    2848:	00050813          	mv	x16,x10
    284c:	010b5b13          	srli	x22,x22,0x10
    2850:	00f12c23          	sw	x15,24(x2)
    2854:	00098693          	mv	x13,x19
    2858:	00000a13          	li	x20,0
    285c:	002a9a93          	slli	x21,x21,0x2

00002860 <.L3>:
    2860:	01812783          	lw	x15,24(x2)
    2864:	00f68633          	add	x12,x13,x15
    2868:	00060793          	mv	x15,x12

0000286c <.L4>:
    286c:	0007d703          	lhu	x14,0(x15)
    2870:	00278793          	addi	x15,x15,2
    2874:	00eb0733          	add	x14,x22,x14
    2878:	fee79f23          	sh	x14,-2(x15)
    287c:	fed798e3          	bne	x15,x13,286c <.L4>
    2880:	001a0413          	addi	x8,x20,1
    2884:	415606b3          	sub	x13,x12,x21
    2888:	00880663          	beq	x16,x8,2894 <.L5>
    288c:	00040a13          	mv	x20,x8
    2890:	fd1ff06f          	j	2860 <.L3>

00002894 <.L5>:
    2894:	00000c93          	li	x25,0
    2898:	00000d93          	li	x27,0

0000289c <.L7>:
    289c:	01812783          	lw	x15,24(x2)
    28a0:	002c9713          	slli	x14,x25,0x2
    28a4:	01378bb3          	add	x23,x15,x19
    28a8:	00c12783          	lw	x15,12(x2)
    28ac:	01712e23          	sw	x23,28(x2)
    28b0:	00f70c33          	add	x24,x14,x15

000028b4 <.L6>:
    28b4:	000b9503          	lh	x10,0(x23)
    28b8:	000d0593          	mv	x11,x26
    28bc:	002b8b93          	addi	x23,x23,2
    28c0:	798010ef          	jal	x1,4058 <__mulsi3>
    28c4:	00ac2023          	sw	x10,0(x24)
    28c8:	004c0c13          	addi	x24,x24,4
    28cc:	ff3b94e3          	bne	x23,x19,28b4 <.L6>
    28d0:	01c12703          	lw	x14,28(x2)
    28d4:	001d8793          	addi	x15,x27,1
    28d8:	008c8cb3          	add	x25,x25,x8
    28dc:	415709b3          	sub	x19,x14,x21
    28e0:	014d8663          	beq	x27,x20,28ec <.L69>
    28e4:	00078d93          	mv	x27,x15
    28e8:	fb5ff06f          	j	289c <.L7>

000028ec <.L69>:
    28ec:	00c12703          	lw	x14,12(x2)
    28f0:	00241793          	slli	x15,x8,0x2
    28f4:	40800e33          	neg	x28,x8
    28f8:	00f70cb3          	add	x25,x14,x15
    28fc:	02f12023          	sw	x15,32(x2)
    2900:	000c8813          	mv	x16,x25
    2904:	00000513          	li	x10,0
    2908:	00000713          	li	x14,0
    290c:	00000613          	li	x12,0
    2910:	00000893          	li	x17,0
    2914:	003e1e13          	slli	x28,x28,0x3

00002918 <.L8>:
    2918:	01580333          	add	x6,x16,x21
    291c:	00030793          	mv	x15,x6
    2920:	0140006f          	j	2934 <.L11>

00002924 <.L71>:
    2924:	01051513          	slli	x10,x10,0x10
    2928:	00478793          	addi	x15,x15,4
    292c:	41055513          	srai	x10,x10,0x10
    2930:	03078e63          	beq	x15,x16,296c <.L70>

00002934 <.L11>:
    2934:	00070693          	mv	x13,x14
    2938:	0007a703          	lw	x14,0(x15)
    293c:	01051513          	slli	x10,x10,0x10
    2940:	01055513          	srli	x10,x10,0x10
    2944:	00e6a6b3          	slt	x13,x13,x14
    2948:	00e60633          	add	x12,x12,x14
    294c:	00a50593          	addi	x11,x10,10
    2950:	00d50533          	add	x10,x10,x13
    2954:	fcc958e3          	bge	x18,x12,2924 <.L71>
    2958:	01059513          	slli	x10,x11,0x10
    295c:	00478793          	addi	x15,x15,4
    2960:	41055513          	srai	x10,x10,0x10
    2964:	00000613          	li	x12,0
    2968:	fd0796e3          	bne	x15,x16,2934 <.L11>

0000296c <.L70>:
    296c:	00188793          	addi	x15,x17,1
    2970:	41c30833          	sub	x16,x6,x28
    2974:	011a0663          	beq	x20,x17,2980 <.L72>
    2978:	00078893          	mv	x17,x15
    297c:	f9dff06f          	j	2918 <.L8>

00002980 <.L72>:
    2980:	00000593          	li	x11,0
    2984:	fedfd0ef          	jal	x1,970 <crc16>
    2988:	00c12a03          	lw	x20,12(x2)
    298c:	01412783          	lw	x15,20(x2)
    2990:	02012603          	lw	x12,32(x2)
    2994:	00050d13          	mv	x26,x10
    2998:	00000593          	li	x11,0
    299c:	000a0513          	mv	x10,x20
    29a0:	009789b3          	add	x19,x15,x9
    29a4:	00000a93          	li	x21,0
    29a8:	331000ef          	jal	x1,34d8 <memset>

000029ac <.L14>:
    29ac:	01012703          	lw	x14,16(x2)
    29b0:	01412d83          	lw	x27,20(x2)
    29b4:	001a9793          	slli	x15,x21,0x1
    29b8:	00f70c33          	add	x24,x14,x15
    29bc:	00000b93          	li	x23,0

000029c0 <.L13>:
    29c0:	000d9583          	lh	x11,0(x27)
    29c4:	000c1503          	lh	x10,0(x24)
    29c8:	002d8d93          	addi	x27,x27,2
    29cc:	002c0c13          	addi	x24,x24,2
    29d0:	688010ef          	jal	x1,4058 <__mulsi3>
    29d4:	00ab8bb3          	add	x23,x23,x10
    29d8:	ff3d94e3          	bne	x27,x19,29c0 <.L13>
    29dc:	017a2023          	sw	x23,0(x20)
    29e0:	004a0a13          	addi	x20,x20,4
    29e4:	008a8ab3          	add	x21,x21,x8
    29e8:	fd9a12e3          	bne	x20,x25,29ac <.L14>
    29ec:	00000313          	li	x6,0
    29f0:	00000513          	li	x10,0
    29f4:	00000793          	li	x15,0
    29f8:	00000693          	li	x13,0
    29fc:	00000893          	li	x17,0

00002a00 <.L18>:
    2a00:	00c12703          	lw	x14,12(x2)
    2a04:	00231613          	slli	x12,x6,0x2
    2a08:	00000593          	li	x11,0
    2a0c:	00c70633          	add	x12,x14,x12
    2a10:	0180006f          	j	2a28 <.L17>

00002a14 <.L74>:
    2a14:	01051513          	slli	x10,x10,0x10
    2a18:	00158593          	addi	x11,x11,1
    2a1c:	41055513          	srai	x10,x10,0x10
    2a20:	00460613          	addi	x12,x12,4
    2a24:	0485f063          	bgeu	x11,x8,2a64 <.L73>

00002a28 <.L17>:
    2a28:	00078713          	mv	x14,x15
    2a2c:	00062783          	lw	x15,0(x12)
    2a30:	01051513          	slli	x10,x10,0x10
    2a34:	01055513          	srli	x10,x10,0x10
    2a38:	00f72733          	slt	x14,x14,x15
    2a3c:	00f686b3          	add	x13,x13,x15
    2a40:	00a50813          	addi	x16,x10,10
    2a44:	00e50533          	add	x10,x10,x14
    2a48:	fcd956e3          	bge	x18,x13,2a14 <.L74>
    2a4c:	01081513          	slli	x10,x16,0x10
    2a50:	00158593          	addi	x11,x11,1
    2a54:	41055513          	srai	x10,x10,0x10
    2a58:	00000693          	li	x13,0
    2a5c:	00460613          	addi	x12,x12,4
    2a60:	fc85e4e3          	bltu	x11,x8,2a28 <.L17>

00002a64 <.L73>:
    2a64:	00188893          	addi	x17,x17,1
    2a68:	00830333          	add	x6,x6,x8
    2a6c:	f888eae3          	bltu	x17,x8,2a00 <.L18>
    2a70:	000d0593          	mv	x11,x26
    2a74:	efdfd0ef          	jal	x1,970 <crc16>
    2a78:	00400793          	li	x15,4
    2a7c:	02a12623          	sw	x10,44(x2)
    2a80:	02f12223          	sw	x15,36(x2)
    2a84:	30041663          	bnez	x8,2d90 <.L75>

00002a88 <.L39>:
    2a88:	00c12783          	lw	x15,12(x2)
    2a8c:	00012e23          	sw	x0,28(x2)
    2a90:	02012423          	sw	x0,40(x2)
    2a94:	00f12c23          	sw	x15,24(x2)

00002a98 <.L40>:
    2a98:	01812a03          	lw	x20,24(x2)
    2a9c:	02412603          	lw	x12,36(x2)
    2aa0:	00000593          	li	x11,0
    2aa4:	000a0513          	mv	x10,x20
    2aa8:	231000ef          	jal	x1,34d8 <memset>
    2aac:	01c12783          	lw	x15,28(x2)
    2ab0:	01412a83          	lw	x21,20(x2)
    2ab4:	00000993          	li	x19,0
    2ab8:	00179d13          	slli	x26,x15,0x1
    2abc:	01012783          	lw	x15,16(x2)
    2ac0:	01a78d33          	add	x26,x15,x26

00002ac4 <.L21>:
    2ac4:	000a8d93          	mv	x27,x21
    2ac8:	000d0c93          	mv	x25,x26
    2acc:	00000b93          	li	x23,0
    2ad0:	00000c13          	li	x24,0

00002ad4 <.L20>:
    2ad4:	000d9583          	lh	x11,0(x27)
    2ad8:	000c9503          	lh	x10,0(x25)
    2adc:	001c0c13          	addi	x24,x24,1
    2ae0:	002c8c93          	addi	x25,x25,2
    2ae4:	574010ef          	jal	x1,4058 <__mulsi3>
    2ae8:	00ab8bb3          	add	x23,x23,x10
    2aec:	009d8db3          	add	x27,x27,x9
    2af0:	fe8c62e3          	bltu	x24,x8,2ad4 <.L20>
    2af4:	017a2023          	sw	x23,0(x20)
    2af8:	00198993          	addi	x19,x19,1
    2afc:	004a0a13          	addi	x20,x20,4
    2b00:	002a8a93          	addi	x21,x21,2
    2b04:	fc89e0e3          	bltu	x19,x8,2ac4 <.L21>
    2b08:	01812703          	lw	x14,24(x2)
    2b0c:	02012683          	lw	x13,32(x2)
    2b10:	02812783          	lw	x15,40(x2)
    2b14:	00d70733          	add	x14,x14,x13
    2b18:	00e12c23          	sw	x14,24(x2)
    2b1c:	01c12703          	lw	x14,28(x2)
    2b20:	00178793          	addi	x15,x15,1
    2b24:	02f12423          	sw	x15,40(x2)
    2b28:	00870733          	add	x14,x14,x8
    2b2c:	00e12e23          	sw	x14,28(x2)
    2b30:	f687e4e3          	bltu	x15,x8,2a98 <.L40>
    2b34:	00000313          	li	x6,0
    2b38:	00000513          	li	x10,0
    2b3c:	00000793          	li	x15,0
    2b40:	00000693          	li	x13,0
    2b44:	00000893          	li	x17,0

00002b48 <.L22>:
    2b48:	00c12703          	lw	x14,12(x2)
    2b4c:	00231613          	slli	x12,x6,0x2
    2b50:	00000593          	li	x11,0
    2b54:	00c70633          	add	x12,x14,x12
    2b58:	0180006f          	j	2b70 <.L25>

00002b5c <.L77>:
    2b5c:	01051513          	slli	x10,x10,0x10
    2b60:	00158593          	addi	x11,x11,1
    2b64:	41055513          	srai	x10,x10,0x10
    2b68:	00460613          	addi	x12,x12,4
    2b6c:	0485f063          	bgeu	x11,x8,2bac <.L76>

00002b70 <.L25>:
    2b70:	00078713          	mv	x14,x15
    2b74:	00062783          	lw	x15,0(x12)
    2b78:	01051513          	slli	x10,x10,0x10
    2b7c:	01055513          	srli	x10,x10,0x10
    2b80:	00f72733          	slt	x14,x14,x15
    2b84:	00f686b3          	add	x13,x13,x15
    2b88:	00a50813          	addi	x16,x10,10
    2b8c:	00e50533          	add	x10,x10,x14
    2b90:	fcd956e3          	bge	x18,x13,2b5c <.L77>
    2b94:	01081513          	slli	x10,x16,0x10
    2b98:	00158593          	addi	x11,x11,1
    2b9c:	41055513          	srai	x10,x10,0x10
    2ba0:	00000693          	li	x13,0
    2ba4:	00460613          	addi	x12,x12,4
    2ba8:	fc85e4e3          	bltu	x11,x8,2b70 <.L25>

00002bac <.L76>:
    2bac:	00188893          	addi	x17,x17,1
    2bb0:	00830333          	add	x6,x6,x8
    2bb4:	f888eae3          	bltu	x17,x8,2b48 <.L22>
    2bb8:	02c12583          	lw	x11,44(x2)
    2bbc:	db5fd0ef          	jal	x1,970 <crc16>
    2bc0:	00c12783          	lw	x15,12(x2)
    2bc4:	02a12623          	sw	x10,44(x2)
    2bc8:	00012e23          	sw	x0,28(x2)
    2bcc:	00f12c23          	sw	x15,24(x2)
    2bd0:	02012423          	sw	x0,40(x2)

00002bd4 <.L37>:
    2bd4:	01812a03          	lw	x20,24(x2)
    2bd8:	02412603          	lw	x12,36(x2)
    2bdc:	00000593          	li	x11,0
    2be0:	000a0513          	mv	x10,x20
    2be4:	0f5000ef          	jal	x1,34d8 <memset>
    2be8:	01c12783          	lw	x15,28(x2)
    2bec:	01412a83          	lw	x21,20(x2)
    2bf0:	00000993          	li	x19,0
    2bf4:	00179d13          	slli	x26,x15,0x1
    2bf8:	01012783          	lw	x15,16(x2)
    2bfc:	01a78d33          	add	x26,x15,x26

00002c00 <.L28>:
    2c00:	000a8d93          	mv	x27,x21
    2c04:	000d0b93          	mv	x23,x26
    2c08:	00000c93          	li	x25,0
    2c0c:	00000c13          	li	x24,0

00002c10 <.L27>:
    2c10:	000d9583          	lh	x11,0(x27)
    2c14:	000b9503          	lh	x10,0(x23)
    2c18:	001c0c13          	addi	x24,x24,1
    2c1c:	002b8b93          	addi	x23,x23,2
    2c20:	438010ef          	jal	x1,4058 <__mulsi3>
    2c24:	40255813          	srai	x16,x10,0x2
    2c28:	40555593          	srai	x11,x10,0x5
    2c2c:	07f5f593          	andi	x11,x11,127
    2c30:	00f87513          	andi	x10,x16,15
    2c34:	424010ef          	jal	x1,4058 <__mulsi3>
    2c38:	00ac8cb3          	add	x25,x25,x10
    2c3c:	009d8db3          	add	x27,x27,x9
    2c40:	fc8c68e3          	bltu	x24,x8,2c10 <.L27>
    2c44:	019a2023          	sw	x25,0(x20)
    2c48:	00198993          	addi	x19,x19,1
    2c4c:	004a0a13          	addi	x20,x20,4
    2c50:	002a8a93          	addi	x21,x21,2
    2c54:	fa89e6e3          	bltu	x19,x8,2c00 <.L28>
    2c58:	01812703          	lw	x14,24(x2)
    2c5c:	02012683          	lw	x13,32(x2)
    2c60:	02812783          	lw	x15,40(x2)
    2c64:	00d70733          	add	x14,x14,x13
    2c68:	00e12c23          	sw	x14,24(x2)
    2c6c:	01c12703          	lw	x14,28(x2)
    2c70:	00178793          	addi	x15,x15,1
    2c74:	02f12423          	sw	x15,40(x2)
    2c78:	00870733          	add	x14,x14,x8
    2c7c:	00e12e23          	sw	x14,28(x2)
    2c80:	f487eae3          	bltu	x15,x8,2bd4 <.L37>
    2c84:	00000313          	li	x6,0
    2c88:	00000513          	li	x10,0
    2c8c:	00000793          	li	x15,0
    2c90:	00000693          	li	x13,0
    2c94:	00000893          	li	x17,0

00002c98 <.L29>:
    2c98:	00c12703          	lw	x14,12(x2)
    2c9c:	00231613          	slli	x12,x6,0x2
    2ca0:	00000593          	li	x11,0
    2ca4:	00c70633          	add	x12,x14,x12
    2ca8:	0180006f          	j	2cc0 <.L32>

00002cac <.L79>:
    2cac:	01051513          	slli	x10,x10,0x10
    2cb0:	00158593          	addi	x11,x11,1
    2cb4:	41055513          	srai	x10,x10,0x10
    2cb8:	00460613          	addi	x12,x12,4
    2cbc:	0485f063          	bgeu	x11,x8,2cfc <.L78>

00002cc0 <.L32>:
    2cc0:	00078713          	mv	x14,x15
    2cc4:	00062783          	lw	x15,0(x12)
    2cc8:	01051513          	slli	x10,x10,0x10
    2ccc:	01055513          	srli	x10,x10,0x10
    2cd0:	00f72733          	slt	x14,x14,x15
    2cd4:	00f686b3          	add	x13,x13,x15
    2cd8:	00a50813          	addi	x16,x10,10
    2cdc:	00e50533          	add	x10,x10,x14
    2ce0:	fcd956e3          	bge	x18,x13,2cac <.L79>
    2ce4:	01081513          	slli	x10,x16,0x10
    2ce8:	00158593          	addi	x11,x11,1
    2cec:	41055513          	srai	x10,x10,0x10
    2cf0:	00000693          	li	x13,0
    2cf4:	00460613          	addi	x12,x12,4
    2cf8:	fc85e4e3          	bltu	x11,x8,2cc0 <.L32>

00002cfc <.L78>:
    2cfc:	00188893          	addi	x17,x17,1
    2d00:	00830333          	add	x6,x6,x8
    2d04:	f888eae3          	bltu	x17,x8,2c98 <.L29>
    2d08:	02c12583          	lw	x11,44(x2)
    2d0c:	c65fd0ef          	jal	x1,970 <crc16>
    2d10:	00000593          	li	x11,0
    2d14:	00000613          	li	x12,0

00002d18 <.L36>:
    2d18:	01012703          	lw	x14,16(x2)
    2d1c:	00159793          	slli	x15,x11,0x1
    2d20:	00000693          	li	x13,0
    2d24:	00f707b3          	add	x15,x14,x15

00002d28 <.L34>:
    2d28:	0007d703          	lhu	x14,0(x15)
    2d2c:	00278793          	addi	x15,x15,2
    2d30:	00168693          	addi	x13,x13,1
    2d34:	41670733          	sub	x14,x14,x22
    2d38:	fee79f23          	sh	x14,-2(x15)
    2d3c:	fe86e6e3          	bltu	x13,x8,2d28 <.L34>
    2d40:	00160613          	addi	x12,x12,1
    2d44:	008585b3          	add	x11,x11,x8
    2d48:	fc8668e3          	bltu	x12,x8,2d18 <.L36>

00002d4c <.L35>:
    2d4c:	06c12083          	lw	x1,108(x2)
    2d50:	06812403          	lw	x8,104(x2)
    2d54:	01051513          	slli	x10,x10,0x10
    2d58:	06412483          	lw	x9,100(x2)
    2d5c:	06012903          	lw	x18,96(x2)
    2d60:	05c12983          	lw	x19,92(x2)
    2d64:	05812a03          	lw	x20,88(x2)
    2d68:	05412a83          	lw	x21,84(x2)
    2d6c:	05012b03          	lw	x22,80(x2)
    2d70:	04c12b83          	lw	x23,76(x2)
    2d74:	04812c03          	lw	x24,72(x2)
    2d78:	04412c83          	lw	x25,68(x2)
    2d7c:	04012d03          	lw	x26,64(x2)
    2d80:	03c12d83          	lw	x27,60(x2)
    2d84:	41055513          	srai	x10,x10,0x10
    2d88:	07010113          	addi	x2,x2,112
    2d8c:	00008067          	ret

00002d90 <.L75>:
    2d90:	02012783          	lw	x15,32(x2)
    2d94:	02f12223          	sw	x15,36(x2)
    2d98:	cf1ff06f          	j	2a88 <.L39>

00002d9c <.L2>:
    2d9c:	00000593          	li	x11,0
    2da0:	bd1fd0ef          	jal	x1,970 <crc16>
    2da4:	00050593          	mv	x11,x10
    2da8:	00000513          	li	x10,0
    2dac:	bc5fd0ef          	jal	x1,970 <crc16>
    2db0:	00050593          	mv	x11,x10
    2db4:	00000513          	li	x10,0
    2db8:	bb9fd0ef          	jal	x1,970 <crc16>
    2dbc:	00050593          	mv	x11,x10
    2dc0:	00000513          	li	x10,0
    2dc4:	badfd0ef          	jal	x1,970 <crc16>
    2dc8:	f85ff06f          	j	2d4c <.L35>

00002dcc <core_bench_matrix>:
    2dcc:	ff010113          	addi	x2,x2,-16
    2dd0:	00812423          	sw	x8,8(x2)
    2dd4:	00852683          	lw	x13,8(x10)
    2dd8:	00060413          	mv	x8,x12
    2ddc:	00058713          	mv	x14,x11
    2de0:	00452603          	lw	x12,4(x10)
    2de4:	00c52583          	lw	x11,12(x10)
    2de8:	00052503          	lw	x10,0(x10)
    2dec:	00112623          	sw	x1,12(x2)
    2df0:	9f1ff0ef          	jal	x1,27e0 <matrix_test>
    2df4:	00040593          	mv	x11,x8
    2df8:	00812403          	lw	x8,8(x2)
    2dfc:	00c12083          	lw	x1,12(x2)
    2e00:	01010113          	addi	x2,x2,16
    2e04:	b6dfd06f          	j	970 <crc16>

00002e08 <core_init_matrix>:
    2e08:	fb010113          	addi	x2,x2,-80
    2e0c:	05212023          	sw	x18,64(x2)
    2e10:	01b12e23          	sw	x27,28(x2)
    2e14:	04112623          	sw	x1,76(x2)
    2e18:	04812423          	sw	x8,72(x2)
    2e1c:	04912223          	sw	x9,68(x2)
    2e20:	03312e23          	sw	x19,60(x2)
    2e24:	03412c23          	sw	x20,56(x2)
    2e28:	03512a23          	sw	x21,52(x2)
    2e2c:	03612823          	sw	x22,48(x2)
    2e30:	03712623          	sw	x23,44(x2)
    2e34:	03812423          	sw	x24,40(x2)
    2e38:	03912223          	sw	x25,36(x2)
    2e3c:	03a12023          	sw	x26,32(x2)
    2e40:	00d12623          	sw	x13,12(x2)
    2e44:	00050913          	mv	x18,x10
    2e48:	00100d93          	li	x27,1
    2e4c:	00060463          	beqz	x12,2e54 <.L83>
    2e50:	00060d93          	mv	x27,x12

00002e54 <.L83>:
    2e54:	fff58593          	addi	x11,x11,-1
    2e58:	ffc5fb13          	andi	x22,x11,-4
    2e5c:	004b0793          	addi	x15,x22,4
    2e60:	00f12023          	sw	x15,0(x2)
    2e64:	00000493          	li	x9,0
    2e68:	14090e63          	beqz	x18,2fc4 <.L104>

00002e6c <.L84>:
    2e6c:	00048413          	mv	x8,x9
    2e70:	00148493          	addi	x9,x9,1
    2e74:	00048593          	mv	x11,x9
    2e78:	00048513          	mv	x10,x9
    2e7c:	1dc010ef          	jal	x1,4058 <__mulsi3>
    2e80:	00351513          	slli	x10,x10,0x3
    2e84:	ff2564e3          	bltu	x10,x18,2e6c <.L84>
    2e88:	00040593          	mv	x11,x8
    2e8c:	00040513          	mv	x10,x8
    2e90:	1c8010ef          	jal	x1,4058 <__mulsi3>
    2e94:	00012703          	lw	x14,0(x2)
    2e98:	00151793          	slli	x15,x10,0x1
    2e9c:	00f12223          	sw	x15,4(x2)
    2ea0:	00812423          	sw	x8,8(x2)
    2ea4:	00f70b33          	add	x22,x14,x15
    2ea8:	0a040663          	beqz	x8,2f54 <.L88>

00002eac <.L87>:
    2eac:	00012783          	lw	x15,0(x2)
    2eb0:	000104b7          	lui	x9,0x10
    2eb4:	00000a93          	li	x21,0
    2eb8:	00000a13          	li	x20,0
    2ebc:	00100993          	li	x19,1
    2ec0:	41678933          	sub	x18,x15,x22
    2ec4:	fff48493          	addi	x9,x9,-1 # ffff <.L119+0xb35b>
    2ec8:	fff40c93          	addi	x25,x8,-1

00002ecc <.L92>:
    2ecc:	001a9693          	slli	x13,x21,0x1
    2ed0:	01668c33          	add	x24,x13,x22
    2ed4:	00098d13          	mv	x26,x19
    2ed8:	00000b93          	li	x23,0

00002edc <.L89>:
    2edc:	000d0593          	mv	x11,x26
    2ee0:	000d8513          	mv	x10,x27
    2ee4:	174010ef          	jal	x1,4058 <__mulsi3>
    2ee8:	41f55613          	srai	x12,x10,0x1f
    2eec:	01065713          	srli	x14,x12,0x10
    2ef0:	00e50633          	add	x12,x10,x14
    2ef4:	010d1793          	slli	x15,x26,0x10
    2ef8:	00967633          	and	x12,x12,x9
    2efc:	0107d793          	srli	x15,x15,0x10
    2f00:	40e60db3          	sub	x27,x12,x14
    2f04:	01b78733          	add	x14,x15,x27
    2f08:	01071713          	slli	x14,x14,0x10
    2f0c:	01075713          	srli	x14,x14,0x10
    2f10:	00f707b3          	add	x15,x14,x15
    2f14:	00ec1023          	sh	x14,0(x24)
    2f18:	0ff7f793          	andi	x15,x15,255
    2f1c:	01890733          	add	x14,x18,x24
    2f20:	00f71023          	sh	x15,0(x14)
    2f24:	001b8b93          	addi	x23,x23,1
    2f28:	001d0d13          	addi	x26,x26,1 # 18001 <.L119+0x1335d>
    2f2c:	002c0c13          	addi	x24,x24,2
    2f30:	fa8be6e3          	bltu	x23,x8,2edc <.L89>
    2f34:	00198993          	addi	x19,x19,1
    2f38:	00000793          	li	x15,0
    2f3c:	00040463          	beqz	x8,2f44 <.L91>
    2f40:	000c8793          	mv	x15,x25

00002f44 <.L91>:
    2f44:	001a0a13          	addi	x20,x20,1
    2f48:	013789b3          	add	x19,x15,x19
    2f4c:	008a8ab3          	add	x21,x21,x8
    2f50:	f68a6ee3          	bltu	x20,x8,2ecc <.L92>

00002f54 <.L88>:
    2f54:	00412783          	lw	x15,4(x2)
    2f58:	00c12703          	lw	x14,12(x2)
    2f5c:	00012683          	lw	x13,0(x2)
    2f60:	00fb07b3          	add	x15,x22,x15
    2f64:	fff78793          	addi	x15,x15,-1
    2f68:	ffc7f793          	andi	x15,x15,-4
    2f6c:	00478793          	addi	x15,x15,4
    2f70:	00f72623          	sw	x15,12(x14)
    2f74:	00812783          	lw	x15,8(x2)
    2f78:	04c12083          	lw	x1,76(x2)
    2f7c:	00040513          	mv	x10,x8
    2f80:	04812403          	lw	x8,72(x2)
    2f84:	01672423          	sw	x22,8(x14)
    2f88:	00d72223          	sw	x13,4(x14)
    2f8c:	00f72023          	sw	x15,0(x14)
    2f90:	04412483          	lw	x9,68(x2)
    2f94:	04012903          	lw	x18,64(x2)
    2f98:	03c12983          	lw	x19,60(x2)
    2f9c:	03812a03          	lw	x20,56(x2)
    2fa0:	03412a83          	lw	x21,52(x2)
    2fa4:	03012b03          	lw	x22,48(x2)
    2fa8:	02c12b83          	lw	x23,44(x2)
    2fac:	02812c03          	lw	x24,40(x2)
    2fb0:	02412c83          	lw	x25,36(x2)
    2fb4:	02012d03          	lw	x26,32(x2)
    2fb8:	01c12d83          	lw	x27,28(x2)
    2fbc:	05010113          	addi	x2,x2,80
    2fc0:	00008067          	ret

00002fc4 <.L104>:
    2fc4:	fff00793          	li	x15,-1
    2fc8:	00f12423          	sw	x15,8(x2)
    2fcc:	00200793          	li	x15,2
    2fd0:	006b0b13          	addi	x22,x22,6
    2fd4:	fff00413          	li	x8,-1
    2fd8:	00f12223          	sw	x15,4(x2)
    2fdc:	ed1ff06f          	j	2eac <.L87>

00002fe0 <matrix_sum>:
    2fe0:	00050e93          	mv	x29,x10
    2fe4:	08050663          	beqz	x10,3070 <.L111>
    2fe8:	40a00f33          	neg	x30,x10
    2fec:	00251893          	slli	x17,x10,0x2
    2ff0:	011588b3          	add	x17,x11,x17
    2ff4:	002f1f93          	slli	x31,x30,0x2
    2ff8:	00000313          	li	x6,0
    2ffc:	00000513          	li	x10,0
    3000:	00000713          	li	x14,0
    3004:	00000593          	li	x11,0
    3008:	003f1f13          	slli	x30,x30,0x3

0000300c <.L110>:
    300c:	011f8e33          	add	x28,x31,x17
    3010:	000e0793          	mv	x15,x28
    3014:	0140006f          	j	3028 <.L109>

00003018 <.L115>:
    3018:	01051513          	slli	x10,x10,0x10
    301c:	00478793          	addi	x15,x15,4
    3020:	41055513          	srai	x10,x10,0x10
    3024:	02f88e63          	beq	x17,x15,3060 <.L114>

00003028 <.L109>:
    3028:	00070693          	mv	x13,x14
    302c:	0007a703          	lw	x14,0(x15)
    3030:	01051513          	slli	x10,x10,0x10
    3034:	01055513          	srli	x10,x10,0x10
    3038:	00e6a6b3          	slt	x13,x13,x14
    303c:	00e585b3          	add	x11,x11,x14
    3040:	00a50813          	addi	x16,x10,10
    3044:	00d50533          	add	x10,x10,x13
    3048:	fcb658e3          	bge	x12,x11,3018 <.L115>
    304c:	01081513          	slli	x10,x16,0x10
    3050:	00478793          	addi	x15,x15,4
    3054:	41055513          	srai	x10,x10,0x10
    3058:	00000593          	li	x11,0
    305c:	fcf896e3          	bne	x17,x15,3028 <.L109>

00003060 <.L114>:
    3060:	00130313          	addi	x6,x6,1
    3064:	41ee08b3          	sub	x17,x28,x30
    3068:	fa6e92e3          	bne	x29,x6,300c <.L110>
    306c:	00008067          	ret

00003070 <.L111>:
    3070:	00000513          	li	x10,0
    3074:	00008067          	ret

00003078 <matrix_mul_const>:
    3078:	0c050a63          	beqz	x10,314c <.L125>
    307c:	fd010113          	addi	x2,x2,-48
    3080:	03212023          	sw	x18,32(x2)
    3084:	01712623          	sw	x23,12(x2)
    3088:	00151913          	slli	x18,x10,0x1
    308c:	40a00bb3          	neg	x23,x10
    3090:	01312e23          	sw	x19,28(x2)
    3094:	01412c23          	sw	x20,24(x2)
    3098:	01612823          	sw	x22,16(x2)
    309c:	01812423          	sw	x24,8(x2)
    30a0:	01912223          	sw	x25,4(x2)
    30a4:	01a12023          	sw	x26,0(x2)
    30a8:	001b9c93          	slli	x25,x23,0x1
    30ac:	02112623          	sw	x1,44(x2)
    30b0:	02812423          	sw	x8,40(x2)
    30b4:	02912223          	sw	x9,36(x2)
    30b8:	01512a23          	sw	x21,20(x2)
    30bc:	00050b13          	mv	x22,x10
    30c0:	00058c13          	mv	x24,x11
    30c4:	00068d13          	mv	x26,x13
    30c8:	01260933          	add	x18,x12,x18
    30cc:	00000a13          	li	x20,0
    30d0:	00000993          	li	x19,0
    30d4:	002b9b93          	slli	x23,x23,0x2

000030d8 <.L118>:
    30d8:	012c8ab3          	add	x21,x25,x18
    30dc:	002a1493          	slli	x9,x20,0x2
    30e0:	009c04b3          	add	x9,x24,x9
    30e4:	000a8413          	mv	x8,x21

000030e8 <.L119>:
    30e8:	00041503          	lh	x10,0(x8)
    30ec:	000d0593          	mv	x11,x26
    30f0:	00240413          	addi	x8,x8,2
    30f4:	765000ef          	jal	x1,4058 <__mulsi3>
    30f8:	00a4a023          	sw	x10,0(x9)
    30fc:	00448493          	addi	x9,x9,4
    3100:	fe8914e3          	bne	x18,x8,30e8 <.L119>
    3104:	00198993          	addi	x19,x19,1
    3108:	016a0a33          	add	x20,x20,x22
    310c:	417a8933          	sub	x18,x21,x23
    3110:	fd3b14e3          	bne	x22,x19,30d8 <.L118>
    3114:	02c12083          	lw	x1,44(x2)
    3118:	02812403          	lw	x8,40(x2)
    311c:	02412483          	lw	x9,36(x2)
    3120:	02012903          	lw	x18,32(x2)
    3124:	01c12983          	lw	x19,28(x2)
    3128:	01812a03          	lw	x20,24(x2)
    312c:	01412a83          	lw	x21,20(x2)
    3130:	01012b03          	lw	x22,16(x2)
    3134:	00c12b83          	lw	x23,12(x2)
    3138:	00812c03          	lw	x24,8(x2)
    313c:	00412c83          	lw	x25,4(x2)
    3140:	00012d03          	lw	x26,0(x2)
    3144:	03010113          	addi	x2,x2,48
    3148:	00008067          	ret

0000314c <.L125>:
    314c:	00008067          	ret

00003150 <matrix_add_const>:
    3150:	04050663          	beqz	x10,319c <.L128>
    3154:	40a008b3          	neg	x17,x10
    3158:	00151693          	slli	x13,x10,0x1
    315c:	01061613          	slli	x12,x12,0x10
    3160:	00d586b3          	add	x13,x11,x13
    3164:	00189313          	slli	x6,x17,0x1
    3168:	01065613          	srli	x12,x12,0x10
    316c:	00000593          	li	x11,0
    3170:	00289893          	slli	x17,x17,0x2

00003174 <.L130>:
    3174:	00d30833          	add	x16,x6,x13
    3178:	00080793          	mv	x15,x16

0000317c <.L131>:
    317c:	0007d703          	lhu	x14,0(x15)
    3180:	00278793          	addi	x15,x15,2
    3184:	00e60733          	add	x14,x12,x14
    3188:	fee79f23          	sh	x14,-2(x15)
    318c:	fed798e3          	bne	x15,x13,317c <.L131>
    3190:	00158593          	addi	x11,x11,1
    3194:	411806b3          	sub	x13,x16,x17
    3198:	fcb51ee3          	bne	x10,x11,3174 <.L130>

0000319c <.L128>:
    319c:	00008067          	ret

000031a0 <matrix_mul_vect>:
    31a0:	0c050c63          	beqz	x10,3278 <.L144>
    31a4:	fd010113          	addi	x2,x2,-48
    31a8:	01412c23          	sw	x20,24(x2)
    31ac:	01512a23          	sw	x21,20(x2)
    31b0:	00058a13          	mv	x20,x11
    31b4:	01712623          	sw	x23,12(x2)
    31b8:	00050a93          	mv	x21,x10
    31bc:	00251b93          	slli	x23,x10,0x2
    31c0:	01312e23          	sw	x19,28(x2)
    31c4:	01612823          	sw	x22,16(x2)
    31c8:	01812423          	sw	x24,8(x2)
    31cc:	00068b13          	mv	x22,x13
    31d0:	00060c13          	mv	x24,x12
    31d4:	00000593          	li	x11,0
    31d8:	000b8613          	mv	x12,x23
    31dc:	000a0513          	mv	x10,x20
    31e0:	001a9993          	slli	x19,x21,0x1
    31e4:	01912223          	sw	x25,4(x2)
    31e8:	02112623          	sw	x1,44(x2)
    31ec:	02812423          	sw	x8,40(x2)
    31f0:	02912223          	sw	x9,36(x2)
    31f4:	03212023          	sw	x18,32(x2)
    31f8:	017a0bb3          	add	x23,x20,x23
    31fc:	2dc000ef          	jal	x1,34d8 <memset>
    3200:	013b09b3          	add	x19,x22,x19
    3204:	00000c93          	li	x25,0

00003208 <.L139>:
    3208:	001c9493          	slli	x9,x25,0x1
    320c:	009c04b3          	add	x9,x24,x9
    3210:	000b0413          	mv	x8,x22
    3214:	00000913          	li	x18,0

00003218 <.L138>:
    3218:	00041583          	lh	x11,0(x8)
    321c:	00049503          	lh	x10,0(x9)
    3220:	00240413          	addi	x8,x8,2
    3224:	00248493          	addi	x9,x9,2
    3228:	631000ef          	jal	x1,4058 <__mulsi3>
    322c:	00a90933          	add	x18,x18,x10
    3230:	fe8994e3          	bne	x19,x8,3218 <.L138>
    3234:	012a2023          	sw	x18,0(x20)
    3238:	004a0a13          	addi	x20,x20,4
    323c:	015c8cb3          	add	x25,x25,x21
    3240:	fd4b94e3          	bne	x23,x20,3208 <.L139>
    3244:	02c12083          	lw	x1,44(x2)
    3248:	02812403          	lw	x8,40(x2)
    324c:	02412483          	lw	x9,36(x2)
    3250:	02012903          	lw	x18,32(x2)
    3254:	01c12983          	lw	x19,28(x2)
    3258:	01812a03          	lw	x20,24(x2)
    325c:	01412a83          	lw	x21,20(x2)
    3260:	01012b03          	lw	x22,16(x2)
    3264:	00c12b83          	lw	x23,12(x2)
    3268:	00812c03          	lw	x24,8(x2)
    326c:	00412c83          	lw	x25,4(x2)
    3270:	03010113          	addi	x2,x2,48
    3274:	00008067          	ret

00003278 <.L144>:
    3278:	00008067          	ret

0000327c <matrix_mul_matrix>:
    327c:	fb010113          	addi	x2,x2,-80
    3280:	04112623          	sw	x1,76(x2)
    3284:	04812423          	sw	x8,72(x2)
    3288:	04912223          	sw	x9,68(x2)
    328c:	05212023          	sw	x18,64(x2)
    3290:	03312e23          	sw	x19,60(x2)
    3294:	03412c23          	sw	x20,56(x2)
    3298:	03512a23          	sw	x21,52(x2)
    329c:	03612823          	sw	x22,48(x2)
    32a0:	03712623          	sw	x23,44(x2)
    32a4:	03812423          	sw	x24,40(x2)
    32a8:	03912223          	sw	x25,36(x2)
    32ac:	03a12023          	sw	x26,32(x2)
    32b0:	01b12e23          	sw	x27,28(x2)
    32b4:	00b12423          	sw	x11,8(x2)
    32b8:	00d12623          	sw	x13,12(x2)
    32bc:	0a050463          	beqz	x10,3364 <.L147>
    32c0:	00151413          	slli	x8,x10,0x1
    32c4:	00251793          	slli	x15,x10,0x2
    32c8:	00050b13          	mv	x22,x10
    32cc:	00060a93          	mv	x21,x12
    32d0:	008604b3          	add	x9,x12,x8
    32d4:	00f12223          	sw	x15,4(x2)
    32d8:	00000b93          	li	x23,0
    32dc:	00000c13          	li	x24,0

000032e0 <.L149>:
    32e0:	00812783          	lw	x15,8(x2)
    32e4:	00412603          	lw	x12,4(x2)
    32e8:	002b9913          	slli	x18,x23,0x2
    32ec:	01278933          	add	x18,x15,x18
    32f0:	00000593          	li	x11,0
    32f4:	00090513          	mv	x10,x18
    32f8:	1e0000ef          	jal	x1,34d8 <memset>
    32fc:	00c12983          	lw	x19,12(x2)
    3300:	00000a13          	li	x20,0

00003304 <.L151>:
    3304:	00098d93          	mv	x27,x19
    3308:	000a8d13          	mv	x26,x21
    330c:	00000c93          	li	x25,0

00003310 <.L150>:
    3310:	000d9583          	lh	x11,0(x27)
    3314:	000d1503          	lh	x10,0(x26)
    3318:	002d0d13          	addi	x26,x26,2
    331c:	008d8db3          	add	x27,x27,x8
    3320:	539000ef          	jal	x1,4058 <__mulsi3>
    3324:	00ac8cb3          	add	x25,x25,x10
    3328:	fe9d14e3          	bne	x26,x9,3310 <.L150>
    332c:	01992023          	sw	x25,0(x18) # fffff000 <seed1_volatile+0xfffbe940>
    3330:	001a0793          	addi	x15,x20,1
    3334:	00490913          	addi	x18,x18,4
    3338:	00298993          	addi	x19,x19,2
    333c:	00fb0663          	beq	x22,x15,3348 <.L158>
    3340:	00078a13          	mv	x20,x15
    3344:	fc1ff06f          	j	3304 <.L151>

00003348 <.L158>:
    3348:	001c0793          	addi	x15,x24,1
    334c:	008a8ab3          	add	x21,x21,x8
    3350:	016b8bb3          	add	x23,x23,x22
    3354:	008484b3          	add	x9,x9,x8
    3358:	014c0663          	beq	x24,x20,3364 <.L147>
    335c:	00078c13          	mv	x24,x15
    3360:	f81ff06f          	j	32e0 <.L149>

00003364 <.L147>:
    3364:	04c12083          	lw	x1,76(x2)
    3368:	04812403          	lw	x8,72(x2)
    336c:	04412483          	lw	x9,68(x2)
    3370:	04012903          	lw	x18,64(x2)
    3374:	03c12983          	lw	x19,60(x2)
    3378:	03812a03          	lw	x20,56(x2)
    337c:	03412a83          	lw	x21,52(x2)
    3380:	03012b03          	lw	x22,48(x2)
    3384:	02c12b83          	lw	x23,44(x2)
    3388:	02812c03          	lw	x24,40(x2)
    338c:	02412c83          	lw	x25,36(x2)
    3390:	02012d03          	lw	x26,32(x2)
    3394:	01c12d83          	lw	x27,28(x2)
    3398:	05010113          	addi	x2,x2,80
    339c:	00008067          	ret

000033a0 <matrix_mul_matrix_bitextract>:
    33a0:	fb010113          	addi	x2,x2,-80
    33a4:	04112623          	sw	x1,76(x2)
    33a8:	04812423          	sw	x8,72(x2)
    33ac:	04912223          	sw	x9,68(x2)
    33b0:	05212023          	sw	x18,64(x2)
    33b4:	03312e23          	sw	x19,60(x2)
    33b8:	03412c23          	sw	x20,56(x2)
    33bc:	03512a23          	sw	x21,52(x2)
    33c0:	03612823          	sw	x22,48(x2)
    33c4:	03712623          	sw	x23,44(x2)
    33c8:	03812423          	sw	x24,40(x2)
    33cc:	03912223          	sw	x25,36(x2)
    33d0:	03a12023          	sw	x26,32(x2)
    33d4:	01b12e23          	sw	x27,28(x2)
    33d8:	00b12423          	sw	x11,8(x2)
    33dc:	00d12623          	sw	x13,12(x2)
    33e0:	0a050e63          	beqz	x10,349c <.L159>
    33e4:	00151413          	slli	x8,x10,0x1
    33e8:	00251793          	slli	x15,x10,0x2
    33ec:	00050b13          	mv	x22,x10
    33f0:	00060a93          	mv	x21,x12
    33f4:	008604b3          	add	x9,x12,x8
    33f8:	00f12223          	sw	x15,4(x2)
    33fc:	00000b93          	li	x23,0
    3400:	00000c13          	li	x24,0

00003404 <.L161>:
    3404:	00812783          	lw	x15,8(x2)
    3408:	00412603          	lw	x12,4(x2)
    340c:	002b9913          	slli	x18,x23,0x2
    3410:	01278933          	add	x18,x15,x18
    3414:	00000593          	li	x11,0
    3418:	00090513          	mv	x10,x18
    341c:	0bc000ef          	jal	x1,34d8 <memset>
    3420:	00c12983          	lw	x19,12(x2)
    3424:	00000a13          	li	x20,0

00003428 <.L163>:
    3428:	00098d93          	mv	x27,x19
    342c:	000a8d13          	mv	x26,x21
    3430:	00000c93          	li	x25,0

00003434 <.L162>:
    3434:	000d9583          	lh	x11,0(x27)
    3438:	000d1503          	lh	x10,0(x26)
    343c:	002d0d13          	addi	x26,x26,2
    3440:	008d8db3          	add	x27,x27,x8
    3444:	415000ef          	jal	x1,4058 <__mulsi3>
    3448:	40255613          	srai	x12,x10,0x2
    344c:	40555593          	srai	x11,x10,0x5
    3450:	07f5f593          	andi	x11,x11,127
    3454:	00f67513          	andi	x10,x12,15
    3458:	401000ef          	jal	x1,4058 <__mulsi3>
    345c:	00ac8cb3          	add	x25,x25,x10
    3460:	fc9d1ae3          	bne	x26,x9,3434 <.L162>
    3464:	01992023          	sw	x25,0(x18)
    3468:	001a0793          	addi	x15,x20,1
    346c:	00490913          	addi	x18,x18,4
    3470:	00298993          	addi	x19,x19,2
    3474:	00fb0663          	beq	x22,x15,3480 <.L170>
    3478:	00078a13          	mv	x20,x15
    347c:	fadff06f          	j	3428 <.L163>

00003480 <.L170>:
    3480:	001c0793          	addi	x15,x24,1
    3484:	008a8ab3          	add	x21,x21,x8
    3488:	016b8bb3          	add	x23,x23,x22
    348c:	008484b3          	add	x9,x9,x8
    3490:	014c0663          	beq	x24,x20,349c <.L159>
    3494:	00078c13          	mv	x24,x15
    3498:	f6dff06f          	j	3404 <.L161>

0000349c <.L159>:
    349c:	04c12083          	lw	x1,76(x2)
    34a0:	04812403          	lw	x8,72(x2)
    34a4:	04412483          	lw	x9,68(x2)
    34a8:	04012903          	lw	x18,64(x2)
    34ac:	03c12983          	lw	x19,60(x2)
    34b0:	03812a03          	lw	x20,56(x2)
    34b4:	03412a83          	lw	x21,52(x2)
    34b8:	03012b03          	lw	x22,48(x2)
    34bc:	02c12b83          	lw	x23,44(x2)
    34c0:	02812c03          	lw	x24,40(x2)
    34c4:	02412c83          	lw	x25,36(x2)
    34c8:	02012d03          	lw	x26,32(x2)
    34cc:	01c12d83          	lw	x27,28(x2)
    34d0:	05010113          	addi	x2,x2,80
    34d4:	00008067          	ret

000034d8 <memset>:
    34d8:	00f00313          	li	x6,15
    34dc:	00050713          	mv	x14,x10
    34e0:	02c37e63          	bgeu	x6,x12,351c <.Ltiny>
    34e4:	00f77793          	andi	x15,x14,15
    34e8:	0a079063          	bnez	x15,3588 <.Lmisaligned>

000034ec <.Laligned>:
    34ec:	08059263          	bnez	x11,3570 <.Lwordify>

000034f0 <.Lwordified>:
    34f0:	ff067693          	andi	x13,x12,-16
    34f4:	00f67613          	andi	x12,x12,15
    34f8:	00e686b3          	add	x13,x13,x14

000034fc <.L1^B1>:
    34fc:	00b72023          	sw	x11,0(x14)
    3500:	00b72223          	sw	x11,4(x14)
    3504:	00b72423          	sw	x11,8(x14)
    3508:	00b72623          	sw	x11,12(x14)
    350c:	01070713          	addi	x14,x14,16
    3510:	fed766e3          	bltu	x14,x13,34fc <.L1^B1>
    3514:	00061463          	bnez	x12,351c <.Ltiny>
    3518:	00008067          	ret

0000351c <.Ltiny>:
    351c:	40c306b3          	sub	x13,x6,x12
    3520:	00269693          	slli	x13,x13,0x2

00003524 <.L1^B2>:
    3524:	00000297          	auipc	x5,0x0
    3528:	005686b3          	add	x13,x13,x5

0000352c <.Ltable_misaligned>:
    352c:	00c68067          	jr	12(x13)

00003530 <.Ltable>:
    3530:	00b70723          	sb	x11,14(x14)
    3534:	00b706a3          	sb	x11,13(x14)
    3538:	00b70623          	sb	x11,12(x14)
    353c:	00b705a3          	sb	x11,11(x14)
    3540:	00b70523          	sb	x11,10(x14)
    3544:	00b704a3          	sb	x11,9(x14)
    3548:	00b70423          	sb	x11,8(x14)
    354c:	00b703a3          	sb	x11,7(x14)
    3550:	00b70323          	sb	x11,6(x14)
    3554:	00b702a3          	sb	x11,5(x14)
    3558:	00b70223          	sb	x11,4(x14)
    355c:	00b701a3          	sb	x11,3(x14)
    3560:	00b70123          	sb	x11,2(x14)
    3564:	00b700a3          	sb	x11,1(x14)
    3568:	00b70023          	sb	x11,0(x14)
    356c:	00008067          	ret

00003570 <.Lwordify>:
    3570:	0ff5f593          	andi	x11,x11,255
    3574:	00859693          	slli	x13,x11,0x8
    3578:	00d5e5b3          	or	x11,x11,x13
    357c:	01059693          	slli	x13,x11,0x10
    3580:	00d5e5b3          	or	x11,x11,x13
    3584:	f6dff06f          	j	34f0 <.Lwordified>

00003588 <.Lmisaligned>:
    3588:	00279693          	slli	x13,x15,0x2

0000358c <.L1^B3>:
    358c:	00000297          	auipc	x5,0x0
    3590:	005686b3          	add	x13,x13,x5
    3594:	00008293          	mv	x5,x1
    3598:	fa0680e7          	jalr	-96(x13)
    359c:	00028093          	mv	x1,x5
    35a0:	ff078793          	addi	x15,x15,-16
    35a4:	40f70733          	sub	x14,x14,x15
    35a8:	00f60633          	add	x12,x12,x15
    35ac:	f6c378e3          	bgeu	x6,x12,351c <.Ltiny>
    35b0:	f3dff06f          	j	34ec <.Laligned>

000035b4 <__divdf3>:
    35b4:	fb010113          	addi	x2,x2,-80
    35b8:	05212023          	sw	x18,64(x2)

000035bc <.LBB3>:
    35bc:	0145d913          	srli	x18,x11,0x14

000035c0 <.LBE3>:
    35c0:	04912223          	sw	x9,68(x2)
    35c4:	03312e23          	sw	x19,60(x2)
    35c8:	03512a23          	sw	x21,52(x2)
    35cc:	03612823          	sw	x22,48(x2)
    35d0:	03712623          	sw	x23,44(x2)

000035d4 <.LBB4>:
    35d4:	00c59493          	slli	x9,x11,0xc

000035d8 <.LBE4>:
    35d8:	04112623          	sw	x1,76(x2)
    35dc:	04812423          	sw	x8,72(x2)
    35e0:	03412c23          	sw	x20,56(x2)
    35e4:	03812423          	sw	x24,40(x2)
    35e8:	03912223          	sw	x25,36(x2)
    35ec:	03a12023          	sw	x26,32(x2)
    35f0:	01b12e23          	sw	x27,28(x2)

000035f4 <.LBB5>:
    35f4:	7ff97913          	andi	x18,x18,2047

000035f8 <.LBE5>:
    35f8:	00050993          	mv	x19,x10
    35fc:	00060b93          	mv	x23,x12
    3600:	00068b13          	mv	x22,x13

00003604 <.LBB6>:
    3604:	00c4d493          	srli	x9,x9,0xc

00003608 <.LVL1>:
    3608:	01f5da93          	srli	x21,x11,0x1f

0000360c <.LBE6>:
    360c:	0a090063          	beqz	x18,36ac <.L2>
    3610:	7ff00793          	li	x15,2047
    3614:	0ef90e63          	beq	x18,x15,3710 <.L3>

00003618 <.LVL3>:
    3618:	01d55c93          	srli	x25,x10,0x1d
    361c:	00349493          	slli	x9,x9,0x3

00003620 <.LVL4>:
    3620:	009ce4b3          	or	x9,x25,x9
    3624:	00800cb7          	lui	x25,0x800
    3628:	0194ecb3          	or	x25,x9,x25

0000362c <.LVL5>:
    362c:	00351413          	slli	x8,x10,0x3

00003630 <.LVL6>:
    3630:	c0190913          	addi	x18,x18,-1023

00003634 <.L85>:
    3634:	00000c13          	li	x24,0

00003638 <.L4>:
    3638:	014b5513          	srli	x10,x22,0x14
    363c:	00cb1593          	slli	x11,x22,0xc
    3640:	7ff57513          	andi	x10,x10,2047
    3644:	00c5d993          	srli	x19,x11,0xc

00003648 <.LVL9>:
    3648:	01fb5b13          	srli	x22,x22,0x1f

0000364c <.LBE11>:
    364c:	10050063          	beqz	x10,374c <.L9>
    3650:	7ff00793          	li	x15,2047
    3654:	16f50063          	beq	x10,x15,37b4 <.L10>

00003658 <.LVL11>:
    3658:	00399593          	slli	x11,x19,0x3
    365c:	01dbd793          	srli	x15,x23,0x1d
    3660:	00b7e5b3          	or	x11,x15,x11
    3664:	008009b7          	lui	x19,0x800

00003668 <.LVL12>:
    3668:	0135e9b3          	or	x19,x11,x19

0000366c <.LVL13>:
    366c:	003b9693          	slli	x13,x23,0x3

00003670 <.LVL14>:
    3670:	c0150513          	addi	x10,x10,-1023

00003674 <.L86>:
    3674:	00000793          	li	x15,0

00003678 <.L11>:
    3678:	002c1713          	slli	x14,x24,0x2
    367c:	00f76733          	or	x14,x14,x15
    3680:	fff70713          	addi	x14,x14,-1
    3684:	00e00613          	li	x12,14
    3688:	016ac4b3          	xor	x9,x21,x22

0000368c <.LVL17>:
    368c:	40a90933          	sub	x18,x18,x10

00003690 <.LVL18>:
    3690:	14e66e63          	bltu	x12,x14,37ec <.L16>
    3694:	00040637          	lui	x12,0x40
    3698:	00271713          	slli	x14,x14,0x2
    369c:	07460613          	addi	x12,x12,116 # 40074 <.L18>
    36a0:	00c70733          	add	x14,x14,x12
    36a4:	00072703          	lw	x14,0(x14)
    36a8:	00070067          	jr	x14

000036ac <.L2>:
    36ac:	00a4ecb3          	or	x25,x9,x10
    36b0:	060c8e63          	beqz	x25,372c <.L51>

000036b4 <.LBB16>:
    36b4:	04048063          	beqz	x9,36f4 <.L5>
    36b8:	00048513          	mv	x10,x9

000036bc <.LVL20>:
    36bc:	275000ef          	jal	x1,4130 <__clzsi2>

000036c0 <.L6>:
    36c0:	ff550793          	addi	x15,x10,-11

000036c4 <.LVL22>:
    36c4:	01c00713          	li	x14,28
    36c8:	02f74c63          	blt	x14,x15,3700 <.L7>
    36cc:	01d00c93          	li	x25,29
    36d0:	ff850413          	addi	x8,x10,-8
    36d4:	40fc8cb3          	sub	x25,x25,x15
    36d8:	008494b3          	sll	x9,x9,x8

000036dc <.LVL23>:
    36dc:	0199dcb3          	srl	x25,x19,x25
    36e0:	009cecb3          	or	x25,x25,x9

000036e4 <.LVL24>:
    36e4:	00899433          	sll	x8,x19,x8

000036e8 <.L8>:
    36e8:	c0d00913          	li	x18,-1011

000036ec <.LVL26>:
    36ec:	40a90933          	sub	x18,x18,x10
    36f0:	f45ff06f          	j	3634 <.L85>

000036f4 <.L5>:
    36f4:	23d000ef          	jal	x1,4130 <__clzsi2>

000036f8 <.LVL28>:
    36f8:	02050513          	addi	x10,x10,32
    36fc:	fc5ff06f          	j	36c0 <.L6>

00003700 <.L7>:
    3700:	fd850493          	addi	x9,x10,-40

00003704 <.LVL31>:
    3704:	00999cb3          	sll	x25,x19,x9

00003708 <.LVL32>:
    3708:	00000413          	li	x8,0
    370c:	fddff06f          	j	36e8 <.L8>

00003710 <.L3>:
    3710:	00a4ecb3          	or	x25,x9,x10
    3714:	020c8463          	beqz	x25,373c <.L52>
    3718:	00050413          	mv	x8,x10

0000371c <.LBB17>:
    371c:	00048c93          	mv	x25,x9

00003720 <.LBE17>:
    3720:	7ff00913          	li	x18,2047

00003724 <.LVL34>:
    3724:	00300c13          	li	x24,3
    3728:	f11ff06f          	j	3638 <.L4>

0000372c <.L51>:
    372c:	00000413          	li	x8,0
    3730:	00000913          	li	x18,0

00003734 <.LVL36>:
    3734:	00100c13          	li	x24,1
    3738:	f01ff06f          	j	3638 <.L4>

0000373c <.L52>:
    373c:	00000413          	li	x8,0
    3740:	7ff00913          	li	x18,2047

00003744 <.LVL38>:
    3744:	00200c13          	li	x24,2
    3748:	ef1ff06f          	j	3638 <.L4>

0000374c <.L9>:
    374c:	0179e6b3          	or	x13,x19,x23
    3750:	06068e63          	beqz	x13,37cc <.L53>

00003754 <.LBB18>:
    3754:	04098063          	beqz	x19,3794 <.L12>
    3758:	00098513          	mv	x10,x19

0000375c <.LVL40>:
    375c:	1d5000ef          	jal	x1,4130 <__clzsi2>

00003760 <.L13>:
    3760:	ff550793          	addi	x15,x10,-11

00003764 <.LVL42>:
    3764:	01c00713          	li	x14,28
    3768:	02f74e63          	blt	x14,x15,37a4 <.L14>
    376c:	01d00613          	li	x12,29
    3770:	ff850693          	addi	x13,x10,-8
    3774:	40f60633          	sub	x12,x12,x15
    3778:	00d995b3          	sll	x11,x19,x13
    377c:	00cbd633          	srl	x12,x23,x12
    3780:	00b669b3          	or	x19,x12,x11
    3784:	00db96b3          	sll	x13,x23,x13

00003788 <.L15>:
    3788:	c0d00713          	li	x14,-1011
    378c:	40a70533          	sub	x10,x14,x10
    3790:	ee5ff06f          	j	3674 <.L86>

00003794 <.L12>:
    3794:	000b8513          	mv	x10,x23

00003798 <.LVL46>:
    3798:	199000ef          	jal	x1,4130 <__clzsi2>

0000379c <.LVL47>:
    379c:	02050513          	addi	x10,x10,32
    37a0:	fc1ff06f          	j	3760 <.L13>

000037a4 <.L14>:
    37a4:	fd850593          	addi	x11,x10,-40
    37a8:	00bb99b3          	sll	x19,x23,x11

000037ac <.LVL50>:
    37ac:	00000693          	li	x13,0
    37b0:	fd9ff06f          	j	3788 <.L15>

000037b4 <.L10>:
    37b4:	0179e6b3          	or	x13,x19,x23
    37b8:	02068263          	beqz	x13,37dc <.L54>
    37bc:	000b8693          	mv	x13,x23
    37c0:	7ff00513          	li	x10,2047

000037c4 <.LVL52>:
    37c4:	00300793          	li	x15,3
    37c8:	eb1ff06f          	j	3678 <.L11>

000037cc <.L53>:
    37cc:	00000993          	li	x19,0

000037d0 <.LVL54>:
    37d0:	00000513          	li	x10,0

000037d4 <.LVL55>:
    37d4:	00100793          	li	x15,1
    37d8:	ea1ff06f          	j	3678 <.L11>

000037dc <.L54>:
    37dc:	00000993          	li	x19,0

000037e0 <.LVL57>:
    37e0:	7ff00513          	li	x10,2047

000037e4 <.LVL58>:
    37e4:	00200793          	li	x15,2
    37e8:	e91ff06f          	j	3678 <.L11>

000037ec <.L16>:
    37ec:	0199e663          	bltu	x19,x25,37f8 <.L24>
    37f0:	453c9a63          	bne	x25,x19,3c44 <.L25>
    37f4:	44d46863          	bltu	x8,x13,3c44 <.L25>

000037f8 <.L24>:
    37f8:	01fc9713          	slli	x14,x25,0x1f
    37fc:	00145793          	srli	x15,x8,0x1

00003800 <.LVL61>:
    3800:	01f41d93          	slli	x27,x8,0x1f

00003804 <.LVL62>:
    3804:	001cdc93          	srli	x25,x25,0x1

00003808 <.LVL63>:
    3808:	00f76433          	or	x8,x14,x15

0000380c <.L26>:
    380c:	00899593          	slli	x11,x19,0x8
    3810:	0186da93          	srli	x21,x13,0x18

00003814 <.LVL65>:
    3814:	00baeab3          	or	x21,x21,x11

00003818 <.LBB21>:
    3818:	0105db93          	srli	x23,x11,0x10
    381c:	000b8593          	mv	x11,x23
    3820:	010a9c13          	slli	x24,x21,0x10

00003824 <.LVL67>:
    3824:	000c8513          	mv	x10,x25

00003828 <.LBE21>:
    3828:	00869b13          	slli	x22,x13,0x8

0000382c <.LBB23>:
    382c:	010c5c13          	srli	x24,x24,0x10

00003830 <.LVL70>:
    3830:	055000ef          	jal	x1,4084 <__udivsi3>

00003834 <.LVL71>:
    3834:	00050593          	mv	x11,x10
    3838:	00050d13          	mv	x26,x10

0000383c <.LVL72>:
    383c:	000c0513          	mv	x10,x24

00003840 <.LVL73>:
    3840:	019000ef          	jal	x1,4058 <__mulsi3>

00003844 <.LVL74>:
    3844:	00050993          	mv	x19,x10

00003848 <.LVL75>:
    3848:	000b8593          	mv	x11,x23
    384c:	000c8513          	mv	x10,x25

00003850 <.LVL76>:
    3850:	07d000ef          	jal	x1,40cc <__umodsi3>

00003854 <.LVL77>:
    3854:	01051513          	slli	x10,x10,0x10
    3858:	01045713          	srli	x14,x8,0x10
    385c:	00a76733          	or	x14,x14,x10

00003860 <.LVL78>:
    3860:	000d0a13          	mv	x20,x26
    3864:	01377e63          	bgeu	x14,x19,3880 <.L27>
    3868:	01570733          	add	x14,x14,x21

0000386c <.LVL79>:
    386c:	fffd0a13          	addi	x20,x26,-1

00003870 <.LVL80>:
    3870:	01576863          	bltu	x14,x21,3880 <.L27>
    3874:	01377663          	bgeu	x14,x19,3880 <.L27>
    3878:	ffed0a13          	addi	x20,x26,-2
    387c:	01570733          	add	x14,x14,x21

00003880 <.L27>:
    3880:	413709b3          	sub	x19,x14,x19

00003884 <.LVL83>:
    3884:	000b8593          	mv	x11,x23
    3888:	00098513          	mv	x10,x19
    388c:	7f8000ef          	jal	x1,4084 <__udivsi3>

00003890 <.LVL84>:
    3890:	00050593          	mv	x11,x10
    3894:	00050d13          	mv	x26,x10

00003898 <.LVL85>:
    3898:	000c0513          	mv	x10,x24

0000389c <.LVL86>:
    389c:	7bc000ef          	jal	x1,4058 <__mulsi3>

000038a0 <.LVL87>:
    38a0:	00050c93          	mv	x25,x10

000038a4 <.LVL88>:
    38a4:	000b8593          	mv	x11,x23
    38a8:	00098513          	mv	x10,x19

000038ac <.LVL89>:
    38ac:	021000ef          	jal	x1,40cc <__umodsi3>

000038b0 <.LVL90>:
    38b0:	01041413          	slli	x8,x8,0x10

000038b4 <.LVL91>:
    38b4:	01051513          	slli	x10,x10,0x10
    38b8:	01045413          	srli	x8,x8,0x10
    38bc:	00a46433          	or	x8,x8,x10

000038c0 <.LVL92>:
    38c0:	000d0793          	mv	x15,x26
    38c4:	01947e63          	bgeu	x8,x25,38e0 <.L28>
    38c8:	01540433          	add	x8,x8,x21

000038cc <.LVL93>:
    38cc:	fffd0793          	addi	x15,x26,-1

000038d0 <.LVL94>:
    38d0:	01546863          	bltu	x8,x21,38e0 <.L28>
    38d4:	01947663          	bgeu	x8,x25,38e0 <.L28>
    38d8:	ffed0793          	addi	x15,x26,-2
    38dc:	01540433          	add	x8,x8,x21

000038e0 <.L28>:
    38e0:	010a1813          	slli	x16,x20,0x10
    38e4:	00010e37          	lui	x28,0x10
    38e8:	00f86833          	or	x16,x16,x15
    38ec:	41940433          	sub	x8,x8,x25

000038f0 <.LBB24>:
    38f0:	fffe0c93          	addi	x25,x28,-1 # ffff <.L119+0xb35b>

000038f4 <.LVL98>:
    38f4:	019878b3          	and	x17,x16,x25
    38f8:	019b7cb3          	and	x25,x22,x25
    38fc:	01085713          	srli	x14,x16,0x10

00003900 <.LVL99>:
    3900:	010b5d13          	srli	x26,x22,0x10

00003904 <.LBB25>:
    3904:	00088513          	mv	x10,x17
    3908:	000c8593          	mv	x11,x25
    390c:	74c000ef          	jal	x1,4058 <__mulsi3>
    3910:	00050793          	mv	x15,x10

00003914 <.LBB26>:
    3914:	000d0593          	mv	x11,x26
    3918:	00088513          	mv	x10,x17

0000391c <.LVL102>:
    391c:	73c000ef          	jal	x1,4058 <__mulsi3>
    3920:	00050893          	mv	x17,x10

00003924 <.LBB27>:
    3924:	000c8593          	mv	x11,x25
    3928:	00070513          	mv	x10,x14

0000392c <.LVL104>:
    392c:	72c000ef          	jal	x1,4058 <__mulsi3>
    3930:	00050313          	mv	x6,x10

00003934 <.LBB28>:
    3934:	000d0593          	mv	x11,x26
    3938:	00070513          	mv	x10,x14
    393c:	71c000ef          	jal	x1,4058 <__mulsi3>

00003940 <.LBE28>:
    3940:	0107d713          	srli	x14,x15,0x10

00003944 <.LVL106>:
    3944:	006888b3          	add	x17,x17,x6

00003948 <.LVL107>:
    3948:	01170733          	add	x14,x14,x17

0000394c <.LBB29>:
    394c:	00050613          	mv	x12,x10

00003950 <.LBE29>:
    3950:	00677463          	bgeu	x14,x6,3958 <.L29>
    3954:	01c50633          	add	x12,x10,x28

00003958 <.L29>:
    3958:	00010537          	lui	x10,0x10
    395c:	fff50513          	addi	x10,x10,-1 # ffff <.L119+0xb35b>
    3960:	01075693          	srli	x13,x14,0x10
    3964:	00a77a33          	and	x20,x14,x10

00003968 <.LVL110>:
    3968:	010a1a13          	slli	x20,x20,0x10
    396c:	00a7f7b3          	and	x15,x15,x10

00003970 <.LVL111>:
    3970:	00c686b3          	add	x13,x13,x12

00003974 <.LVL112>:
    3974:	00fa0a33          	add	x20,x20,x15

00003978 <.LBE24>:
    3978:	00d46863          	bltu	x8,x13,3988 <.L30>

0000397c <.LBB30>:
    397c:	00080993          	mv	x19,x16

00003980 <.LBE30>:
    3980:	04d41463          	bne	x8,x13,39c8 <.L31>
    3984:	054df263          	bgeu	x27,x20,39c8 <.L31>

00003988 <.L30>:
    3988:	016d8db3          	add	x27,x27,x22

0000398c <.LVL115>:
    398c:	016db7b3          	sltu	x15,x27,x22
    3990:	015787b3          	add	x15,x15,x21
    3994:	00f40433          	add	x8,x8,x15

00003998 <.LBE31>:
    3998:	fff80993          	addi	x19,x16,-1

0000399c <.LBB32>:
    399c:	008ae663          	bltu	x21,x8,39a8 <.L32>
    39a0:	028a9463          	bne	x21,x8,39c8 <.L31>
    39a4:	036de263          	bltu	x27,x22,39c8 <.L31>

000039a8 <.L32>:
    39a8:	00d46663          	bltu	x8,x13,39b4 <.L33>
    39ac:	00869e63          	bne	x13,x8,39c8 <.L31>
    39b0:	014dfc63          	bgeu	x27,x20,39c8 <.L31>

000039b4 <.L33>:
    39b4:	016d8db3          	add	x27,x27,x22

000039b8 <.LVL118>:
    39b8:	016db7b3          	sltu	x15,x27,x22
    39bc:	015787b3          	add	x15,x15,x21

000039c0 <.LBE33>:
    39c0:	ffe80993          	addi	x19,x16,-2

000039c4 <.LBB34>:
    39c4:	00f40433          	add	x8,x8,x15

000039c8 <.L31>:
    39c8:	414d8a33          	sub	x20,x27,x20

000039cc <.LVL121>:
    39cc:	40d40433          	sub	x8,x8,x13

000039d0 <.LVL122>:
    39d0:	014db7b3          	sltu	x15,x27,x20
    39d4:	40f40433          	sub	x8,x8,x15

000039d8 <.LBE35>:
    39d8:	fff00693          	li	x13,-1

000039dc <.LVL124>:
    39dc:	1a8a8263          	beq	x21,x8,3b80 <.L34>

000039e0 <.LBB36>:
    39e0:	000b8593          	mv	x11,x23
    39e4:	00040513          	mv	x10,x8
    39e8:	69c000ef          	jal	x1,4084 <__udivsi3>

000039ec <.LVL126>:
    39ec:	00050593          	mv	x11,x10
    39f0:	00a12623          	sw	x10,12(x2)
    39f4:	000c0513          	mv	x10,x24

000039f8 <.LVL127>:
    39f8:	660000ef          	jal	x1,4058 <__mulsi3>

000039fc <.LVL128>:
    39fc:	00a12423          	sw	x10,8(x2)

00003a00 <.LVL129>:
    3a00:	000b8593          	mv	x11,x23
    3a04:	00040513          	mv	x10,x8

00003a08 <.LVL130>:
    3a08:	6c4000ef          	jal	x1,40cc <__umodsi3>

00003a0c <.LVL131>:
    3a0c:	00c12683          	lw	x13,12(x2)
    3a10:	00812703          	lw	x14,8(x2)
    3a14:	01051513          	slli	x10,x10,0x10
    3a18:	010a5793          	srli	x15,x20,0x10
    3a1c:	00a7e7b3          	or	x15,x15,x10

00003a20 <.LVL132>:
    3a20:	00068d93          	mv	x27,x13
    3a24:	00e7fe63          	bgeu	x15,x14,3a40 <.L35>
    3a28:	015787b3          	add	x15,x15,x21

00003a2c <.LVL133>:
    3a2c:	fff68d93          	addi	x27,x13,-1

00003a30 <.LVL134>:
    3a30:	0157e863          	bltu	x15,x21,3a40 <.L35>
    3a34:	00e7f663          	bgeu	x15,x14,3a40 <.L35>
    3a38:	ffe68d93          	addi	x27,x13,-2
    3a3c:	015787b3          	add	x15,x15,x21

00003a40 <.L35>:
    3a40:	40e78433          	sub	x8,x15,x14

00003a44 <.LVL137>:
    3a44:	000b8593          	mv	x11,x23
    3a48:	00040513          	mv	x10,x8
    3a4c:	638000ef          	jal	x1,4084 <__udivsi3>

00003a50 <.LVL138>:
    3a50:	00050593          	mv	x11,x10
    3a54:	00a12423          	sw	x10,8(x2)

00003a58 <.LVL139>:
    3a58:	000c0513          	mv	x10,x24

00003a5c <.LVL140>:
    3a5c:	5fc000ef          	jal	x1,4058 <__mulsi3>

00003a60 <.LVL141>:
    3a60:	00050c13          	mv	x24,x10

00003a64 <.LVL142>:
    3a64:	000b8593          	mv	x11,x23
    3a68:	00040513          	mv	x10,x8

00003a6c <.LVL143>:
    3a6c:	660000ef          	jal	x1,40cc <__umodsi3>

00003a70 <.LVL144>:
    3a70:	00812703          	lw	x14,8(x2)
    3a74:	010a1a13          	slli	x20,x20,0x10

00003a78 <.LVL145>:
    3a78:	01051793          	slli	x15,x10,0x10
    3a7c:	010a5a13          	srli	x20,x20,0x10
    3a80:	00fa67b3          	or	x15,x20,x15

00003a84 <.LVL146>:
    3a84:	00070693          	mv	x13,x14
    3a88:	0187fe63          	bgeu	x15,x24,3aa4 <.L36>
    3a8c:	015787b3          	add	x15,x15,x21

00003a90 <.LVL147>:
    3a90:	fff70693          	addi	x13,x14,-1

00003a94 <.LVL148>:
    3a94:	0157e863          	bltu	x15,x21,3aa4 <.L36>
    3a98:	0187f663          	bgeu	x15,x24,3aa4 <.L36>
    3a9c:	ffe70693          	addi	x13,x14,-2
    3aa0:	015787b3          	add	x15,x15,x21

00003aa4 <.L36>:
    3aa4:	010d9813          	slli	x16,x27,0x10
    3aa8:	00d86833          	or	x16,x16,x13
    3aac:	01081893          	slli	x17,x16,0x10
    3ab0:	0108d893          	srli	x17,x17,0x10
    3ab4:	418787b3          	sub	x15,x15,x24

00003ab8 <.LBB37>:
    3ab8:	01085713          	srli	x14,x16,0x10

00003abc <.LBB38>:
    3abc:	00088513          	mv	x10,x17
    3ac0:	000c8593          	mv	x11,x25
    3ac4:	594000ef          	jal	x1,4058 <__mulsi3>

00003ac8 <.LVL153>:
    3ac8:	00050313          	mv	x6,x10

00003acc <.LBB39>:
    3acc:	000d0593          	mv	x11,x26
    3ad0:	00088513          	mv	x10,x17
    3ad4:	584000ef          	jal	x1,4058 <__mulsi3>
    3ad8:	00050893          	mv	x17,x10

00003adc <.LBB40>:
    3adc:	000c8593          	mv	x11,x25
    3ae0:	00070513          	mv	x10,x14

00003ae4 <.LVL156>:
    3ae4:	574000ef          	jal	x1,4058 <__mulsi3>
    3ae8:	00050e13          	mv	x28,x10

00003aec <.LBB41>:
    3aec:	000d0593          	mv	x11,x26
    3af0:	00070513          	mv	x10,x14

00003af4 <.LVL158>:
    3af4:	564000ef          	jal	x1,4058 <__mulsi3>

00003af8 <.LBE41>:
    3af8:	01035713          	srli	x14,x6,0x10

00003afc <.LVL159>:
    3afc:	01c888b3          	add	x17,x17,x28

00003b00 <.LVL160>:
    3b00:	01170733          	add	x14,x14,x17

00003b04 <.LBB42>:
    3b04:	00050693          	mv	x13,x10

00003b08 <.LBE42>:
    3b08:	01c77663          	bgeu	x14,x28,3b14 <.L37>
    3b0c:	00010637          	lui	x12,0x10
    3b10:	00c506b3          	add	x13,x10,x12

00003b14 <.L37>:
    3b14:	00010537          	lui	x10,0x10
    3b18:	fff50513          	addi	x10,x10,-1 # ffff <.L119+0xb35b>
    3b1c:	01075613          	srli	x12,x14,0x10
    3b20:	00a77733          	and	x14,x14,x10

00003b24 <.LVL163>:
    3b24:	01071713          	slli	x14,x14,0x10
    3b28:	00a37533          	and	x10,x6,x10
    3b2c:	00d60633          	add	x12,x12,x13

00003b30 <.LVL164>:
    3b30:	00a70533          	add	x10,x14,x10

00003b34 <.LBE37>:
    3b34:	00c7e863          	bltu	x15,x12,3b44 <.L38>
    3b38:	24c79a63          	bne	x15,x12,3d8c <.L39>

00003b3c <.LBB43>:
    3b3c:	00080693          	mv	x13,x16

00003b40 <.LBE43>:
    3b40:	04050063          	beqz	x10,3b80 <.L34>

00003b44 <.L38>:
    3b44:	00fa87b3          	add	x15,x21,x15

00003b48 <.LBE44>:
    3b48:	fff80693          	addi	x13,x16,-1

00003b4c <.LBB45>:
    3b4c:	0357e463          	bltu	x15,x21,3b74 <.L40>
    3b50:	00c7e663          	bltu	x15,x12,3b5c <.L41>
    3b54:	22c79a63          	bne	x15,x12,3d88 <.L65>
    3b58:	02ab7063          	bgeu	x22,x10,3b78 <.L42>

00003b5c <.L41>:
    3b5c:	001b1713          	slli	x14,x22,0x1
    3b60:	01673b33          	sltu	x22,x14,x22

00003b64 <.LVL169>:
    3b64:	015b0ab3          	add	x21,x22,x21

00003b68 <.LBE46>:
    3b68:	ffe80693          	addi	x13,x16,-2

00003b6c <.LBB47>:
    3b6c:	015787b3          	add	x15,x15,x21

00003b70 <.LVL172>:
    3b70:	00070b13          	mv	x22,x14

00003b74 <.L40>:
    3b74:	00c79463          	bne	x15,x12,3b7c <.L43>

00003b78 <.L42>:
    3b78:	00ab0463          	beq	x22,x10,3b80 <.L34>

00003b7c <.L43>:
    3b7c:	0016e693          	ori	x13,x13,1

00003b80 <.L34>:
    3b80:	3ff90793          	addi	x15,x18,1023

00003b84 <.LVL177>:
    3b84:	12f05063          	blez	x15,3ca4 <.L44>
    3b88:	0076f713          	andi	x14,x13,7
    3b8c:	02070063          	beqz	x14,3bac <.L45>
    3b90:	00f6f713          	andi	x14,x13,15
    3b94:	00400613          	li	x12,4
    3b98:	00c70a63          	beq	x14,x12,3bac <.L45>

00003b9c <.LBB49>:
    3b9c:	00468613          	addi	x12,x13,4

00003ba0 <.LVL178>:
    3ba0:	00d636b3          	sltu	x13,x12,x13

00003ba4 <.LVL179>:
    3ba4:	00d989b3          	add	x19,x19,x13

00003ba8 <.LVL180>:
    3ba8:	00060693          	mv	x13,x12

00003bac <.L45>:
    3bac:	01000737          	lui	x14,0x1000
    3bb0:	00e9f733          	and	x14,x19,x14
    3bb4:	00070a63          	beqz	x14,3bc8 <.L46>
    3bb8:	ff0007b7          	lui	x15,0xff000

00003bbc <.LVL182>:
    3bbc:	fff78793          	addi	x15,x15,-1 # feffffff <seed1_volatile+0xfefbf93f>
    3bc0:	00f9f9b3          	and	x19,x19,x15
    3bc4:	40090793          	addi	x15,x18,1024

00003bc8 <.L46>:
    3bc8:	7fe00713          	li	x14,2046
    3bcc:	0af74663          	blt	x14,x15,3c78 <.L69>
    3bd0:	0036d693          	srli	x13,x13,0x3

00003bd4 <.LVL185>:
    3bd4:	01d99713          	slli	x14,x19,0x1d

00003bd8 <.LVL186>:
    3bd8:	00d76733          	or	x14,x14,x13

00003bdc <.LVL187>:
    3bdc:	0039d593          	srli	x11,x19,0x3

00003be0 <.L23>:
    3be0:	01479793          	slli	x15,x15,0x14

00003be4 <.LVL189>:
    3be4:	7ff006b7          	lui	x13,0x7ff00
    3be8:	00c59593          	slli	x11,x11,0xc

00003bec <.LBE52>:
    3bec:	04c12083          	lw	x1,76(x2)
    3bf0:	04812403          	lw	x8,72(x2)

00003bf4 <.LBB53>:
    3bf4:	00d7f7b3          	and	x15,x15,x13
    3bf8:	00c5d593          	srli	x11,x11,0xc
    3bfc:	00b7e5b3          	or	x11,x15,x11
    3c00:	01f49493          	slli	x9,x9,0x1f

00003c04 <.LVL191>:
    3c04:	0095e7b3          	or	x15,x11,x9

00003c08 <.LBE53>:
    3c08:	04012903          	lw	x18,64(x2)
    3c0c:	04412483          	lw	x9,68(x2)
    3c10:	03c12983          	lw	x19,60(x2)
    3c14:	03812a03          	lw	x20,56(x2)
    3c18:	03412a83          	lw	x21,52(x2)
    3c1c:	03012b03          	lw	x22,48(x2)
    3c20:	02c12b83          	lw	x23,44(x2)
    3c24:	02812c03          	lw	x24,40(x2)
    3c28:	02412c83          	lw	x25,36(x2)
    3c2c:	02012d03          	lw	x26,32(x2)
    3c30:	01c12d83          	lw	x27,28(x2)
    3c34:	00070513          	mv	x10,x14
    3c38:	00078593          	mv	x11,x15
    3c3c:	05010113          	addi	x2,x2,80
    3c40:	00008067          	ret

00003c44 <.L25>:
    3c44:	fff90913          	addi	x18,x18,-1

00003c48 <.LVL194>:
    3c48:	00000d93          	li	x27,0
    3c4c:	bc1ff06f          	j	380c <.L26>

00003c50 <.L19>:
    3c50:	000a8493          	mv	x9,x21

00003c54 <.LBE55>:
    3c54:	000c8993          	mv	x19,x25

00003c58 <.LVL197>:
    3c58:	00040693          	mv	x13,x8

00003c5c <.LVL198>:
    3c5c:	000c0793          	mv	x15,x24

00003c60 <.L17>:
    3c60:	00300713          	li	x14,3
    3c64:	0ee78a63          	beq	x15,x14,3d58 <.L66>
    3c68:	00100713          	li	x14,1
    3c6c:	10e78063          	beq	x15,x14,3d6c <.L70>
    3c70:	00200713          	li	x14,2
    3c74:	f0e796e3          	bne	x15,x14,3b80 <.L34>

00003c78 <.L69>:
    3c78:	00000593          	li	x11,0
    3c7c:	00000713          	li	x14,0
    3c80:	7ff00793          	li	x15,2047
    3c84:	f5dff06f          	j	3be0 <.L23>

00003c88 <.L20>:
    3c88:	000b0493          	mv	x9,x22

00003c8c <.LBE56>:
    3c8c:	fd5ff06f          	j	3c60 <.L17>

00003c90 <.L56>:
    3c90:	000809b7          	lui	x19,0x80

00003c94 <.LVL204>:
    3c94:	00000693          	li	x13,0

00003c98 <.LVL205>:
    3c98:	00000493          	li	x9,0

00003c9c <.LVL206>:
    3c9c:	00300793          	li	x15,3

00003ca0 <.LVL207>:
    3ca0:	fc1ff06f          	j	3c60 <.L17>

00003ca4 <.L44>:
    3ca4:	00100593          	li	x11,1
    3ca8:	40f585b3          	sub	x11,x11,x15

00003cac <.LVL209>:
    3cac:	03800713          	li	x14,56
    3cb0:	0ab74e63          	blt	x14,x11,3d6c <.L70>
    3cb4:	01f00713          	li	x14,31
    3cb8:	06b74663          	blt	x14,x11,3d24 <.L47>
    3cbc:	41e90913          	addi	x18,x18,1054
    3cc0:	012997b3          	sll	x15,x19,x18
    3cc4:	00b6d733          	srl	x14,x13,x11
    3cc8:	01269933          	sll	x18,x13,x18
    3ccc:	00e7e7b3          	or	x15,x15,x14
    3cd0:	01203933          	snez	x18,x18
    3cd4:	0127e7b3          	or	x15,x15,x18

00003cd8 <.LVL210>:
    3cd8:	00b9d5b3          	srl	x11,x19,x11

00003cdc <.L48>:
    3cdc:	0077f713          	andi	x14,x15,7
    3ce0:	02070063          	beqz	x14,3d00 <.L50>
    3ce4:	00f7f713          	andi	x14,x15,15
    3ce8:	00400693          	li	x13,4
    3cec:	00d70a63          	beq	x14,x13,3d00 <.L50>

00003cf0 <.LBB59>:
    3cf0:	00478713          	addi	x14,x15,4

00003cf4 <.LVL212>:
    3cf4:	00f737b3          	sltu	x15,x14,x15

00003cf8 <.LVL213>:
    3cf8:	00f585b3          	add	x11,x11,x15

00003cfc <.LVL214>:
    3cfc:	00070793          	mv	x15,x14

00003d00 <.L50>:
    3d00:	00800737          	lui	x14,0x800
    3d04:	00e5f733          	and	x14,x11,x14
    3d08:	06071863          	bnez	x14,3d78 <.L72>

00003d0c <.LVL216>:
    3d0c:	01d59713          	slli	x14,x11,0x1d
    3d10:	0037d793          	srli	x15,x15,0x3

00003d14 <.LVL217>:
    3d14:	00f76733          	or	x14,x14,x15

00003d18 <.LVL218>:
    3d18:	0035d593          	srli	x11,x11,0x3

00003d1c <.L87>:
    3d1c:	00000793          	li	x15,0
    3d20:	ec1ff06f          	j	3be0 <.L23>

00003d24 <.L47>:
    3d24:	fe100713          	li	x14,-31
    3d28:	40f707b3          	sub	x15,x14,x15
    3d2c:	02000613          	li	x12,32
    3d30:	00f9d7b3          	srl	x15,x19,x15
    3d34:	00000713          	li	x14,0
    3d38:	00c58663          	beq	x11,x12,3d44 <.L49>
    3d3c:	43e90713          	addi	x14,x18,1086
    3d40:	00e99733          	sll	x14,x19,x14

00003d44 <.L49>:
    3d44:	00d76733          	or	x14,x14,x13
    3d48:	00e03733          	snez	x14,x14
    3d4c:	00e7e7b3          	or	x15,x15,x14

00003d50 <.LVL221>:
    3d50:	00000593          	li	x11,0

00003d54 <.LVL222>:
    3d54:	f89ff06f          	j	3cdc <.L48>

00003d58 <.L66>:
    3d58:	000805b7          	lui	x11,0x80
    3d5c:	00000713          	li	x14,0
    3d60:	7ff00793          	li	x15,2047
    3d64:	00000493          	li	x9,0

00003d68 <.LVL224>:
    3d68:	e79ff06f          	j	3be0 <.L23>

00003d6c <.L70>:
    3d6c:	00000593          	li	x11,0
    3d70:	00000713          	li	x14,0
    3d74:	fa9ff06f          	j	3d1c <.L87>

00003d78 <.L72>:
    3d78:	00000593          	li	x11,0

00003d7c <.LVL227>:
    3d7c:	00000713          	li	x14,0
    3d80:	00100793          	li	x15,1

00003d84 <.LVL228>:
    3d84:	e5dff06f          	j	3be0 <.L23>

00003d88 <.L65>:
    3d88:	00068813          	mv	x16,x13

00003d8c <.L39>:
    3d8c:	00080693          	mv	x13,x16
    3d90:	dedff06f          	j	3b7c <.L43>

00003d94 <__gedf2>:
    3d94:	00100737          	lui	x14,0x100
    3d98:	fff70713          	addi	x14,x14,-1 # fffff <seed1_volatile+0xbf93f>
    3d9c:	0145d813          	srli	x16,x11,0x14
    3da0:	00b778b3          	and	x17,x14,x11

00003da4 <.LBE2>:
    3da4:	00050793          	mv	x15,x10
    3da8:	00050313          	mv	x6,x10

00003dac <.LBB3>:
    3dac:	7ff87813          	andi	x16,x16,2047
    3db0:	01f5d513          	srli	x10,x11,0x1f

00003db4 <.LBB4>:
    3db4:	7ff00e93          	li	x29,2047

00003db8 <.LBB5>:
    3db8:	0146d593          	srli	x11,x13,0x14
    3dbc:	00d77733          	and	x14,x14,x13
    3dc0:	00060e13          	mv	x28,x12

00003dc4 <.LVL4>:
    3dc4:	7ff5f593          	andi	x11,x11,2047
    3dc8:	01f6d693          	srli	x13,x13,0x1f

00003dcc <.LBE5>:
    3dcc:	01d81a63          	bne	x16,x29,3de0 <.L2>
    3dd0:	00f8eeb3          	or	x29,x17,x15
    3dd4:	080e8a63          	beqz	x29,3e68 <.L34>

00003dd8 <.L23>:
    3dd8:	ffe00513          	li	x10,-2

00003ddc <.LVL7>:
    3ddc:	00008067          	ret

00003de0 <.L2>:
    3de0:	01d59663          	bne	x11,x29,3dec <.L5>

00003de4 <.L21>:
    3de4:	00c76eb3          	or	x29,x14,x12
    3de8:	fe0e98e3          	bnez	x29,3dd8 <.L23>

00003dec <.L5>:
    3dec:	08081063          	bnez	x16,3e6c <.L6>
    3df0:	00f8e7b3          	or	x15,x17,x15
    3df4:	0017b793          	seqz	x15,x15

00003df8 <.LVL9>:
    3df8:	00059663          	bnez	x11,3e04 <.L7>

00003dfc <.L20>:
    3dfc:	00c76633          	or	x12,x14,x12

00003e00 <.LVL11>:
    3e00:	04060c63          	beqz	x12,3e58 <.L8>

00003e04 <.L7>:
    3e04:	00079c63          	bnez	x15,3e1c <.L16>

00003e08 <.L17>:
    3e08:	00d51463          	bne	x10,x13,3e10 <.L13>
    3e0c:	0305d063          	bge	x11,x16,3e2c <.L11>

00003e10 <.L13>:
    3e10:	04050063          	beqz	x10,3e50 <.L29>

00003e14 <.L31>:
    3e14:	fff00513          	li	x10,-1

00003e18 <.LVL15>:
    3e18:	00008067          	ret

00003e1c <.L16>:
    3e1c:	fff00513          	li	x10,-1

00003e20 <.LVL17>:
    3e20:	00068a63          	beqz	x13,3e34 <.L1>
    3e24:	00068513          	mv	x10,x13
    3e28:	00008067          	ret

00003e2c <.L11>:
    3e2c:	00b85663          	bge	x16,x11,3e38 <.L12>

00003e30 <.L19>:
    3e30:	fe0502e3          	beqz	x10,3e14 <.L31>

00003e34 <.L1>:
    3e34:	00008067          	ret

00003e38 <.L12>:
    3e38:	fd176ce3          	bltu	x14,x17,3e10 <.L13>
    3e3c:	02e89263          	bne	x17,x14,3e60 <.L14>
    3e40:	fc6e68e3          	bltu	x28,x6,3e10 <.L13>
    3e44:	ffc366e3          	bltu	x6,x28,3e30 <.L19>

00003e48 <.L39>:
    3e48:	00000513          	li	x10,0

00003e4c <.LVL22>:
    3e4c:	00008067          	ret

00003e50 <.L29>:
    3e50:	00100513          	li	x10,1

00003e54 <.LVL24>:
    3e54:	00008067          	ret

00003e58 <.L8>:
    3e58:	fe0798e3          	bnez	x15,3e48 <.L39>
    3e5c:	fb5ff06f          	j	3e10 <.L13>

00003e60 <.L14>:
    3e60:	fce8e8e3          	bltu	x17,x14,3e30 <.L19>
    3e64:	fe5ff06f          	j	3e48 <.L39>

00003e68 <.L34>:
    3e68:	f7058ee3          	beq	x11,x16,3de4 <.L21>

00003e6c <.L6>:
    3e6c:	f8059ee3          	bnez	x11,3e08 <.L17>
    3e70:	00000793          	li	x15,0
    3e74:	f89ff06f          	j	3dfc <.L20>

00003e78 <__ledf2>:
    3e78:	00100737          	lui	x14,0x100
    3e7c:	fff70713          	addi	x14,x14,-1 # fffff <seed1_volatile+0xbf93f>
    3e80:	0145d813          	srli	x16,x11,0x14
    3e84:	00b778b3          	and	x17,x14,x11

00003e88 <.LBE2>:
    3e88:	00050793          	mv	x15,x10
    3e8c:	00050313          	mv	x6,x10

00003e90 <.LBB3>:
    3e90:	7ff87813          	andi	x16,x16,2047
    3e94:	01f5d513          	srli	x10,x11,0x1f

00003e98 <.LBB4>:
    3e98:	7ff00e93          	li	x29,2047

00003e9c <.LBB5>:
    3e9c:	0146d593          	srli	x11,x13,0x14
    3ea0:	00d77733          	and	x14,x14,x13
    3ea4:	00060e13          	mv	x28,x12

00003ea8 <.LVL4>:
    3ea8:	7ff5f593          	andi	x11,x11,2047
    3eac:	01f6d693          	srli	x13,x13,0x1f

00003eb0 <.LBE5>:
    3eb0:	01d81a63          	bne	x16,x29,3ec4 <.L2>
    3eb4:	00f8eeb3          	or	x29,x17,x15
    3eb8:	080e8a63          	beqz	x29,3f4c <.L34>

00003ebc <.L23>:
    3ebc:	00200513          	li	x10,2

00003ec0 <.LVL7>:
    3ec0:	00008067          	ret

00003ec4 <.L2>:
    3ec4:	01d59663          	bne	x11,x29,3ed0 <.L5>

00003ec8 <.L21>:
    3ec8:	00c76eb3          	or	x29,x14,x12
    3ecc:	fe0e98e3          	bnez	x29,3ebc <.L23>

00003ed0 <.L5>:
    3ed0:	08081063          	bnez	x16,3f50 <.L6>
    3ed4:	00f8e7b3          	or	x15,x17,x15
    3ed8:	0017b793          	seqz	x15,x15

00003edc <.LVL9>:
    3edc:	00059663          	bnez	x11,3ee8 <.L7>

00003ee0 <.L20>:
    3ee0:	00c76633          	or	x12,x14,x12

00003ee4 <.LVL11>:
    3ee4:	04060c63          	beqz	x12,3f3c <.L8>

00003ee8 <.L7>:
    3ee8:	00079c63          	bnez	x15,3f00 <.L16>

00003eec <.L17>:
    3eec:	00d51463          	bne	x10,x13,3ef4 <.L13>
    3ef0:	0305d063          	bge	x11,x16,3f10 <.L11>

00003ef4 <.L13>:
    3ef4:	04050063          	beqz	x10,3f34 <.L29>

00003ef8 <.L31>:
    3ef8:	fff00513          	li	x10,-1

00003efc <.LVL15>:
    3efc:	00008067          	ret

00003f00 <.L16>:
    3f00:	fff00513          	li	x10,-1

00003f04 <.LVL17>:
    3f04:	00068a63          	beqz	x13,3f18 <.L1>
    3f08:	00068513          	mv	x10,x13
    3f0c:	00008067          	ret

00003f10 <.L11>:
    3f10:	00b85663          	bge	x16,x11,3f1c <.L12>

00003f14 <.L19>:
    3f14:	fe0502e3          	beqz	x10,3ef8 <.L31>

00003f18 <.L1>:
    3f18:	00008067          	ret

00003f1c <.L12>:
    3f1c:	fd176ce3          	bltu	x14,x17,3ef4 <.L13>
    3f20:	02e89263          	bne	x17,x14,3f44 <.L14>
    3f24:	fc6e68e3          	bltu	x28,x6,3ef4 <.L13>
    3f28:	ffc366e3          	bltu	x6,x28,3f14 <.L19>

00003f2c <.L39>:
    3f2c:	00000513          	li	x10,0

00003f30 <.LVL22>:
    3f30:	00008067          	ret

00003f34 <.L29>:
    3f34:	00100513          	li	x10,1

00003f38 <.LVL24>:
    3f38:	00008067          	ret

00003f3c <.L8>:
    3f3c:	fe0798e3          	bnez	x15,3f2c <.L39>
    3f40:	fb5ff06f          	j	3ef4 <.L13>

00003f44 <.L14>:
    3f44:	fce8e8e3          	bltu	x17,x14,3f14 <.L19>
    3f48:	fe5ff06f          	j	3f2c <.L39>

00003f4c <.L34>:
    3f4c:	f7058ee3          	beq	x11,x16,3ec8 <.L21>

00003f50 <.L6>:
    3f50:	f8059ee3          	bnez	x11,3eec <.L17>
    3f54:	00000793          	li	x15,0
    3f58:	f89ff06f          	j	3ee0 <.L20>

00003f5c <__fixunsdfsi>:
    3f5c:	0145d713          	srli	x14,x11,0x14
    3f60:	00100837          	lui	x16,0x100
    3f64:	fff80793          	addi	x15,x16,-1 # fffff <seed1_volatile+0xbf93f>
    3f68:	7ff77713          	andi	x14,x14,2047

00003f6c <.LBE2>:
    3f6c:	3fe00613          	li	x12,1022

00003f70 <.LBB3>:
    3f70:	00b7f7b3          	and	x15,x15,x11

00003f74 <.LBE3>:
    3f74:	00050693          	mv	x13,x10

00003f78 <.LBB4>:
    3f78:	01f5d593          	srli	x11,x11,0x1f

00003f7c <.LBE4>:
    3f7c:	04e65a63          	bge	x12,x14,3fd0 <.L6>
    3f80:	41f00613          	li	x12,1055
    3f84:	40b60633          	sub	x12,x12,x11
    3f88:	fff58513          	addi	x10,x11,-1 # 7ffff <seed1_volatile+0x3f93f>

00003f8c <.LVL3>:
    3f8c:	04c75463          	bge	x14,x12,3fd4 <.L1>
    3f90:	00000513          	li	x10,0
    3f94:	04059063          	bnez	x11,3fd4 <.L1>

00003f98 <.LBB5>:
    3f98:	43300513          	li	x10,1075
    3f9c:	40e50533          	sub	x10,x10,x14
    3fa0:	01f00613          	li	x12,31
    3fa4:	0107e7b3          	or	x15,x15,x16
    3fa8:	00a64c63          	blt	x12,x10,3fc0 <.L5>

00003fac <.LVL6>:
    3fac:	bed70713          	addi	x14,x14,-1043

00003fb0 <.LVL7>:
    3fb0:	00e797b3          	sll	x15,x15,x14

00003fb4 <.LVL8>:
    3fb4:	00a6d533          	srl	x10,x13,x10
    3fb8:	00a7e533          	or	x10,x15,x10

00003fbc <.LVL9>:
    3fbc:	00008067          	ret

00003fc0 <.L5>:
    3fc0:	41300513          	li	x10,1043
    3fc4:	40e50533          	sub	x10,x10,x14
    3fc8:	00a7d533          	srl	x10,x15,x10

00003fcc <.LVL11>:
    3fcc:	00008067          	ret

00003fd0 <.L6>:
    3fd0:	00000513          	li	x10,0

00003fd4 <.L1>:
    3fd4:	00008067          	ret

00003fd8 <__floatunsidf>:
    3fd8:	ff010113          	addi	x2,x2,-16
    3fdc:	00812423          	sw	x8,8(x2)
    3fe0:	00112623          	sw	x1,12(x2)
    3fe4:	00050413          	mv	x8,x10

00003fe8 <.LBB10>:
    3fe8:	06050263          	beqz	x10,404c <.L4>

00003fec <.LBB3>:
    3fec:	144000ef          	jal	x1,4130 <__clzsi2>

00003ff0 <.LVL2>:
    3ff0:	41e00713          	li	x14,1054

00003ff4 <.LBE4>:
    3ff4:	00a00793          	li	x15,10

00003ff8 <.LBB5>:
    3ff8:	40a70733          	sub	x14,x14,x10

00003ffc <.LBE5>:
    3ffc:	04a7c063          	blt	x15,x10,403c <.L3>
    4000:	00b00793          	li	x15,11
    4004:	40a787b3          	sub	x15,x15,x10
    4008:	01550513          	addi	x10,x10,21

0000400c <.LVL4>:
    400c:	00f457b3          	srl	x15,x8,x15

00004010 <.LVL5>:
    4010:	00a41433          	sll	x8,x8,x10

00004014 <.L2>:
    4014:	00c12083          	lw	x1,12(x2)
    4018:	00040513          	mv	x10,x8

0000401c <.LBB12>:
    401c:	00c79793          	slli	x15,x15,0xc

00004020 <.LBE12>:
    4020:	00812403          	lw	x8,8(x2)

00004024 <.LBB13>:
    4024:	01471713          	slli	x14,x14,0x14

00004028 <.LVL9>:
    4028:	00c7d793          	srli	x15,x15,0xc
    402c:	00f766b3          	or	x13,x14,x15

00004030 <.LBE13>:
    4030:	00068593          	mv	x11,x13
    4034:	01010113          	addi	x2,x2,16
    4038:	00008067          	ret

0000403c <.L3>:
    403c:	ff550793          	addi	x15,x10,-11
    4040:	00f417b3          	sll	x15,x8,x15

00004044 <.LVL12>:
    4044:	00000413          	li	x8,0

00004048 <.LVL13>:
    4048:	fcdff06f          	j	4014 <.L2>

0000404c <.L4>:
    404c:	00000793          	li	x15,0
    4050:	00000713          	li	x14,0
    4054:	fc1ff06f          	j	4014 <.L2>

00004058 <__mulsi3>:
    4058:	00050613          	mv	x12,x10
    405c:	00000513          	li	x10,0

00004060 <.L1>:
    4060:	0015f693          	andi	x13,x11,1
    4064:	00068463          	beqz	x13,406c <.L2>
    4068:	00c50533          	add	x10,x10,x12

0000406c <.L2>:
    406c:	0015d593          	srli	x11,x11,0x1
    4070:	00161613          	slli	x12,x12,0x1
    4074:	fe0596e3          	bnez	x11,4060 <.L1>
    4078:	00008067          	ret

0000407c <__divsi3>:
    407c:	06054063          	bltz	x10,40dc <.L10>
    4080:	0605c663          	bltz	x11,40ec <.L11>

00004084 <__udivsi3>:
    4084:	00058613          	mv	x12,x11
    4088:	00050593          	mv	x11,x10
    408c:	fff00513          	li	x10,-1
    4090:	02060c63          	beqz	x12,40c8 <.L5>
    4094:	00100693          	li	x13,1
    4098:	00b67a63          	bgeu	x12,x11,40ac <.L2>

0000409c <.L1>:
    409c:	00c05863          	blez	x12,40ac <.L2>
    40a0:	00161613          	slli	x12,x12,0x1
    40a4:	00169693          	slli	x13,x13,0x1
    40a8:	feb66ae3          	bltu	x12,x11,409c <.L1>

000040ac <.L2>:
    40ac:	00000513          	li	x10,0

000040b0 <.L3>:
    40b0:	00c5e663          	bltu	x11,x12,40bc <.L4>
    40b4:	40c585b3          	sub	x11,x11,x12
    40b8:	00d56533          	or	x10,x10,x13

000040bc <.L4>:
    40bc:	0016d693          	srli	x13,x13,0x1
    40c0:	00165613          	srli	x12,x12,0x1
    40c4:	fe0696e3          	bnez	x13,40b0 <.L3>

000040c8 <.L5>:
    40c8:	00008067          	ret

000040cc <__umodsi3>:
    40cc:	00008293          	mv	x5,x1
    40d0:	fb5ff0ef          	jal	x1,4084 <__udivsi3>
    40d4:	00058513          	mv	x10,x11
    40d8:	00028067          	jr	x5 # 358c <.L1^B3>

000040dc <.L10>:
    40dc:	40a00533          	neg	x10,x10
    40e0:	00b04863          	bgtz	x11,40f0 <.L12>
    40e4:	40b005b3          	neg	x11,x11
    40e8:	f9dff06f          	j	4084 <__udivsi3>

000040ec <.L11>:
    40ec:	40b005b3          	neg	x11,x11

000040f0 <.L12>:
    40f0:	00008293          	mv	x5,x1
    40f4:	f91ff0ef          	jal	x1,4084 <__udivsi3>
    40f8:	40a00533          	neg	x10,x10
    40fc:	00028067          	jr	x5

00004100 <__modsi3>:
    4100:	00008293          	mv	x5,x1
    4104:	0005ca63          	bltz	x11,4118 <.L31>
    4108:	00054c63          	bltz	x10,4120 <.L32>

0000410c <.L30>:
    410c:	f79ff0ef          	jal	x1,4084 <__udivsi3>
    4110:	00058513          	mv	x10,x11
    4114:	00028067          	jr	x5

00004118 <.L31>:
    4118:	40b005b3          	neg	x11,x11
    411c:	fe0558e3          	bgez	x10,410c <.L30>

00004120 <.L32>:
    4120:	40a00533          	neg	x10,x10
    4124:	f61ff0ef          	jal	x1,4084 <__udivsi3>
    4128:	40b00533          	neg	x10,x11
    412c:	00028067          	jr	x5

00004130 <__clzsi2>:
    4130:	000107b7          	lui	x15,0x10
    4134:	02f57a63          	bgeu	x10,x15,4168 <.L2>
    4138:	0ff00793          	li	x15,255
    413c:	00a7b7b3          	sltu	x15,x15,x10
    4140:	00379793          	slli	x15,x15,0x3

00004144 <.L3>:
    4144:	00040737          	lui	x14,0x40
    4148:	02000693          	li	x13,32
    414c:	40f686b3          	sub	x13,x13,x15
    4150:	00f55533          	srl	x10,x10,x15

00004154 <.LVL2>:
    4154:	0b070793          	addi	x15,x14,176 # 400b0 <__clz_tab>

00004158 <.LVL3>:
    4158:	00a78533          	add	x10,x15,x10
    415c:	00054503          	lbu	x10,0(x10)

00004160 <.LBE3>:
    4160:	40a68533          	sub	x10,x13,x10
    4164:	00008067          	ret

00004168 <.L2>:
    4168:	01000737          	lui	x14,0x1000
    416c:	01000793          	li	x15,16
    4170:	fce56ae3          	bltu	x10,x14,4144 <.L3>
    4174:	01800793          	li	x15,24
    4178:	fcdff06f          	j	4144 <.L3>

Disassembly of section .text.startup:

0000417c <main>:
    417c:	81010113          	addi	x2,x2,-2032
    4180:	00001737          	lui	x14,0x1
    4184:	7e112623          	sw	x1,2028(x2)
    4188:	7e812423          	sw	x8,2024(x2)
    418c:	7e912223          	sw	x9,2020(x2)
    4190:	7f212023          	sw	x18,2016(x2)
    4194:	7d312e23          	sw	x19,2012(x2)
    4198:	7d412c23          	sw	x20,2008(x2)
    419c:	7d512a23          	sw	x21,2004(x2)
    41a0:	7d612823          	sw	x22,2000(x2)
    41a4:	7d712623          	sw	x23,1996(x2)
    41a8:	7d812423          	sw	x24,1992(x2)
    41ac:	7d912223          	sw	x25,1988(x2)
    41b0:	7da12023          	sw	x26,1984(x2)
    41b4:	7bb12e23          	sw	x27,1980(x2)
    41b8:	fffff7b7          	lui	x15,0xfffff
    41bc:	f8010113          	addi	x2,x2,-128
    41c0:	83070713          	addi	x14,x14,-2000 # 830 <.L134+0x1c>
    41c4:	00270733          	add	x14,x14,x2
    41c8:	7dc78793          	addi	x15,x15,2012 # fffff7dc <seed1_volatile+0xfffbf11c>
    41cc:	00058613          	mv	x12,x11
    41d0:	00a12623          	sw	x10,12(x2)
    41d4:	00f705b3          	add	x11,x14,x15
    41d8:	05e10513          	addi	x10,x2,94
    41dc:	d58fe0ef          	jal	x1,2734 <portable_init>
    41e0:	00100513          	li	x10,1
    41e4:	e4dfb0ef          	jal	x1,30 <get_seed_32>
    41e8:	00050793          	mv	x15,x10
    41ec:	00200513          	li	x10,2
    41f0:	00f11e23          	sh	x15,28(x2)
    41f4:	e3dfb0ef          	jal	x1,30 <get_seed_32>
    41f8:	00050793          	mv	x15,x10
    41fc:	00300513          	li	x10,3
    4200:	00f11f23          	sh	x15,30(x2)
    4204:	e2dfb0ef          	jal	x1,30 <get_seed_32>
    4208:	00050793          	mv	x15,x10
    420c:	00400513          	li	x10,4
    4210:	02f11023          	sh	x15,32(x2)
    4214:	e1dfb0ef          	jal	x1,30 <get_seed_32>
    4218:	00050793          	mv	x15,x10
    421c:	00500513          	li	x10,5
    4220:	02f12c23          	sw	x15,56(x2)
    4224:	e0dfb0ef          	jal	x1,30 <get_seed_32>
    4228:	080508e3          	beqz	x10,4ab8 <.L14>
    422c:	02a12e23          	sw	x10,60(x2)

00004230 <.L15>:
    4230:	00001737          	lui	x14,0x1
    4234:	83070713          	addi	x14,x14,-2000 # 830 <.L134+0x1c>
    4238:	fffff7b7          	lui	x15,0xfffff
    423c:	00270733          	add	x14,x14,x2
    4240:	00f707b3          	add	x15,x14,x15
    4244:	00f12223          	sw	x15,4(x2)
    4248:	7ec7a783          	lw	x15,2028(x15) # fffff7ec <seed1_volatile+0xfffbf12c>
    424c:	02079ee3          	bnez	x15,4a88 <.L16>
    4250:	00412783          	lw	x15,4(x2)
    4254:	7f079783          	lh	x15,2032(x15)
    4258:	0e078ce3          	beqz	x15,4b50 <.L121>

0000425c <.L17>:
    425c:	03c12403          	lw	x8,60(x2)
    4260:	00001737          	lui	x14,0x1
    4264:	83070713          	addi	x14,x14,-2000 # 830 <.L134+0x1c>
    4268:	00270733          	add	x14,x14,x2
    426c:	fffff7b7          	lui	x15,0xfffff
    4270:	00247493          	andi	x9,x8,2
    4274:	00f707b3          	add	x15,x14,x15
    4278:	00147a93          	andi	x21,x8,1
    427c:	00903933          	snez	x18,x9
    4280:	06010713          	addi	x14,x2,96
    4284:	012a8933          	add	x18,x21,x18
    4288:	00f12223          	sw	x15,4(x2)
    428c:	7ee7aa23          	sw	x14,2036(x15) # fffff7f4 <seed1_volatile+0xfffbf134>
    4290:	04011e23          	sh	x0,92(x2)
    4294:	00447a13          	andi	x20,x8,4
    4298:	000a8b13          	mv	x22,x21
    429c:	00190593          	addi	x11,x18,1
    42a0:	000a1463          	bnez	x20,42a8 <.L69>
    42a4:	00090593          	mv	x11,x18

000042a8 <.L69>:
    42a8:	7d000513          	li	x10,2000
    42ac:	dd9ff0ef          	jal	x1,4084 <__udivsi3>
    42b0:	02a12a23          	sw	x10,52(x2)
    42b4:	00050993          	mv	x19,x10
    42b8:	fffff7b7          	lui	x15,0xfffff
    42bc:	000b14e3          	bnez	x22,4ac4 <.L122>
    42c0:	040494e3          	bnez	x9,4b08 <.L123>

000042c4 <.L19>:
    42c4:	020a12e3          	bnez	x20,4ae8 <.L124>

000042c8 <.L20>:
    42c8:	360b1263          	bnez	x22,462c <.L125>

000042cc <.L21>:
    42cc:	38049c63          	bnez	x9,4664 <.L126>

000042d0 <.L22>:
    42d0:	00447413          	andi	x8,x8,4
    42d4:	02040663          	beqz	x8,4300 <.L23>
    42d8:	00001737          	lui	x14,0x1
    42dc:	83070713          	addi	x14,x14,-2000 # 830 <.L134+0x1c>
    42e0:	fffff7b7          	lui	x15,0xfffff
    42e4:	00270733          	add	x14,x14,x2
    42e8:	00f707b3          	add	x15,x14,x15
    42ec:	03012603          	lw	x12,48(x2)
    42f0:	7ec79583          	lh	x11,2028(x15) # fffff7ec <seed1_volatile+0xfffbf12c>
    42f4:	03412503          	lw	x10,52(x2)
    42f8:	00f12223          	sw	x15,4(x2)
    42fc:	f99fc0ef          	jal	x1,1294 <core_init_state>

00004300 <.L23>:
    4300:	03812783          	lw	x15,56(x2)
    4304:	0e079663          	bnez	x15,43f0 <.L24>
    4308:	000407b7          	lui	x15,0x40
    430c:	6a07a903          	lw	x18,1696(x15) # 406a0 <.LC0>
    4310:	6a47a983          	lw	x19,1700(x15)
    4314:	00100793          	li	x15,1
    4318:	02f12c23          	sw	x15,56(x2)
    431c:	000017b7          	lui	x15,0x1
    4320:	fffff4b7          	lui	x9,0xfffff
    4324:	83078793          	addi	x15,x15,-2000 # 830 <.L134+0x1c>
    4328:	7ec48493          	addi	x9,x9,2028 # fffff7ec <seed1_volatile+0xfffbf12c>
    432c:	002787b3          	add	x15,x15,x2
    4330:	009784b3          	add	x9,x15,x9

00004334 <.L26>:
    4334:	03812703          	lw	x14,56(x2)
    4338:	00000413          	li	x8,0
    433c:	00271793          	slli	x15,x14,0x2
    4340:	00e787b3          	add	x15,x15,x14
    4344:	00179793          	slli	x15,x15,0x1
    4348:	02f12c23          	sw	x15,56(x2)
    434c:	bacfe0ef          	jal	x1,26f8 <start_time>
    4350:	03812a03          	lw	x20,56(x2)
    4354:	04012a23          	sw	x0,84(x2)
    4358:	04012c23          	sw	x0,88(x2)
    435c:	040a0263          	beqz	x20,43a0 <.L30>

00004360 <.L25>:
    4360:	00100593          	li	x11,1
    4364:	00048513          	mv	x10,x9
    4368:	9d5fd0ef          	jal	x1,1d3c <core_bench_list>
    436c:	05415583          	lhu	x11,84(x2)
    4370:	e61fb0ef          	jal	x1,1d0 <crcu16>
    4374:	00050793          	mv	x15,x10
    4378:	fff00593          	li	x11,-1
    437c:	00048513          	mv	x10,x9
    4380:	04f11a23          	sh	x15,84(x2)
    4384:	9b9fd0ef          	jal	x1,1d3c <core_bench_list>
    4388:	05415583          	lhu	x11,84(x2)
    438c:	e45fb0ef          	jal	x1,1d0 <crcu16>
    4390:	04a11a23          	sh	x10,84(x2)
    4394:	30040a63          	beqz	x8,46a8 <.L127>
    4398:	00140413          	addi	x8,x8,1
    439c:	fc8a12e3          	bne	x20,x8,4360 <.L25>

000043a0 <.L30>:
    43a0:	b64fe0ef          	jal	x1,2704 <stop_time>
    43a4:	b6cfe0ef          	jal	x1,2710 <get_time>
    43a8:	b80fe0ef          	jal	x1,2728 <time_in_secs>
    43ac:	00090613          	mv	x12,x18
    43b0:	00098693          	mv	x13,x19
    43b4:	00050a13          	mv	x20,x10
    43b8:	00058413          	mv	x8,x11
    43bc:	abdff0ef          	jal	x1,3e78 <__ledf2>
    43c0:	f6054ae3          	bltz	x10,4334 <.L26>
    43c4:	00040593          	mv	x11,x8
    43c8:	000a0513          	mv	x10,x20
    43cc:	b91ff0ef          	jal	x1,3f5c <__fixunsdfsi>
    43d0:	00050593          	mv	x11,x10
    43d4:	78050663          	beqz	x10,4b60 <.L128>

000043d8 <.L31>:
    43d8:	00a00513          	li	x10,10
    43dc:	ca9ff0ef          	jal	x1,4084 <__udivsi3>
    43e0:	03812583          	lw	x11,56(x2)
    43e4:	00150513          	addi	x10,x10,1
    43e8:	c71ff0ef          	jal	x1,4058 <__mulsi3>
    43ec:	02a12c23          	sw	x10,56(x2)

000043f0 <.L24>:
    43f0:	00040537          	lui	x10,0x40
    43f4:	26050513          	addi	x10,x10,608 # 40260 <.LC1>
    43f8:	b1dfc0ef          	jal	x1,f14 <ee_printf>
    43fc:	afcfe0ef          	jal	x1,26f8 <start_time>
    4400:	000404b7          	lui	x9,0x40
    4404:	00000593          	li	x11,0
    4408:	26848513          	addi	x10,x9,616 # 40268 <.LC2>
    440c:	b09fc0ef          	jal	x1,f14 <ee_printf>
    4410:	00001937          	lui	x18,0x1
    4414:	fffff437          	lui	x8,0xfffff
    4418:	83090793          	addi	x15,x18,-2000 # 830 <.L134+0x1c>
    441c:	002787b3          	add	x15,x15,x2
    4420:	7ec40513          	addi	x10,x8,2028 # fffff7ec <seed1_volatile+0xfffbf12c>
    4424:	00a78533          	add	x10,x15,x10
    4428:	b20fe0ef          	jal	x1,2748 <iterate>
    442c:	ad8fe0ef          	jal	x1,2704 <stop_time>
    4430:	00040537          	lui	x10,0x40
    4434:	26c50513          	addi	x10,x10,620 # 4026c <.LC3>
    4438:	addfc0ef          	jal	x1,f14 <ee_printf>
    443c:	00000593          	li	x11,0
    4440:	26848513          	addi	x10,x9,616
    4444:	ad1fc0ef          	jal	x1,f14 <ee_printf>
    4448:	ac8fe0ef          	jal	x1,2710 <get_time>
    444c:	83090793          	addi	x15,x18,-2000
    4450:	002787b3          	add	x15,x15,x2
    4454:	008787b3          	add	x15,x15,x8
    4458:	00050a13          	mv	x20,x10
    445c:	7ec79503          	lh	x10,2028(x15)
    4460:	00000593          	li	x11,0
    4464:	00f12223          	sw	x15,4(x2)
    4468:	d08fc0ef          	jal	x1,970 <crc16>
    446c:	00412783          	lw	x15,4(x2)
    4470:	00050593          	mv	x11,x10
    4474:	7ee79503          	lh	x10,2030(x15)
    4478:	cf8fc0ef          	jal	x1,970 <crc16>
    447c:	00412783          	lw	x15,4(x2)
    4480:	00050593          	mv	x11,x10
    4484:	7f079503          	lh	x10,2032(x15)
    4488:	ce8fc0ef          	jal	x1,970 <crc16>
    448c:	00050593          	mv	x11,x10
    4490:	03411503          	lh	x10,52(x2)
    4494:	cdcfc0ef          	jal	x1,970 <crc16>
    4498:	000087b7          	lui	x15,0x8
    449c:	b0578793          	addi	x15,x15,-1275 # 7b05 <.L119+0x2e61>
    44a0:	00050913          	mv	x18,x10
    44a4:	76f50063          	beq	x10,x15,4c04 <.L32>
    44a8:	24a7e063          	bltu	x15,x10,46e8 <.L33>
    44ac:	000027b7          	lui	x15,0x2
    44b0:	8f278793          	addi	x15,x15,-1806 # 18f2 <.L118+0x32>
    44b4:	78f50263          	beq	x10,x15,4c38 <.L34>
    44b8:	00005b37          	lui	x22,0x5
    44bc:	eafb0793          	addi	x15,x22,-337 # 4eaf <.L119+0x20b>
    44c0:	7ef51263          	bne	x10,x15,4ca4 <.L119>
    44c4:	00040537          	lui	x10,0x40
    44c8:	2d050513          	addi	x10,x10,720 # 402d0 <.LC6>
    44cc:	a49fc0ef          	jal	x1,f14 <ee_printf>
    44d0:	608b0b13          	addi	x22,x22,1544
    44d4:	0000e9b7          	lui	x19,0xe
    44d8:	00007ab7          	lui	x21,0x7
    44dc:	00200793          	li	x15,2
    44e0:	5a498993          	addi	x19,x19,1444 # e5a4 <.L119+0x9900>
    44e4:	000b0c13          	mv	x24,x22
    44e8:	a79a8a93          	addi	x21,x21,-1415 # 6a79 <.L119+0x1dd5>
    44ec:	00f12423          	sw	x15,8(x2)

000044f0 <.L39>:
    44f0:	00040bb7          	lui	x23,0x40
    44f4:	05cba783          	lw	x15,92(x23) # 4005c <default_num_contexts>
    44f8:	00000d13          	li	x26,0
    44fc:	00000d93          	li	x27,0
    4500:	22078863          	beqz	x15,4730 <.L115>
    4504:	00001737          	lui	x14,0x1
    4508:	83070713          	addi	x14,x14,-2000 # 830 <.L134+0x1c>
    450c:	fffff7b7          	lui	x15,0xfffff
    4510:	00270733          	add	x14,x14,x2
    4514:	00f707b3          	add	x15,x14,x15
    4518:	00f12223          	sw	x15,4(x2)
    451c:	00001cb7          	lui	x25,0x1
    4520:	0440006f          	j	4564 <.L45>

00004524 <.L129>:
    4524:	00412783          	lw	x15,4(x2)
    4528:	01b406b3          	add	x13,x8,x27
    452c:	00269693          	slli	x13,x13,0x2
    4530:	00d786b3          	add	x13,x15,x13
    4534:	00dc86b3          	add	x13,x25,x13
    4538:	82c6d683          	lhu	x13,-2004(x13) # 7feff82c <seed1_volatile+0x7febf16c>

0000453c <.L43>:
    453c:	001d8593          	addi	x11,x27,1
    4540:	05cba603          	lw	x12,92(x23)
    4544:	01a68833          	add	x16,x13,x26
    4548:	01059d93          	slli	x27,x11,0x10
    454c:	01081413          	slli	x8,x16,0x10
    4550:	01081d13          	slli	x26,x16,0x10
    4554:	010ddd93          	srli	x27,x27,0x10
    4558:	01045413          	srli	x8,x8,0x10
    455c:	410d5d13          	srai	x26,x26,0x10
    4560:	1ccdfa63          	bgeu	x27,x12,4734 <.L36>

00004564 <.L45>:
    4564:	00412783          	lw	x15,4(x2)
    4568:	004d9413          	slli	x8,x27,0x4
    456c:	01b404b3          	add	x9,x8,x27
    4570:	00249493          	slli	x9,x9,0x2
    4574:	009784b3          	add	x9,x15,x9
    4578:	009c84b3          	add	x9,x25,x9
    457c:	80c4a683          	lw	x13,-2036(x9)
    4580:	82049623          	sh	x0,-2004(x9)
    4584:	0016f693          	andi	x13,x13,1
    4588:	02068663          	beqz	x13,45b4 <.L40>
    458c:	8264d603          	lhu	x12,-2010(x9)
    4590:	03560263          	beq	x12,x21,45b4 <.L40>
    4594:	000407b7          	lui	x15,0x40
    4598:	000a8693          	mv	x13,x21
    459c:	000d8593          	mv	x11,x27
    45a0:	36078513          	addi	x10,x15,864 # 40360 <.LC9>
    45a4:	971fc0ef          	jal	x1,f14 <ee_printf>
    45a8:	82c4d683          	lhu	x13,-2004(x9)
    45ac:	00168693          	addi	x13,x13,1
    45b0:	82d49623          	sh	x13,-2004(x9)

000045b4 <.L40>:
    45b4:	00412783          	lw	x15,4(x2)
    45b8:	01b404b3          	add	x9,x8,x27
    45bc:	00249493          	slli	x9,x9,0x2
    45c0:	009784b3          	add	x9,x15,x9
    45c4:	009c84b3          	add	x9,x25,x9
    45c8:	80c4a683          	lw	x13,-2036(x9)
    45cc:	0026f613          	andi	x12,x13,2
    45d0:	02060863          	beqz	x12,4600 <.L41>
    45d4:	8284d603          	lhu	x12,-2008(x9)
    45d8:	03860463          	beq	x12,x24,4600 <.L41>
    45dc:	000407b7          	lui	x15,0x40
    45e0:	000b0693          	mv	x13,x22
    45e4:	000d8593          	mv	x11,x27
    45e8:	38c78513          	addi	x10,x15,908 # 4038c <.LC10>
    45ec:	929fc0ef          	jal	x1,f14 <ee_printf>
    45f0:	82c4d603          	lhu	x12,-2004(x9)
    45f4:	80c4a683          	lw	x13,-2036(x9)
    45f8:	00160613          	addi	x12,x12,1 # 10001 <.L119+0xb35d>
    45fc:	82c49623          	sh	x12,-2004(x9)

00004600 <.L41>:
    4600:	0046f693          	andi	x13,x13,4
    4604:	f20680e3          	beqz	x13,4524 <.L129>
    4608:	00412783          	lw	x15,4(x2)
    460c:	01b40433          	add	x8,x8,x27
    4610:	00241413          	slli	x8,x8,0x2
    4614:	00878433          	add	x8,x15,x8
    4618:	008c8433          	add	x8,x25,x8
    461c:	82a45603          	lhu	x12,-2006(x8)
    4620:	09361e63          	bne	x12,x19,46bc <.L44>
    4624:	82c45683          	lhu	x13,-2004(x8)
    4628:	f15ff06f          	j	453c <.L43>

0000462c <.L125>:
    462c:	00001737          	lui	x14,0x1
    4630:	83070713          	addi	x14,x14,-2000 # 830 <.L134+0x1c>
    4634:	00270733          	add	x14,x14,x2
    4638:	fffff7b7          	lui	x15,0xfffff
    463c:	00f707b3          	add	x15,x14,x15
    4640:	7ec79603          	lh	x12,2028(x15) # fffff7ec <seed1_volatile+0xfffbf12c>
    4644:	7f87a583          	lw	x11,2040(x15)
    4648:	00098513          	mv	x10,x19
    464c:	00f12223          	sw	x15,4(x2)
    4650:	b71fd0ef          	jal	x1,21c0 <core_list_init>
    4654:	03c12403          	lw	x8,60(x2)
    4658:	04a12023          	sw	x10,64(x2)
    465c:	00247493          	andi	x9,x8,2
    4660:	c60488e3          	beqz	x9,42d0 <.L22>

00004664 <.L126>:
    4664:	00001737          	lui	x14,0x1
    4668:	83070713          	addi	x14,x14,-2000 # 830 <.L134+0x1c>
    466c:	00270733          	add	x14,x14,x2
    4670:	fffff7b7          	lui	x15,0xfffff
    4674:	00f707b3          	add	x15,x14,x15
    4678:	00f12223          	sw	x15,4(x2)
    467c:	00412703          	lw	x14,4(x2)
    4680:	7ee79783          	lh	x15,2030(x15) # fffff7ee <seed1_volatile+0xfffbf12e>
    4684:	03412503          	lw	x10,52(x2)
    4688:	7ec71603          	lh	x12,2028(x14)
    468c:	7fc72583          	lw	x11,2044(x14)
    4690:	01079793          	slli	x15,x15,0x10
    4694:	04410693          	addi	x13,x2,68
    4698:	00c7e633          	or	x12,x15,x12
    469c:	f6cfe0ef          	jal	x1,2e08 <core_init_matrix>
    46a0:	03c12403          	lw	x8,60(x2)
    46a4:	c2dff06f          	j	42d0 <.L22>

000046a8 <.L127>:
    46a8:	04a11b23          	sh	x10,86(x2)
    46ac:	00100793          	li	x15,1
    46b0:	cefa08e3          	beq	x20,x15,43a0 <.L30>
    46b4:	00100413          	li	x8,1
    46b8:	ca9ff06f          	j	4360 <.L25>

000046bc <.L44>:
    46bc:	000407b7          	lui	x15,0x40
    46c0:	00098693          	mv	x13,x19
    46c4:	000d8593          	mv	x11,x27
    46c8:	3bc78513          	addi	x10,x15,956 # 403bc <.LC11>
    46cc:	849fc0ef          	jal	x1,f14 <ee_printf>
    46d0:	82c45683          	lhu	x13,-2004(x8)
    46d4:	00168693          	addi	x13,x13,1
    46d8:	01069693          	slli	x13,x13,0x10
    46dc:	0106d693          	srli	x13,x13,0x10
    46e0:	82d41623          	sh	x13,-2004(x8)
    46e4:	e59ff06f          	j	453c <.L43>

000046e8 <.L33>:
    46e8:	000099b7          	lui	x19,0x9
    46ec:	a0298793          	addi	x15,x19,-1534 # 8a02 <.L119+0x3d5e>
    46f0:	56f50c63          	beq	x10,x15,4c68 <.L37>
    46f4:	0000f7b7          	lui	x15,0xf
    46f8:	9f578793          	addi	x15,x15,-1547 # e9f5 <.L119+0x9d51>
    46fc:	5af51463          	bne	x10,x15,4ca4 <.L119>
    4700:	00040537          	lui	x10,0x40
    4704:	30450513          	addi	x10,x10,772 # 40304 <.LC7>
    4708:	80dfc0ef          	jal	x1,f14 <ee_printf>
    470c:	00002b37          	lui	x22,0x2
    4710:	fd7b0b13          	addi	x22,x22,-41 # 1fd7 <.L71+0x1b>
    4714:	0000eab7          	lui	x21,0xe
    4718:	00300793          	li	x15,3
    471c:	e3a98993          	addi	x19,x19,-454
    4720:	000b0c13          	mv	x24,x22
    4724:	714a8a93          	addi	x21,x21,1812 # e714 <.L119+0x9a70>
    4728:	00f12423          	sw	x15,8(x2)
    472c:	dc5ff06f          	j	44f0 <.L39>

00004730 <.L115>:
    4730:	00000413          	li	x8,0

00004734 <.L36>:
    4734:	cc8fc0ef          	jal	x1,bfc <check_data_types>
    4738:	03412583          	lw	x11,52(x2)
    473c:	00a40433          	add	x8,x8,x10
    4740:	00040537          	lui	x10,0x40
    4744:	3e850513          	addi	x10,x10,1000 # 403e8 <.LC12>
    4748:	fccfc0ef          	jal	x1,f14 <ee_printf>
    474c:	00040537          	lui	x10,0x40
    4750:	000a0593          	mv	x11,x20
    4754:	40850513          	addi	x10,x10,1032 # 40408 <.LC13>
    4758:	fbcfc0ef          	jal	x1,f14 <ee_printf>
    475c:	000a0513          	mv	x10,x20
    4760:	fc9fd0ef          	jal	x1,2728 <time_in_secs>
    4764:	00050613          	mv	x12,x10
    4768:	00040537          	lui	x10,0x40
    476c:	00058693          	mv	x13,x11
    4770:	42850513          	addi	x10,x10,1064 # 40428 <.LC14>
    4774:	fa0fc0ef          	jal	x1,f14 <ee_printf>
    4778:	000a0513          	mv	x10,x20
    477c:	fadfd0ef          	jal	x1,2728 <time_in_secs>
    4780:	01041413          	slli	x8,x8,0x10
    4784:	00000613          	li	x12,0
    4788:	00000693          	li	x13,0
    478c:	01045413          	srli	x8,x8,0x10
    4790:	e04ff0ef          	jal	x1,3d94 <__gedf2>
    4794:	04a05663          	blez	x10,47e0 <.L46>
    4798:	05cba583          	lw	x11,92(x23)
    479c:	03812503          	lw	x10,56(x2)
    47a0:	8b9ff0ef          	jal	x1,4058 <__mulsi3>
    47a4:	835ff0ef          	jal	x1,3fd8 <__floatunsidf>
    47a8:	00050993          	mv	x19,x10
    47ac:	000a0513          	mv	x10,x20
    47b0:	00058493          	mv	x9,x11
    47b4:	f75fd0ef          	jal	x1,2728 <time_in_secs>
    47b8:	00050613          	mv	x12,x10
    47bc:	00058693          	mv	x13,x11
    47c0:	00098513          	mv	x10,x19
    47c4:	00048593          	mv	x11,x9
    47c8:	dedfe0ef          	jal	x1,35b4 <__divdf3>
    47cc:	00050613          	mv	x12,x10
    47d0:	00040537          	lui	x10,0x40
    47d4:	00058693          	mv	x13,x11
    47d8:	44050513          	addi	x10,x10,1088 # 40440 <.LC15>
    47dc:	f38fc0ef          	jal	x1,f14 <ee_printf>

000047e0 <.L46>:
    47e0:	000a0513          	mv	x10,x20
    47e4:	f45fd0ef          	jal	x1,2728 <time_in_secs>
    47e8:	000407b7          	lui	x15,0x40
    47ec:	6a87a603          	lw	x12,1704(x15) # 406a8 <.LC16>
    47f0:	6ac7a683          	lw	x13,1708(x15)
    47f4:	e84ff0ef          	jal	x1,3e78 <__ledf2>
    47f8:	3e054c63          	bltz	x10,4bf0 <.L48>

000047fc <.L120>:
    47fc:	05cba583          	lw	x11,92(x23)
    4800:	03812503          	lw	x10,56(x2)
    4804:	00040ab7          	lui	x21,0x40
    4808:	00040b37          	lui	x22,0x40
    480c:	84dff0ef          	jal	x1,4058 <__mulsi3>
    4810:	00050593          	mv	x11,x10
    4814:	00040537          	lui	x10,0x40
    4818:	49850513          	addi	x10,x10,1176 # 40498 <.LC18>
    481c:	ef8fc0ef          	jal	x1,f14 <ee_printf>
    4820:	00040537          	lui	x10,0x40
    4824:	4b0a8593          	addi	x11,x21,1200 # 404b0 <.LC19>
    4828:	4bc50513          	addi	x10,x10,1212 # 404bc <.LC20>
    482c:	ee8fc0ef          	jal	x1,f14 <ee_printf>
    4830:	00040537          	lui	x10,0x40
    4834:	4d4b0593          	addi	x11,x22,1236 # 404d4 <.LC21>
    4838:	4d850513          	addi	x10,x10,1240 # 404d8 <.LC22>
    483c:	ed8fc0ef          	jal	x1,f14 <ee_printf>
    4840:	00040c37          	lui	x24,0x40
    4844:	00040537          	lui	x10,0x40
    4848:	4f0c0593          	addi	x11,x24,1264 # 404f0 <.LC23>
    484c:	4f850513          	addi	x10,x10,1272 # 404f8 <.LC24>
    4850:	ec4fc0ef          	jal	x1,f14 <ee_printf>
    4854:	00040537          	lui	x10,0x40
    4858:	00090593          	mv	x11,x18
    485c:	51050513          	addi	x10,x10,1296 # 40510 <.LC25>
    4860:	eb4fc0ef          	jal	x1,f14 <ee_printf>
    4864:	03c12783          	lw	x15,60(x2)
    4868:	01041413          	slli	x8,x8,0x10
    486c:	41045413          	srai	x8,x8,0x10
    4870:	0017f693          	andi	x13,x15,1
    4874:	06068863          	beqz	x13,48e4 <.L53>
    4878:	05cba683          	lw	x13,92(x23)
    487c:	06068463          	beqz	x13,48e4 <.L53>
    4880:	00001737          	lui	x14,0x1
    4884:	83070713          	addi	x14,x14,-2000 # 830 <.L134+0x1c>
    4888:	fffff7b7          	lui	x15,0xfffff
    488c:	00270733          	add	x14,x14,x2
    4890:	00f707b3          	add	x15,x14,x15
    4894:	00000993          	li	x19,0
    4898:	00040937          	lui	x18,0x40
    489c:	00f12223          	sw	x15,4(x2)
    48a0:	000014b7          	lui	x9,0x1

000048a4 <.L54>:
    48a4:	00412703          	lw	x14,4(x2)
    48a8:	00499793          	slli	x15,x19,0x4
    48ac:	013787b3          	add	x15,x15,x19
    48b0:	00279793          	slli	x15,x15,0x2
    48b4:	00f707b3          	add	x15,x14,x15
    48b8:	00f487b3          	add	x15,x9,x15
    48bc:	8267d603          	lhu	x12,-2010(x15) # ffffe826 <seed1_volatile+0xfffbe166>
    48c0:	00098593          	mv	x11,x19
    48c4:	52c90513          	addi	x10,x18,1324 # 4052c <.LC26>
    48c8:	e4cfc0ef          	jal	x1,f14 <ee_printf>
    48cc:	00198993          	addi	x19,x19,1
    48d0:	05cba783          	lw	x15,92(x23)
    48d4:	01099993          	slli	x19,x19,0x10
    48d8:	0109d993          	srli	x19,x19,0x10
    48dc:	fcf9e4e3          	bltu	x19,x15,48a4 <.L54>
    48e0:	03c12783          	lw	x15,60(x2)

000048e4 <.L53>:
    48e4:	0027f693          	andi	x13,x15,2
    48e8:	06068863          	beqz	x13,4958 <.L52>
    48ec:	05cba683          	lw	x13,92(x23)
    48f0:	3a068463          	beqz	x13,4c98 <.L57>
    48f4:	00001737          	lui	x14,0x1
    48f8:	83070713          	addi	x14,x14,-2000 # 830 <.L134+0x1c>
    48fc:	fffff7b7          	lui	x15,0xfffff
    4900:	00270733          	add	x14,x14,x2
    4904:	00f707b3          	add	x15,x14,x15
    4908:	00000993          	li	x19,0
    490c:	00040937          	lui	x18,0x40
    4910:	00f12223          	sw	x15,4(x2)
    4914:	000014b7          	lui	x9,0x1

00004918 <.L58>:
    4918:	00412703          	lw	x14,4(x2)
    491c:	00499793          	slli	x15,x19,0x4
    4920:	013787b3          	add	x15,x15,x19
    4924:	00279793          	slli	x15,x15,0x2
    4928:	00f707b3          	add	x15,x14,x15
    492c:	00f487b3          	add	x15,x9,x15
    4930:	8287d603          	lhu	x12,-2008(x15) # ffffe828 <seed1_volatile+0xfffbe168>
    4934:	00098593          	mv	x11,x19
    4938:	54890513          	addi	x10,x18,1352 # 40548 <.LC27>
    493c:	dd8fc0ef          	jal	x1,f14 <ee_printf>
    4940:	00198993          	addi	x19,x19,1
    4944:	05cba783          	lw	x15,92(x23)
    4948:	01099993          	slli	x19,x19,0x10
    494c:	0109d993          	srli	x19,x19,0x10
    4950:	fcf9e4e3          	bltu	x19,x15,4918 <.L58>
    4954:	03c12783          	lw	x15,60(x2)

00004958 <.L52>:
    4958:	0047f793          	andi	x15,x15,4
    495c:	06078663          	beqz	x15,49c8 <.L56>
    4960:	05cba783          	lw	x15,92(x23)
    4964:	0c078263          	beqz	x15,4a28 <.L60>
    4968:	00001737          	lui	x14,0x1
    496c:	83070713          	addi	x14,x14,-2000 # 830 <.L134+0x1c>
    4970:	fffff7b7          	lui	x15,0xfffff
    4974:	00270733          	add	x14,x14,x2
    4978:	00f707b3          	add	x15,x14,x15
    497c:	00000993          	li	x19,0
    4980:	00040937          	lui	x18,0x40
    4984:	00f12223          	sw	x15,4(x2)
    4988:	000014b7          	lui	x9,0x1

0000498c <.L61>:
    498c:	00412703          	lw	x14,4(x2)
    4990:	00499793          	slli	x15,x19,0x4
    4994:	013787b3          	add	x15,x15,x19
    4998:	00279793          	slli	x15,x15,0x2
    499c:	00f707b3          	add	x15,x14,x15
    49a0:	00f487b3          	add	x15,x9,x15
    49a4:	82a7d603          	lhu	x12,-2006(x15) # ffffe82a <seed1_volatile+0xfffbe16a>
    49a8:	00098593          	mv	x11,x19
    49ac:	56490513          	addi	x10,x18,1380 # 40564 <.LC28>
    49b0:	d64fc0ef          	jal	x1,f14 <ee_printf>
    49b4:	00198993          	addi	x19,x19,1
    49b8:	05cba783          	lw	x15,92(x23)
    49bc:	01099993          	slli	x19,x19,0x10
    49c0:	0109d993          	srli	x19,x19,0x10
    49c4:	fcf9e4e3          	bltu	x19,x15,498c <.L61>

000049c8 <.L56>:
    49c8:	00001737          	lui	x14,0x1
    49cc:	05cba783          	lw	x15,92(x23)
    49d0:	83070713          	addi	x14,x14,-2000 # 830 <.L134+0x1c>
    49d4:	fffff4b7          	lui	x9,0xfffff
    49d8:	00270733          	add	x14,x14,x2
    49dc:	00000c93          	li	x25,0
    49e0:	000409b7          	lui	x19,0x40
    49e4:	009704b3          	add	x9,x14,x9
    49e8:	00001937          	lui	x18,0x1
    49ec:	02078e63          	beqz	x15,4a28 <.L60>

000049f0 <.L59>:
    49f0:	004c9793          	slli	x15,x25,0x4
    49f4:	019787b3          	add	x15,x15,x25
    49f8:	00279793          	slli	x15,x15,0x2
    49fc:	00f487b3          	add	x15,x9,x15
    4a00:	00f907b3          	add	x15,x18,x15
    4a04:	8247d603          	lhu	x12,-2012(x15)
    4a08:	000c8593          	mv	x11,x25
    4a0c:	58098513          	addi	x10,x19,1408 # 40580 <.LC29>
    4a10:	d04fc0ef          	jal	x1,f14 <ee_printf>
    4a14:	001c8c93          	addi	x25,x25,1 # 1001 <.LLST53+0x3a>
    4a18:	05cba783          	lw	x15,92(x23)
    4a1c:	010c9c93          	slli	x25,x25,0x10
    4a20:	010cdc93          	srli	x25,x25,0x10
    4a24:	fcfce6e3          	bltu	x25,x15,49f0 <.L59>

00004a28 <.L60>:
    4a28:	14040063          	beqz	x8,4b68 <.L130>
    4a2c:	10805a63          	blez	x8,4b40 <.L65>
    4a30:	00040537          	lui	x10,0x40
    4a34:	60c50513          	addi	x10,x10,1548 # 4060c <.LC34>
    4a38:	cdcfc0ef          	jal	x1,f14 <ee_printf>

00004a3c <.L66>:
    4a3c:	05e10513          	addi	x10,x2,94
    4a40:	d01fd0ef          	jal	x1,2740 <portable_fini>
    4a44:	08010113          	addi	x2,x2,128
    4a48:	7ec12083          	lw	x1,2028(x2)
    4a4c:	7e812403          	lw	x8,2024(x2)
    4a50:	7e412483          	lw	x9,2020(x2)
    4a54:	7e012903          	lw	x18,2016(x2)
    4a58:	7dc12983          	lw	x19,2012(x2)
    4a5c:	7d812a03          	lw	x20,2008(x2)
    4a60:	7d412a83          	lw	x21,2004(x2)
    4a64:	7d012b03          	lw	x22,2000(x2)
    4a68:	7cc12b83          	lw	x23,1996(x2)
    4a6c:	7c812c03          	lw	x24,1992(x2)
    4a70:	7c412c83          	lw	x25,1988(x2)
    4a74:	7c012d03          	lw	x26,1984(x2)
    4a78:	7bc12d83          	lw	x27,1980(x2)
    4a7c:	00000513          	li	x10,0
    4a80:	7f010113          	addi	x2,x2,2032
    4a84:	00008067          	ret

00004a88 <.L16>:
    4a88:	00100713          	li	x14,1
    4a8c:	fce79863          	bne	x15,x14,425c <.L17>
    4a90:	00412783          	lw	x15,4(x2)
    4a94:	7f079783          	lh	x15,2032(x15)
    4a98:	fc079263          	bnez	x15,425c <.L17>
    4a9c:	00412703          	lw	x14,4(x2)
    4aa0:	341537b7          	lui	x15,0x34153
    4aa4:	41578793          	addi	x15,x15,1045 # 34153415 <seed1_volatile+0x34112d55>
    4aa8:	7ef72623          	sw	x15,2028(x14)
    4aac:	06600793          	li	x15,102
    4ab0:	7ef71823          	sh	x15,2032(x14)
    4ab4:	fa8ff06f          	j	425c <.L17>

00004ab8 <.L14>:
    4ab8:	00700793          	li	x15,7
    4abc:	02f12e23          	sw	x15,60(x2)
    4ac0:	f70ff06f          	j	4230 <.L15>

00004ac4 <.L122>:
    4ac4:	00001737          	lui	x14,0x1
    4ac8:	83070713          	addi	x14,x14,-2000 # 830 <.L134+0x1c>
    4acc:	00270733          	add	x14,x14,x2
    4ad0:	00f707b3          	add	x15,x14,x15
    4ad4:	06010713          	addi	x14,x2,96
    4ad8:	00f12223          	sw	x15,4(x2)
    4adc:	7ee7ac23          	sw	x14,2040(x15)
    4ae0:	fe048263          	beqz	x9,42c4 <.L19>
    4ae4:	0240006f          	j	4b08 <.L123>

00004ae8 <.L124>:
    4ae8:	00098593          	mv	x11,x19
    4aec:	00090513          	mv	x10,x18
    4af0:	d68ff0ef          	jal	x1,4058 <__mulsi3>
    4af4:	06010793          	addi	x15,x2,96
    4af8:	00a787b3          	add	x15,x15,x10
    4afc:	02f12823          	sw	x15,48(x2)
    4b00:	fc0b0663          	beqz	x22,42cc <.L21>
    4b04:	b29ff06f          	j	462c <.L125>

00004b08 <.L123>:
    4b08:	000a8513          	mv	x10,x21
    4b0c:	00098593          	mv	x11,x19
    4b10:	d48ff0ef          	jal	x1,4058 <__mulsi3>
    4b14:	00001737          	lui	x14,0x1
    4b18:	83070713          	addi	x14,x14,-2000 # 830 <.L134+0x1c>
    4b1c:	fffffab7          	lui	x21,0xfffff
    4b20:	06010793          	addi	x15,x2,96
    4b24:	00270733          	add	x14,x14,x2
    4b28:	01570733          	add	x14,x14,x21
    4b2c:	00a787b3          	add	x15,x15,x10
    4b30:	00e12223          	sw	x14,4(x2)
    4b34:	7ef72e23          	sw	x15,2044(x14)
    4b38:	f80a0863          	beqz	x20,42c8 <.L20>
    4b3c:	fadff06f          	j	4ae8 <.L124>

00004b40 <.L65>:
    4b40:	00040537          	lui	x10,0x40
    4b44:	62050513          	addi	x10,x10,1568 # 40620 <.LC35>
    4b48:	bccfc0ef          	jal	x1,f14 <ee_printf>
    4b4c:	ef1ff06f          	j	4a3c <.L66>

00004b50 <.L121>:
    4b50:	00412703          	lw	x14,4(x2)
    4b54:	06600793          	li	x15,102
    4b58:	7ef71823          	sh	x15,2032(x14)
    4b5c:	f00ff06f          	j	425c <.L17>

00004b60 <.L128>:
    4b60:	00100593          	li	x11,1
    4b64:	875ff06f          	j	43d8 <.L31>

00004b68 <.L130>:
    4b68:	00040537          	lui	x10,0x40
    4b6c:	59c50513          	addi	x10,x10,1436 # 4059c <.LC30>
    4b70:	ba4fc0ef          	jal	x1,f14 <ee_printf>
    4b74:	00812703          	lw	x14,8(x2)
    4b78:	00300793          	li	x15,3
    4b7c:	ecf710e3          	bne	x14,x15,4a3c <.L66>
    4b80:	05cba583          	lw	x11,92(x23)
    4b84:	03812503          	lw	x10,56(x2)
    4b88:	cd0ff0ef          	jal	x1,4058 <__mulsi3>
    4b8c:	c4cff0ef          	jal	x1,3fd8 <__floatunsidf>
    4b90:	00050493          	mv	x9,x10
    4b94:	000a0513          	mv	x10,x20
    4b98:	00058413          	mv	x8,x11
    4b9c:	b8dfd0ef          	jal	x1,2728 <time_in_secs>
    4ba0:	00050613          	mv	x12,x10
    4ba4:	00058693          	mv	x13,x11
    4ba8:	00048513          	mv	x10,x9
    4bac:	00040593          	mv	x11,x8
    4bb0:	a05fe0ef          	jal	x1,35b4 <__divdf3>
    4bb4:	00050613          	mv	x12,x10
    4bb8:	00040537          	lui	x10,0x40
    4bbc:	00058693          	mv	x13,x11
    4bc0:	4d4b0793          	addi	x15,x22,1236
    4bc4:	4b0a8713          	addi	x14,x21,1200 # fffff4b0 <seed1_volatile+0xfffbedf0>
    4bc8:	5e850513          	addi	x10,x10,1512 # 405e8 <.LC31>
    4bcc:	b48fc0ef          	jal	x1,f14 <ee_printf>
    4bd0:	00040537          	lui	x10,0x40
    4bd4:	4f0c0593          	addi	x11,x24,1264
    4bd8:	60450513          	addi	x10,x10,1540 # 40604 <.LC32>
    4bdc:	b38fc0ef          	jal	x1,f14 <ee_printf>
    4be0:	00040537          	lui	x10,0x40
    4be4:	49450513          	addi	x10,x10,1172 # 40494 <.LC33>
    4be8:	b2cfc0ef          	jal	x1,f14 <ee_printf>
    4bec:	e51ff06f          	j	4a3c <.L66>

00004bf0 <.L48>:
    4bf0:	00040537          	lui	x10,0x40
    4bf4:	45850513          	addi	x10,x10,1112 # 40458 <.LC17>
    4bf8:	b1cfc0ef          	jal	x1,f14 <ee_printf>
    4bfc:	00140413          	addi	x8,x8,1
    4c00:	bfdff06f          	j	47fc <.L120>

00004c04 <.L32>:
    4c04:	00040537          	lui	x10,0x40
    4c08:	2a450513          	addi	x10,x10,676 # 402a4 <.LC5>
    4c0c:	b08fc0ef          	jal	x1,f14 <ee_printf>
    4c10:	00001b37          	lui	x22,0x1
    4c14:	199b0b13          	addi	x22,x22,409 # 1199 <.L61+0x9>
    4c18:	000049b7          	lui	x19,0x4
    4c1c:	00003ab7          	lui	x21,0x3
    4c20:	00100793          	li	x15,1
    4c24:	9bf98993          	addi	x19,x19,-1601 # 39bf <.LVL118+0x7>
    4c28:	000b0c13          	mv	x24,x22
    4c2c:	340a8a93          	addi	x21,x21,832 # 3340 <.L150+0x30>
    4c30:	00f12423          	sw	x15,8(x2)
    4c34:	8bdff06f          	j	44f0 <.L39>

00004c38 <.L34>:
    4c38:	00040537          	lui	x10,0x40
    4c3c:	33450513          	addi	x10,x10,820 # 40334 <.LC8>
    4c40:	ad4fc0ef          	jal	x1,f14 <ee_printf>
    4c44:	000099b7          	lui	x19,0x9
    4c48:	0000eab7          	lui	x21,0xe
    4c4c:	00400793          	li	x15,4
    4c50:	d8498993          	addi	x19,x19,-636 # 8d84 <.L119+0x40e0>
    4c54:	74700b13          	li	x22,1863
    4c58:	74700c13          	li	x24,1863
    4c5c:	3c1a8a93          	addi	x21,x21,961 # e3c1 <.L119+0x971d>
    4c60:	00f12423          	sw	x15,8(x2)
    4c64:	88dff06f          	j	44f0 <.L39>

00004c68 <.L37>:
    4c68:	00040537          	lui	x10,0x40
    4c6c:	0000cb37          	lui	x22,0xc
    4c70:	27450513          	addi	x10,x10,628 # 40274 <.LC4>
    4c74:	e52b0b13          	addi	x22,x22,-430 # be52 <.L119+0x71ae>
    4c78:	000069b7          	lui	x19,0x6
    4c7c:	0000dab7          	lui	x21,0xd
    4c80:	a94fc0ef          	jal	x1,f14 <ee_printf>
    4c84:	e4798993          	addi	x19,x19,-441 # 5e47 <.L119+0x11a3>
    4c88:	000b0c13          	mv	x24,x22
    4c8c:	4b0a8a93          	addi	x21,x21,1200 # d4b0 <.L119+0x880c>
    4c90:	00012423          	sw	x0,8(x2)
    4c94:	85dff06f          	j	44f0 <.L39>

00004c98 <.L57>:
    4c98:	0047f793          	andi	x15,x15,4
    4c9c:	d20786e3          	beqz	x15,49c8 <.L56>
    4ca0:	d89ff06f          	j	4a28 <.L60>

00004ca4 <.L119>:
    4ca4:	00010437          	lui	x8,0x10
    4ca8:	fff00793          	li	x15,-1
    4cac:	fff40413          	addi	x8,x8,-1 # ffff <.L119+0xb35b>
    4cb0:	00f12423          	sw	x15,8(x2)
    4cb4:	00040bb7          	lui	x23,0x40
    4cb8:	a7dff06f          	j	4734 <.L36>

Disassembly of section .riscv.attributes:

00000000 <.riscv.attributes>:
   0:	1b41                	addi	x22,x22,-16
   2:	0000                	unimp
   4:	7200                	flw	f8,32(x12)
   6:	7369                	lui	x6,0xffffa
   8:	01007663          	bgeu	x0,x16,14 <_start+0x14>
   c:	0011                	c.nop	4
   e:	0000                	unimp
  10:	1004                	addi	x9,x2,32
  12:	7205                	lui	x4,0xfffe1
  14:	3376                	fld	f6,376(x2)
  16:	6932                	flw	f18,12(x2)
  18:	7032                	flw	f0,44(x2)
  1a:	0030                	addi	x12,x2,8

Disassembly of section .comment:

00000000 <.comment>:
   0:	3a434347          	fmsub.d	f6,f6,f4,f7,rmm
   4:	2820                	fld	f8,80(x8)
   6:	29554e47          	fmsub.s	f28,f10,f21,f5,rmm
   a:	3120                	fld	f8,96(x10)
   c:	2e30                	fld	f12,88(x12)
   e:	2e32                	fld	f28,264(x2)
  10:	0030                	addi	x12,x2,8

Disassembly of section .debug_info:

00000000 <.Ldebug_info0>:
       0:	08f1                	addi	x17,x17,28
       2:	0000                	unimp
       4:	0004                	0x4
       6:	0000                	unimp
       8:	0000                	unimp
       a:	0104                	addi	x9,x2,128
       c:	0321                	addi	x6,x6,8
       e:	0000                	unimp
      10:	300c                	fld	f11,32(x8)
      12:	0002                	c.slli64	x0
      14:	c000                	sw	x8,0(x8)
      16:	0002                	c.slli64	x0
      18:	b400                	fsd	f8,40(x8)
      1a:	0035                	c.nop	13
      1c:	e000                	fsw	f8,0(x8)
      1e:	00000007          	0x7
      22:	0000                	unimp
      24:	0200                	addi	x8,x2,256
      26:	0408                	addi	x10,x2,512
      28:	0698                	addi	x14,x2,832
      2a:	0000                	unimp
      2c:	69050403          	lb	x8,1680(x10)
      30:	746e                	flw	f8,248(x2)
      32:	0200                	addi	x8,x2,256
      34:	0601                	addi	x12,x12,0
      36:	010c                	addi	x11,x2,128
      38:	0000                	unimp
      3a:	0802                	c.slli64	x16
      3c:	7205                	lui	x4,0xfffe1
      3e:	0002                	c.slli64	x0
      40:	0200                	addi	x8,x2,256
      42:	0801                	addi	x16,x16,0
      44:	010a                	slli	x2,x2,0x2
      46:	0000                	unimp
      48:	0402                	c.slli64	x8
      4a:	00022307          	flw	f6,0(x4) # fffe1000 <seed1_volatile+0xfffa0940>
      4e:	0200                	addi	x8,x2,256
      50:	0708                	addi	x10,x2,896
      52:	0219                	addi	x4,x4,6
      54:	0000                	unimp
      56:	6104                	flw	f9,0(x10)
      58:	0000                	unimp
      5a:	0200                	addi	x8,x2,256
      5c:	014e                	slli	x2,x2,0x13
      5e:	6316                	flw	f6,68(x2)
      60:	0000                	unimp
      62:	0200                	addi	x8,x2,256
      64:	0702                	c.slli64	x14
      66:	0122                	slli	x2,x2,0x8
      68:	0000                	unimp
      6a:	a705                	j	78a <.L130+0x2>
      6c:	0000                	unimp
      6e:	0300                	addi	x8,x2,384
      70:	0f48                	addi	x10,x2,916
      72:	0025                	c.nop	9
      74:	0000                	unimp
      76:	0806                	slli	x16,x16,0x1
      78:	c0034f03          	lbu	x30,-1024(x6) # ffff9c00 <seed1_volatile+0xfffb9540>
      7c:	0000                	unimp
      7e:	0700                	addi	x8,x2,896
      80:	0088                	addi	x10,x2,64
      82:	0000                	unimp
      84:	480e5703          	lhu	x14,1152(x28)
      88:	0000                	unimp
      8a:	0400                	addi	x8,x2,512
      8c:	0020                	addi	x8,x2,8
      8e:	0700                	addi	x8,x2,896
      90:	008e                	slli	x1,x1,0x3
      92:	0000                	unimp
      94:	480e5803          	lhu	x16,1152(x28)
      98:	0000                	unimp
      9a:	0400                	addi	x8,x2,512
      9c:	0c14                	addi	x13,x2,528
      9e:	0804                	addi	x9,x2,16
      a0:	7865                	lui	x16,0xffff9
      a2:	0070                	addi	x12,x2,12
      a4:	480e5903          	lhu	x18,1152(x28)
      a8:	0000                	unimp
      aa:	0400                	addi	x8,x2,512
      ac:	0704010b          	0x704010b
      b0:	011d                	addi	x2,x2,7
      b2:	0000                	unimp
      b4:	480e5a03          	lhu	x20,1152(x28)
      b8:	0000                	unimp
      ba:	0400                	addi	x8,x2,512
      bc:	0001                	nop
      be:	0004                	0x4
      c0:	8009                	srli	x8,x8,0x2
      c2:	0002                	c.slli64	x0
      c4:	0800                	addi	x8,x2,16
      c6:	e6074c03          	lbu	x24,-416(x14)
      ca:	0000                	unimp
      cc:	0a00                	addi	x8,x2,272
      ce:	6c66                	flw	f24,88(x2)
      d0:	0074                	addi	x13,x2,12
      d2:	6a0a4e03          	lbu	x28,1696(x20)
      d6:	0000                	unimp
      d8:	0b00                	addi	x8,x2,400
      da:	02a8                	addi	x10,x2,328
      dc:	0000                	unimp
      de:	76055c03          	lhu	x24,1888(x10)
      e2:	0000                	unimp
      e4:	0000                	unimp
      e6:	580c                	lw	x11,48(x8)
      e8:	0000                	unimp
      ea:	0100                	addi	x8,x2,128
      ec:	006a0123          	sb	x6,2(x20)
      f0:	0000                	unimp
      f2:	35b4                	fld	f13,104(x11)
      f4:	0000                	unimp
      f6:	07e0                	addi	x8,x2,972
      f8:	0000                	unimp
      fa:	9c01                	0x9c01
      fc:	08c2                	slli	x17,x17,0x10
      fe:	0000                	unimp
     100:	610d                	addi	x2,x2,160
     102:	0100                	addi	x8,x2,128
     104:	006a1223          	sh	x6,4(x20)
     108:	0000                	unimp
     10a:	0000                	unimp
     10c:	0000                	unimp
     10e:	620d                	lui	x4,0x3
     110:	0100                	addi	x8,x2,128
     112:	006a1c23          	sh	x6,24(x20)
     116:	0000                	unimp
     118:	0088                	addi	x10,x2,64
     11a:	0000                	unimp
     11c:	3a0e                	fld	f20,224(x2)
     11e:	0001                	nop
     120:	0100                	addi	x8,x2,128
     122:	0325                	addi	x6,x6,9
     124:	002c                	addi	x11,x2,8
     126:	0000                	unimp
     128:	0110                	addi	x12,x2,128
     12a:	0000                	unimp
     12c:	0003d40f          	0x3d40f
     130:	0100                	addi	x8,x2,128
     132:	0325                	addi	x6,x6,9
     134:	002c                	addi	x11,x2,8
     136:	0000                	unimp
     138:	1000                	addi	x8,x2,32
     13a:	5f41                	li	x30,-16
     13c:	26010063          	beqz	x2,39c <.L55+0xc>
     140:	0008c203          	lbu	x4,0(x17)
     144:	3000                	fld	f8,32(x8)
     146:	0001                	nop
     148:	1000                	addi	x8,x2,32
     14a:	5f41                	li	x30,-16
     14c:	26010073          	0x26010073
     150:	0008c203          	lbu	x4,0(x17)
     154:	7b00                	flw	f8,48(x14)
     156:	0001                	nop
     158:	1000                	addi	x8,x2,32
     15a:	5f41                	li	x30,-16
     15c:	0065                	c.nop	25
     15e:	2601                	jal	45e <.LASF26+0x8>
     160:	0008c203          	lbu	x4,0(x17)
     164:	c300                	sw	x8,0(x14)
     166:	0001                	nop
     168:	0e00                	addi	x8,x2,784
     16a:	000001eb          	0x1eb
     16e:	2601                	jal	46e <.LASF26+0x18>
     170:	0008c903          	lbu	x18,0(x17)
     174:	6f00                	flw	f8,24(x14)
     176:	0002                	c.slli64	x0
     178:	0e00                	addi	x8,x2,784
     17a:	0135                	addi	x2,x2,13
     17c:	0000                	unimp
     17e:	2601                	jal	47e <.LASF26+0x28>
     180:	0008c903          	lbu	x18,0(x17)
     184:	0700                	addi	x8,x2,896
     186:	10000003          	lb	x0,256(x0) # 100 <.LASF26+0x14>
     18a:	5f42                	lw	x30,48(x2)
     18c:	27010063          	beq	x2,x16,3ec <.LASF7+0x6>
     190:	0008c203          	lbu	x4,0(x17)
     194:	ae00                	fsd	f8,24(x12)
     196:	10000003          	lb	x0,256(x0) # 100 <.LASF26+0x14>
     19a:	5f42                	lw	x30,48(x2)
     19c:	27010073          	0x27010073
     1a0:	0008c203          	lbu	x4,0(x17)
     1a4:	ee00                	fsw	f8,24(x12)
     1a6:	10000003          	lb	x0,256(x0) # 100 <.LASF26+0x14>
     1aa:	5f42                	lw	x30,48(x2)
     1ac:	0065                	c.nop	25
     1ae:	2701                	jal	8ae <.L137+0x22>
     1b0:	0008c203          	lbu	x4,0(x17)
     1b4:	4600                	lw	x8,8(x12)
     1b6:	0004                	0x4
     1b8:	0e00                	addi	x8,x2,784
     1ba:	0000020f          	0x20f
     1be:	2701                	jal	8be <.L138+0xa>
     1c0:	0008c903          	lbu	x18,0(x17)
     1c4:	eb00                	fsw	f8,16(x14)
     1c6:	0004                	0x4
     1c8:	0e00                	addi	x8,x2,784
     1ca:	0214                	addi	x13,x2,256
     1cc:	0000                	unimp
     1ce:	2701                	jal	8ce <.LLST17+0xe>
     1d0:	0008c903          	lbu	x18,0(x17)
     1d4:	7800                	flw	f8,48(x8)
     1d6:	0005                	c.nop	1
     1d8:	1000                	addi	x8,x2,32
     1da:	5f52                	lw	x30,52(x2)
     1dc:	28010063          	beqz	x2,45c <.LASF26+0x6>
     1e0:	0008c203          	lbu	x4,0(x17)
     1e4:	1200                	addi	x8,x2,288
     1e6:	0006                	c.slli	x0,0x1
     1e8:	1000                	addi	x8,x2,32
     1ea:	5f52                	lw	x30,52(x2)
     1ec:	28010073          	0x28010073
     1f0:	0008c203          	lbu	x4,0(x17)
     1f4:	5f00                	lw	x8,56(x14)
     1f6:	0006                	c.slli	x0,0x1
     1f8:	1000                	addi	x8,x2,32
     1fa:	5f52                	lw	x30,52(x2)
     1fc:	0065                	c.nop	25
     1fe:	2801                	jal	20e <.LASF37+0x4>
     200:	0008c203          	lbu	x4,0(x17)
     204:	e400                	fsw	f8,8(x8)
     206:	0006                	c.slli	x0,0x1
     208:	0e00                	addi	x8,x2,784
     20a:	0105                	addi	x2,x2,1
     20c:	0000                	unimp
     20e:	2801                	jal	21e <.LASF20>
     210:	0008c903          	lbu	x18,0(x17)
     214:	9000                	0x9000
     216:	0e000007          	0xe000007
     21a:	03d9                	addi	x7,x7,22
     21c:	0000                	unimp
     21e:	2801                	jal	22e <.L46+0x6>
     220:	0008c903          	lbu	x18,0(x17)
     224:	c000                	sw	x8,0(x8)
     226:	0008                	0x8
     228:	1100                	addi	x8,x2,160
     22a:	0072                	c.slli	x0,0x1c
     22c:	2901                	jal	63c <.L121+0xc>
     22e:	6a0a                	flw	f20,128(x2)
     230:	0000                	unimp
     232:	1200                	addi	x8,x2,288
     234:	0000                	unimp
     236:	0000                	unimp
     238:	0249                	addi	x4,x4,18
     23a:	0000                	unimp
     23c:	0001f513          	andi	x10,x3,0
     240:	0100                	addi	x8,x2,128
     242:	032c                	addi	x11,x2,392
     244:	00c0                	addi	x8,x2,68
     246:	0000                	unimp
     248:	1200                	addi	x8,x2,288
     24a:	0040                	addi	x8,x2,4
     24c:	0000                	unimp
     24e:	0275                	addi	x4,x4,29
     250:	0000                	unimp
     252:	b80e                	fsd	f3,48(x2)
     254:	0000                	unimp
     256:	0100                	addi	x8,x2,128
     258:	032c                	addi	x11,x2,392
     25a:	08c2                	slli	x17,x17,0x10
     25c:	0000                	unimp
     25e:	095c                	addi	x15,x2,148
     260:	0000                	unimp
     262:	c014                	sw	x13,0(x8)
     264:	0036                	c.slli	x0,0xd
     266:	d000                	sw	x8,32(x8)
     268:	0008                	0x8
     26a:	1400                	addi	x8,x2,544
     26c:	36f8                	fld	f14,232(x13)
     26e:	0000                	unimp
     270:	08d0                	addi	x12,x2,84
     272:	0000                	unimp
     274:	1200                	addi	x8,x2,288
     276:	0058                	addi	x14,x2,4
     278:	0000                	unimp
     27a:	0000028b          	0x28b
     27e:	0001f513          	andi	x10,x3,0
     282:	0100                	addi	x8,x2,128
     284:	032d                	addi	x6,x6,11
     286:	00c0                	addi	x8,x2,68
     288:	0000                	unimp
     28a:	1200                	addi	x8,x2,288
     28c:	0070                	addi	x12,x2,12
     28e:	0000                	unimp
     290:	000002b7          	lui	x5,0x0
     294:	b80e                	fsd	f3,48(x2)
     296:	0000                	unimp
     298:	0100                	addi	x8,x2,128
     29a:	032d                	addi	x6,x6,11
     29c:	08c2                	slli	x17,x17,0x10
     29e:	0000                	unimp
     2a0:	0990                	addi	x12,x2,208
     2a2:	0000                	unimp
     2a4:	6014                	flw	f13,0(x8)
     2a6:	d0000037          	lui	x0,0xd0000
     2aa:	0008                	0x8
     2ac:	1400                	addi	x8,x2,544
     2ae:	379c                	fld	f15,40(x15)
     2b0:	0000                	unimp
     2b2:	08d0                	addi	x12,x2,84
     2b4:	0000                	unimp
     2b6:	1200                	addi	x8,x2,288
     2b8:	0088                	addi	x10,x2,64
     2ba:	0000                	unimp
     2bc:	0000076f          	jal	x14,2bc <.LASF24+0x5>
     2c0:	760e                	flw	f12,224(x2)
     2c2:	0001                	nop
     2c4:	0100                	addi	x8,x2,128
     2c6:	032e                	slli	x6,x6,0xb
     2c8:	08c9                	addi	x17,x17,18
     2ca:	0000                	unimp
     2cc:	09c4                	addi	x9,x2,212
     2ce:	0000                	unimp
     2d0:	5d0e                	lw	x26,224(x2)
     2d2:	0001                	nop
     2d4:	0100                	addi	x8,x2,128
     2d6:	032e                	slli	x6,x6,0xb
     2d8:	08c9                	addi	x17,x17,18
     2da:	0000                	unimp
     2dc:	09f1                	addi	x19,x19,28
     2de:	0000                	unimp
     2e0:	440e                	lw	x8,192(x2)
     2e2:	0001                	nop
     2e4:	0100                	addi	x8,x2,128
     2e6:	032e                	slli	x6,x6,0xb
     2e8:	08c9                	addi	x17,x17,18
     2ea:	0000                	unimp
     2ec:	0a1f 0000 ec0e      	0xec0e00000a1f
     2f2:	0000                	unimp
     2f4:	0100                	addi	x8,x2,128
     2f6:	032e                	slli	x6,x6,0xb
     2f8:	08c9                	addi	x17,x17,18
     2fa:	0000                	unimp
     2fc:	0a3e                	slli	x20,x20,0xf
     2fe:	0000                	unimp
     300:	d30e                	sw	x3,164(x2)
     302:	0000                	unimp
     304:	0100                	addi	x8,x2,128
     306:	032e                	slli	x6,x6,0xb
     308:	08c9                	addi	x17,x17,18
     30a:	0000                	unimp
     30c:	00000a93          	li	x21,0
     310:	690e                	flw	f18,192(x2)
     312:	0000                	unimp
     314:	0100                	addi	x8,x2,128
     316:	032e                	slli	x6,x6,0xb
     318:	08c9                	addi	x17,x17,18
     31a:	0000                	unimp
     31c:	0aff                	0xaff
     31e:	0000                	unimp
     320:	3a0e                	fld	f20,224(x2)
     322:	0000                	unimp
     324:	0100                	addi	x8,x2,128
     326:	032e                	slli	x6,x6,0xb
     328:	08c9                	addi	x17,x17,18
     32a:	0000                	unimp
     32c:	0b3a                	slli	x22,x22,0xe
     32e:	0000                	unimp
     330:	a812                	fsd	f4,16(x2)
     332:	0000                	unimp
     334:	e000                	fsw	f8,0(x8)
     336:	0e000003          	lb	x0,224(x0) # e0 <.LASF27+0xd>
     33a:	000002a3          	sb	x0,5(x0) # 5 <.Ldebug_info0+0x5>
     33e:	2e01                	jal	64e <.LASF17+0x8>
     340:	0008c903          	lbu	x18,0(x17)
     344:	6300                	flw	f8,0(x14)
     346:	0e00000b          	0xe00000b
     34a:	026d                	addi	x4,x4,27
     34c:	0000                	unimp
     34e:	2e01                	jal	65e <.L122+0x6>
     350:	0008c903          	lbu	x18,0(x17)
     354:	8c00                	0x8c00
     356:	0e00000b          	0xe00000b
     35a:	00000053          	fadd.s	f0,f0,f0,rne
     35e:	2e01                	jal	66e <.LASF14+0x1>
     360:	0008c903          	lbu	x18,0(x17)
     364:	c100                	sw	x8,0(x10)
     366:	0e00000b          	0xe00000b
     36a:	01f0                	addi	x12,x2,204
     36c:	0000                	unimp
     36e:	2e01                	jal	67e <.LASF19+0x2>
     370:	0008c903          	lbu	x18,0(x17)
     374:	f500                	fsw	f8,40(x10)
     376:	0e00000b          	0xe00000b
     37a:	0035                	c.nop	13
     37c:	0000                	unimp
     37e:	2e01                	jal	68e <.LASF15+0x3>
     380:	0008c903          	lbu	x18,0(x17)
     384:	2900                	fld	f8,16(x10)
     386:	000c                	0xc
     388:	0e00                	addi	x8,x2,784
     38a:	0030                	addi	x12,x2,8
     38c:	0000                	unimp
     38e:	2e01                	jal	69e <.LASF0+0x6>
     390:	0008c903          	lbu	x18,0(x17)
     394:	8400                	0x8400
     396:	000c                	0xc
     398:	1000                	addi	x8,x2,32
     39a:	5f5f 006d 2e01      	0x2e01006d5f5f
     3a0:	0008c903          	lbu	x18,0(x17)
     3a4:	b200                	fsd	f8,32(x12)
     3a6:	000c                	0xc
     3a8:	1400                	addi	x8,x2,544
     3aa:	3834                	fld	f13,112(x8)
     3ac:	0000                	unimp
     3ae:	08d9                	addi	x17,x17,22
     3b0:	0000                	unimp
     3b2:	4414                	lw	x13,8(x8)
     3b4:	0038                	addi	x14,x2,8
     3b6:	e200                	fsw	f8,0(x12)
     3b8:	0008                	0x8
     3ba:	1400                	addi	x8,x2,544
     3bc:	3854                	fld	f13,176(x8)
     3be:	0000                	unimp
     3c0:	000008eb          	0x8eb
     3c4:	9014                	0x9014
     3c6:	0038                	addi	x14,x2,8
     3c8:	d900                	sw	x8,48(x10)
     3ca:	0008                	0x8
     3cc:	1400                	addi	x8,x2,544
     3ce:	38a0                	fld	f8,112(x9)
     3d0:	0000                	unimp
     3d2:	08e2                	slli	x17,x17,0x18
     3d4:	0000                	unimp
     3d6:	b014                	fsd	f13,32(x8)
     3d8:	0038                	addi	x14,x2,8
     3da:	eb00                	fsw	f8,16(x14)
     3dc:	0008                	0x8
     3de:	0000                	unimp
     3e0:	f015                	bnez	x8,304 <.L51+0x14>
     3e2:	0038                	addi	x14,x2,8
     3e4:	8800                	0x8800
     3e6:	0000                	unimp
     3e8:	0e00                	addi	x8,x2,784
     3ea:	0005                	c.nop	1
     3ec:	0e00                	addi	x8,x2,784
     3ee:	00ae                	slli	x1,x1,0xb
     3f0:	0000                	unimp
     3f2:	2e01                	jal	702 <.L126+0x1a>
     3f4:	0008c903          	lbu	x18,0(x17)
     3f8:	e600                	fsw	f8,8(x12)
     3fa:	000c                	0xc
     3fc:	0e00                	addi	x8,x2,784
     3fe:	020a                	slli	x4,x4,0x2
     400:	0000                	unimp
     402:	2e01                	jal	712 <.L127+0x2>
     404:	0008c903          	lbu	x18,0(x17)
     408:	0400                	addi	x8,x2,512
     40a:	000d                	c.nop	3
     40c:	0e00                	addi	x8,x2,784
     40e:	000000b3          	add	x1,x0,x0
     412:	2e01                	jal	722 <.L127+0x12>
     414:	0008c903          	lbu	x18,0(x17)
     418:	2d00                	fld	f8,24(x10)
     41a:	000d                	c.nop	3
     41c:	0e00                	addi	x8,x2,784
     41e:	025e                	slli	x4,x4,0x17
     420:	0000                	unimp
     422:	2e01                	jal	732 <.Ldebug_abbrev0+0x8>
     424:	0008c903          	lbu	x18,0(x17)
     428:	4000                	lw	x8,0(x8)
     42a:	000d                	c.nop	3
     42c:	0e00                	addi	x8,x2,784
     42e:	0118                	addi	x14,x2,128
     430:	0000                	unimp
     432:	2e01                	jal	742 <.L128+0xa>
     434:	00005603          	lhu	x12,0(x0) # 0 <.Ldebug_info0>
     438:	5e00                	lw	x8,56(x12)
     43a:	000d                	c.nop	3
     43c:	0e00                	addi	x8,x2,784
     43e:	0268                	addi	x10,x2,268
     440:	0000                	unimp
     442:	2e01                	jal	752 <.L128+0x1a>
     444:	00005603          	lhu	x12,0(x0) # 0 <.Ldebug_info0>
     448:	7100                	flw	f8,32(x10)
     44a:	000d                	c.nop	3
     44c:	0e00                	addi	x8,x2,784
     44e:	0000013f 56032e01 	0x56032e010000013f
     456:	0000                	unimp
     458:	8f00                	0x8f00
     45a:	000d                	c.nop	3
     45c:	0e00                	addi	x8,x2,784
     45e:	00000263          	beqz	x0,462 <.LASF26+0xc>
     462:	2e01                	jal	772 <.L129+0x12>
     464:	00005603          	lhu	x12,0(x0) # 0 <.Ldebug_info0>
     468:	b100                	fsd	f8,32(x10)
     46a:	000d                	c.nop	3
     46c:	1500                	addi	x8,x2,672
     46e:	3904                	fld	f9,48(x10)
     470:	0000                	unimp
     472:	0010                	0x10
     474:	0000                	unimp
     476:	00000497          	auipc	x9,0x0
     47a:	ce16                	sw	x5,28(x2)
     47c:	01000003          	lb	x0,16(x0) # 10 <.Ldebug_info0+0x10>
     480:	032e                	slli	x6,x6,0xb
     482:	08c9                	addi	x17,x17,18
     484:	0000                	unimp
     486:	5a01                	li	x20,-32
     488:	8216                	mv	x4,x5
     48a:	0000                	unimp
     48c:	0100                	addi	x8,x2,128
     48e:	032e                	slli	x6,x6,0xb
     490:	08c9                	addi	x17,x17,18
     492:	0000                	unimp
     494:	5b01                	li	x22,-32
     496:	1500                	addi	x8,x2,672
     498:	3914                	fld	f13,48(x10)
     49a:	0000                	unimp
     49c:	0010                	0x10
     49e:	0000                	unimp
     4a0:	04c1                	addi	x9,x9,16
     4a2:	0000                	unimp
     4a4:	ce16                	sw	x5,28(x2)
     4a6:	01000003          	lb	x0,16(x0) # 10 <.Ldebug_info0+0x10>
     4aa:	032e                	slli	x6,x6,0xb
     4ac:	08c9                	addi	x17,x17,18
     4ae:	0000                	unimp
     4b0:	5a01                	li	x20,-32
     4b2:	8216                	mv	x4,x5
     4b4:	0000                	unimp
     4b6:	0100                	addi	x8,x2,128
     4b8:	032e                	slli	x6,x6,0xb
     4ba:	08c9                	addi	x17,x17,18
     4bc:	0000                	unimp
     4be:	5b01                	li	x22,-32
     4c0:	1500                	addi	x8,x2,672
     4c2:	3924                	fld	f9,112(x10)
     4c4:	0000                	unimp
     4c6:	0010                	0x10
     4c8:	0000                	unimp
     4ca:	000004eb          	0x4eb
     4ce:	ce16                	sw	x5,28(x2)
     4d0:	01000003          	lb	x0,16(x0) # 10 <.Ldebug_info0+0x10>
     4d4:	032e                	slli	x6,x6,0xb
     4d6:	08c9                	addi	x17,x17,18
     4d8:	0000                	unimp
     4da:	5a01                	li	x20,-32
     4dc:	8216                	mv	x4,x5
     4de:	0000                	unimp
     4e0:	0100                	addi	x8,x2,128
     4e2:	032e                	slli	x6,x6,0xb
     4e4:	08c9                	addi	x17,x17,18
     4e6:	0000                	unimp
     4e8:	5b01                	li	x22,-32
     4ea:	1700                	addi	x8,x2,928
     4ec:	00c8                	addi	x10,x2,68
     4ee:	0000                	unimp
     4f0:	ce16                	sw	x5,28(x2)
     4f2:	01000003          	lb	x0,16(x0) # 10 <.Ldebug_info0+0x10>
     4f6:	032e                	slli	x6,x6,0xb
     4f8:	08c9                	addi	x17,x17,18
     4fa:	0000                	unimp
     4fc:	5a01                	li	x20,-32
     4fe:	8216                	mv	x4,x5
     500:	0000                	unimp
     502:	0100                	addi	x8,x2,128
     504:	032e                	slli	x6,x6,0xb
     506:	08c9                	addi	x17,x17,18
     508:	0000                	unimp
     50a:	5b01                	li	x22,-32
     50c:	0000                	unimp
     50e:	e012                	fsw	f4,0(x2)
     510:	0000                	unimp
     512:	2800                	fld	f8,16(x8)
     514:	0005                	c.nop	1
     516:	1000                	addi	x8,x2,32
     518:	5f5f 0078 2e01      	0x2e0100785f5f
     51e:	0008c903          	lbu	x18,0(x17)
     522:	cf00                	sw	x8,24(x14)
     524:	000d                	c.nop	3
     526:	0000                	unimp
     528:	f812                	fsw	f4,48(x2)
     52a:	0000                	unimp
     52c:	4200                	lw	x8,0(x12)
     52e:	0005                	c.nop	1
     530:	1000                	addi	x8,x2,32
     532:	5f5f 0078 2e01      	0x2e0100785f5f
     538:	0008c903          	lbu	x18,0(x17)
     53c:	e200                	fsw	f8,0(x12)
     53e:	000d                	c.nop	3
     540:	0000                	unimp
     542:	c815                	beqz	x8,576 <.LASF15+0xe>
     544:	0039                	c.nop	14
     546:	1000                	addi	x8,x2,32
     548:	0000                	unimp
     54a:	6000                	flw	f8,0(x8)
     54c:	0005                	c.nop	1
     54e:	1000                	addi	x8,x2,32
     550:	5f5f 0078 2e01      	0x2e0100785f5f
     556:	0008c903          	lbu	x18,0(x17)
     55a:	f500                	fsw	f8,40(x10)
     55c:	000d                	c.nop	3
     55e:	0000                	unimp
     560:	1012                	c.slli	x0,0x24
     562:	0001                	nop
     564:	1000                	addi	x8,x2,32
     566:	0006                	c.slli	x0,0x1
     568:	0e00                	addi	x8,x2,784
     56a:	000002a3          	sb	x0,5(x0) # 5 <.Ldebug_info0+0x5>
     56e:	2e01                	jal	87e <.L136+0x1a>
     570:	0008c903          	lbu	x18,0(x17)
     574:	0800                	addi	x8,x2,16
     576:	000e                	c.slli	x0,0x3
     578:	0e00                	addi	x8,x2,784
     57a:	026d                	addi	x4,x4,27
     57c:	0000                	unimp
     57e:	2e01                	jal	88e <.L137+0x2>
     580:	0008c903          	lbu	x18,0(x17)
     584:	2600                	fld	f8,8(x12)
     586:	000e                	c.slli	x0,0x3
     588:	0e00                	addi	x8,x2,784
     58a:	00000053          	fadd.s	f0,f0,f0,rne
     58e:	2e01                	jal	89e <.L137+0x12>
     590:	0008c903          	lbu	x18,0(x17)
     594:	5b00                	lw	x8,48(x14)
     596:	000e                	c.slli	x0,0x3
     598:	0e00                	addi	x8,x2,784
     59a:	01f0                	addi	x12,x2,204
     59c:	0000                	unimp
     59e:	2e01                	jal	8ae <.L137+0x22>
     5a0:	0008c903          	lbu	x18,0(x17)
     5a4:	9c00                	0x9c00
     5a6:	000e                	c.slli	x0,0x3
     5a8:	0e00                	addi	x8,x2,784
     5aa:	0035                	c.nop	13
     5ac:	0000                	unimp
     5ae:	2e01                	jal	8be <.L138+0xa>
     5b0:	0008c903          	lbu	x18,0(x17)
     5b4:	d200                	sw	x8,32(x12)
     5b6:	000e                	c.slli	x0,0x3
     5b8:	0e00                	addi	x8,x2,784
     5ba:	0030                	addi	x12,x2,8
     5bc:	0000                	unimp
     5be:	2e01                	jal	8ce <.LLST17+0xe>
     5c0:	0008c903          	lbu	x18,0(x17)
     5c4:	2800                	fld	f8,16(x8)
     5c6:	1000000f          	0x1000000f
     5ca:	5f5f 006d 2e01      	0x2e01006d5f5f
     5d0:	0008c903          	lbu	x18,0(x17)
     5d4:	6800                	flw	f8,16(x8)
     5d6:	1400000f          	0x1400000f
     5da:	39ec                	fld	f11,240(x11)
     5dc:	0000                	unimp
     5de:	08d9                	addi	x17,x17,22
     5e0:	0000                	unimp
     5e2:	fc14                	fsw	f13,56(x8)
     5e4:	0039                	c.nop	14
     5e6:	e200                	fsw	f8,0(x12)
     5e8:	0008                	0x8
     5ea:	1400                	addi	x8,x2,544
     5ec:	3a0c                	fld	f11,48(x12)
     5ee:	0000                	unimp
     5f0:	000008eb          	0x8eb
     5f4:	5014                	lw	x13,32(x8)
     5f6:	003a                	c.slli	x0,0xe
     5f8:	d900                	sw	x8,48(x10)
     5fa:	0008                	0x8
     5fc:	1400                	addi	x8,x2,544
     5fe:	3a60                	fld	f8,240(x12)
     600:	0000                	unimp
     602:	08e2                	slli	x17,x17,0x18
     604:	0000                	unimp
     606:	7014                	flw	f13,32(x8)
     608:	003a                	c.slli	x0,0xe
     60a:	eb00                	fsw	f8,16(x14)
     60c:	0008                	0x8
     60e:	0000                	unimp
     610:	b815                	j	fffffe44 <seed1_volatile+0xfffbf784>
     612:	003a                	c.slli	x0,0xe
     614:	7c00                	flw	f8,56(x8)
     616:	0000                	unimp
     618:	3e00                	fld	f8,56(x12)
     61a:	0e000007          	0xe000007
     61e:	00ae                	slli	x1,x1,0xb
     620:	0000                	unimp
     622:	2e01                	jal	932 <.L240+0xa>
     624:	0008c903          	lbu	x18,0(x17)
     628:	a900                	fsd	f8,16(x10)
     62a:	0e00000f          	fence	ior,unknown
     62e:	020a                	slli	x4,x4,0x2
     630:	0000                	unimp
     632:	2e01                	jal	942 <.L239+0x2>
     634:	0008c903          	lbu	x18,0(x17)
     638:	c700                	sw	x8,8(x14)
     63a:	0e00000f          	fence	ior,unknown
     63e:	000000b3          	add	x1,x0,x0
     642:	2e01                	jal	952 <.L239+0x12>
     644:	0008c903          	lbu	x18,0(x17)
     648:	1400                	addi	x8,x2,544
     64a:	0010                	0x10
     64c:	0e00                	addi	x8,x2,784
     64e:	025e                	slli	x4,x4,0x17
     650:	0000                	unimp
     652:	2e01                	jal	962 <.LLST18+0x6>
     654:	0008c903          	lbu	x18,0(x17)
     658:	3d00                	fld	f8,56(x10)
     65a:	0010                	0x10
     65c:	0e00                	addi	x8,x2,784
     65e:	0118                	addi	x14,x2,128
     660:	0000                	unimp
     662:	2e01                	jal	972 <crc16+0x2>
     664:	00005603          	lhu	x12,0(x0) # 0 <.Ldebug_info0>
     668:	5b00                	lw	x8,48(x14)
     66a:	0010                	0x10
     66c:	0e00                	addi	x8,x2,784
     66e:	0268                	addi	x10,x2,268
     670:	0000                	unimp
     672:	2e01                	jal	982 <crc16+0x12>
     674:	00005603          	lhu	x12,0(x0) # 0 <.Ldebug_info0>
     678:	7900                	flw	f8,48(x10)
     67a:	0010                	0x10
     67c:	0e00                	addi	x8,x2,784
     67e:	0000013f 56032e01 	0x56032e010000013f
     686:	0000                	unimp
     688:	9700                	0x9700
     68a:	0010                	0x10
     68c:	0e00                	addi	x8,x2,784
     68e:	00000263          	beqz	x0,692 <.LASF15+0x7>
     692:	2e01                	jal	9a2 <.LLST19+0x12>
     694:	00005603          	lhu	x12,0(x0) # 0 <.Ldebug_info0>
     698:	c800                	sw	x8,16(x8)
     69a:	0010                	0x10
     69c:	1500                	addi	x8,x2,672
     69e:	3abc                	fld	f15,112(x13)
     6a0:	0000                	unimp
     6a2:	0010                	0x10
     6a4:	0000                	unimp
     6a6:	000006c7          	fmsub.s	f13,f0,f0,f0,rne
     6aa:	ce16                	sw	x5,28(x2)
     6ac:	01000003          	lb	x0,16(x0) # 10 <.Ldebug_info0+0x10>
     6b0:	032e                	slli	x6,x6,0xb
     6b2:	08c9                	addi	x17,x17,18
     6b4:	0000                	unimp
     6b6:	5a01                	li	x20,-32
     6b8:	8216                	mv	x4,x5
     6ba:	0000                	unimp
     6bc:	0100                	addi	x8,x2,128
     6be:	032e                	slli	x6,x6,0xb
     6c0:	08c9                	addi	x17,x17,18
     6c2:	0000                	unimp
     6c4:	5b01                	li	x22,-32
     6c6:	1500                	addi	x8,x2,672
     6c8:	3acc                	fld	f11,176(x13)
     6ca:	0000                	unimp
     6cc:	0010                	0x10
     6ce:	0000                	unimp
     6d0:	06f1                	addi	x13,x13,28
     6d2:	0000                	unimp
     6d4:	ce16                	sw	x5,28(x2)
     6d6:	01000003          	lb	x0,16(x0) # 10 <.Ldebug_info0+0x10>
     6da:	032e                	slli	x6,x6,0xb
     6dc:	08c9                	addi	x17,x17,18
     6de:	0000                	unimp
     6e0:	5a01                	li	x20,-32
     6e2:	8216                	mv	x4,x5
     6e4:	0000                	unimp
     6e6:	0100                	addi	x8,x2,128
     6e8:	032e                	slli	x6,x6,0xb
     6ea:	08c9                	addi	x17,x17,18
     6ec:	0000                	unimp
     6ee:	5b01                	li	x22,-32
     6f0:	1500                	addi	x8,x2,672
     6f2:	3adc                	fld	f15,176(x13)
     6f4:	0000                	unimp
     6f6:	0010                	0x10
     6f8:	0000                	unimp
     6fa:	0000071b          	0x71b
     6fe:	ce16                	sw	x5,28(x2)
     700:	01000003          	lb	x0,16(x0) # 10 <.Ldebug_info0+0x10>
     704:	032e                	slli	x6,x6,0xb
     706:	08c9                	addi	x17,x17,18
     708:	0000                	unimp
     70a:	5a01                	li	x20,-32
     70c:	8216                	mv	x4,x5
     70e:	0000                	unimp
     710:	0100                	addi	x8,x2,128
     712:	032e                	slli	x6,x6,0xb
     714:	08c9                	addi	x17,x17,18
     716:	0000                	unimp
     718:	5b01                	li	x22,-32
     71a:	1700                	addi	x8,x2,928
     71c:	0128                	addi	x10,x2,136
     71e:	0000                	unimp
     720:	ce16                	sw	x5,28(x2)
     722:	01000003          	lb	x0,16(x0) # 10 <.Ldebug_info0+0x10>
     726:	032e                	slli	x6,x6,0xb
     728:	08c9                	addi	x17,x17,18
     72a:	0000                	unimp
     72c:	5a01                	li	x20,-32
     72e:	8216                	mv	x4,x5
     730:	0000                	unimp
     732:	0100                	addi	x8,x2,128
     734:	032e                	slli	x6,x6,0xb
     736:	08c9                	addi	x17,x17,18
     738:	0000                	unimp
     73a:	5b01                	li	x22,-32
     73c:	0000                	unimp
     73e:	4012                	0x4012
     740:	0001                	nop
     742:	5800                	lw	x8,48(x8)
     744:	10000007          	0x10000007
     748:	5f5f 0078 2e01      	0x2e0100785f5f
     74e:	0008c903          	lbu	x18,0(x17)
     752:	e600                	fsw	f8,8(x12)
     754:	0010                	0x10
     756:	0000                	unimp
     758:	00015817          	auipc	x16,0x15
     75c:	1000                	addi	x8,x2,32
     75e:	5f5f 0078 2e01      	0x2e0100785f5f
     764:	0008c903          	lbu	x18,0(x17)
     768:	0400                	addi	x8,x2,512
     76a:	0011                	c.nop	4
     76c:	0000                	unimp
     76e:	1500                	addi	x8,x2,672
     770:	3b9c                	fld	f15,48(x15)
     772:	0000                	unimp
     774:	0010                	0x10
     776:	0000                	unimp
     778:	078d                	addi	x15,x15,3
     77a:	0000                	unimp
     77c:	5f10                	lw	x12,56(x14)
     77e:	785f 0100 032f      	0x32f0100785f
     784:	08c9                	addi	x17,x17,18
     786:	0000                	unimp
     788:	00001117          	auipc	x2,0x1
     78c:	1800                	addi	x8,x2,48
     78e:	079f 0000 5f11      	0x5f110000079f
     794:	785f 0100 032f      	0x32f0100785f
     79a:	08c9                	addi	x17,x17,18
     79c:	0000                	unimp
     79e:	1800                	addi	x8,x2,48
     7a0:	07b1                	addi	x15,x15,12
     7a2:	0000                	unimp
     7a4:	5f11                	li	x30,-28
     7a6:	785f 0100 032f      	0x32f0100785f
     7ac:	08c9                	addi	x17,x17,18
     7ae:	0000                	unimp
     7b0:	1200                	addi	x8,x2,288
     7b2:	0190                	addi	x12,x2,192
     7b4:	0000                	unimp
     7b6:	000008af          	0x8af
     7ba:	0001b013          	sltiu	x0,x3,0
     7be:	0100                	addi	x8,x2,128
     7c0:	002c032f          	0x2c032f
     7c4:	0000                	unimp
     7c6:	3a18                	fld	f14,48(x12)
     7c8:	0008                	0x8
     7ca:	1300                	addi	x8,x2,416
     7cc:	01d4                	addi	x13,x2,196
     7ce:	0000                	unimp
     7d0:	2f01                	jal	ee0 <printf_char+0x8>
     7d2:	0008c203          	lbu	x4,0(x17)
     7d6:	1300                	addi	x8,x2,416
     7d8:	0199                	addi	x3,x3,6
     7da:	0000                	unimp
     7dc:	2f01                	jal	eec <printf_str>
     7de:	0008c203          	lbu	x4,0(x17)
     7e2:	1300                	addi	x8,x2,416
     7e4:	028c                	addi	x11,x2,320
     7e6:	0000                	unimp
     7e8:	2f01                	jal	ef8 <printf_str+0xc>
     7ea:	0008c203          	lbu	x4,0(x17)
     7ee:	1300                	addi	x8,x2,416
     7f0:	0000                	unimp
     7f2:	0000                	unimp
     7f4:	2f01                	jal	f04 <.L43+0x8>
     7f6:	0008c903          	lbu	x18,0(x17)
     7fa:	1300                	addi	x8,x2,416
     7fc:	0018                	0x18
     7fe:	0000                	unimp
     800:	2f01                	jal	f10 <.L41>
     802:	0008c903          	lbu	x18,0(x17)
     806:	1800                	addi	x8,x2,48
     808:	0819                	addi	x16,x16,6
     80a:	0000                	unimp
     80c:	5f11                	li	x30,-28
     80e:	785f 0100 032f      	0x32f0100785f
     814:	08c9                	addi	x17,x17,18
     816:	0000                	unimp
     818:	1800                	addi	x8,x2,48
     81a:	0000082b          	0x82b
     81e:	5f11                	li	x30,-28
     820:	785f 0100 032f      	0x32f0100785f
     826:	08c9                	addi	x17,x17,18
     828:	0000                	unimp
     82a:	1900                	addi	x8,x2,176
     82c:	5f11                	li	x30,-28
     82e:	785f 0100 032f      	0x32f0100785f
     834:	08c9                	addi	x17,x17,18
     836:	0000                	unimp
     838:	0000                	unimp
     83a:	f015                	bnez	x8,75e <.L128+0x26>
     83c:	003c                	addi	x15,x2,8
     83e:	1000                	addi	x8,x2,32
     840:	0000                	unimp
     842:	5800                	lw	x8,48(x8)
     844:	0008                	0x8
     846:	1000                	addi	x8,x2,32
     848:	5f5f 0078 2f01      	0x2f0100785f5f
     84e:	0008c903          	lbu	x18,0(x17)
     852:	2a00                	fld	f8,16(x12)
     854:	0011                	c.nop	4
     856:	0000                	unimp
     858:	6a18                	flw	f14,16(x12)
     85a:	0008                	0x8
     85c:	1100                	addi	x8,x2,160
     85e:	5f5f 0078 2f01      	0x2f0100785f5f
     864:	0008c903          	lbu	x18,0(x17)
     868:	0000                	unimp
     86a:	7c18                	flw	f14,56(x8)
     86c:	0008                	0x8
     86e:	1100                	addi	x8,x2,160
     870:	5f5f 0078 2f01      	0x2f0100785f5f
     876:	0008c903          	lbu	x18,0(x17)
     87a:	0000                	unimp
     87c:	8e18                	0x8e18
     87e:	0008                	0x8
     880:	1100                	addi	x8,x2,160
     882:	5f5f 0078 2f01      	0x2f0100785f5f
     888:	0008c903          	lbu	x18,0(x17)
     88c:	0000                	unimp
     88e:	a018                	fsd	f14,0(x8)
     890:	0008                	0x8
     892:	1100                	addi	x8,x2,160
     894:	5f5f 0078 2f01      	0x2f0100785f5f
     89a:	0008c903          	lbu	x18,0(x17)
     89e:	0000                	unimp
     8a0:	1119                	addi	x2,x2,-26
     8a2:	5f5f 0078 2f01      	0x2f0100785f5f
     8a8:	0008c903          	lbu	x18,0(x17)
     8ac:	0000                	unimp
     8ae:	1700                	addi	x8,x2,928
     8b0:	0178                	addi	x14,x2,140
     8b2:	0000                	unimp
     8b4:	00009413          	slli	x8,x1,0x0
     8b8:	0100                	addi	x8,x2,128
     8ba:	00c0032f          	0xc0032f
     8be:	0000                	unimp
     8c0:	0000                	unimp
     8c2:	0402                	c.slli64	x8
     8c4:	7705                	lui	x14,0xfffe1
     8c6:	0002                	c.slli64	x0
     8c8:	0200                	addi	x8,x2,256
     8ca:	0704                	addi	x9,x2,896
     8cc:	021e                	slli	x4,x4,0x7
     8ce:	0000                	unimp
     8d0:	b71a                	fsd	f6,424(x2)
     8d2:	0002                	c.slli64	x0
     8d4:	b700                	fsd	f8,40(x14)
     8d6:	0002                	c.slli64	x0
     8d8:	1a00                	addi	x8,x2,304
     8da:	02ad                	addi	x5,x5,11
     8dc:	0000                	unimp
     8de:	02ad                	addi	x5,x5,11
     8e0:	0000                	unimp
     8e2:	cb1a                	sw	x6,148(x2)
     8e4:	0001                	nop
     8e6:	cb00                	sw	x8,16(x14)
     8e8:	0001                	nop
     8ea:	1a00                	addi	x8,x2,304
     8ec:	0000018f          	0x18f
     8f0:	0000018f          	0x18f
	...

000008f5 <.Ldebug_info0>:
     8f5:	0000024f          	fnmadd.s	f4,f0,f0,f0,rne
     8f9:	0004                	0x4
     8fb:	0184                	addi	x9,x2,192
     8fd:	0000                	unimp
     8ff:	0104                	addi	x9,x2,128
     901:	0321                	addi	x6,x6,8
     903:	0000                	unimp
     905:	050c                	addi	x11,x2,640
     907:	0004                	0x4
     909:	c000                	sw	x8,0(x8)
     90b:	0002                	c.slli64	x0
     90d:	9400                	0x9400
     90f:	003d                	c.nop	15
     911:	e400                	fsw	f8,8(x8)
     913:	0000                	unimp
     915:	a500                	fsd	f8,8(x10)
     917:	0010                	0x10
     919:	0200                	addi	x8,x2,256
     91b:	0408                	addi	x10,x2,512
     91d:	0698                	addi	x14,x2,832
     91f:	0000                	unimp
     921:	0003e603          	0x3e603
     925:	0200                	addi	x8,x2,256
     927:	0d50                	addi	x12,x2,660
     929:	0038                	addi	x14,x2,8
     92b:	0000                	unimp
     92d:	0404                	addi	x9,x2,512
     92f:	6905                	lui	x18,0x1
     931:	746e                	flw	f8,248(x2)
     933:	0200                	addi	x8,x2,256
     935:	0601                	addi	x12,x12,0
     937:	010c                	addi	x11,x2,128
     939:	0000                	unimp
     93b:	0802                	c.slli64	x16
     93d:	7205                	lui	x4,0xfffe1
     93f:	0002                	c.slli64	x0
     941:	0200                	addi	x8,x2,256
     943:	0801                	addi	x16,x16,0
     945:	010a                	slli	x2,x2,0x2
     947:	0000                	unimp
     949:	0402                	c.slli64	x8
     94b:	00022307          	flw	f6,0(x4) # fffe1000 <seed1_volatile+0xfffa0940>
     94f:	0200                	addi	x8,x2,256
     951:	0708                	addi	x10,x2,896
     953:	0219                	addi	x4,x4,6
     955:	0000                	unimp
     957:	0202                	c.slli64	x4
     959:	00012207          	flw	f4,0(x2) # 1788 <.L83>
     95d:	0300                	addi	x8,x2,384
     95f:	000000a7          	0xa7
     963:	250f4803          	lbu	x16,592(x30)
     967:	0000                	unimp
     969:	0500                	addi	x8,x2,640
     96b:	0308                	addi	x10,x2,384
     96d:	00bf034f          	fnmadd.s	f6,f30,f11,f0,rne
     971:	0000                	unimp
     973:	8806                	mv	x16,x1
     975:	0000                	unimp
     977:	0300                	addi	x8,x2,384
     979:	00540e57          	0x540e57
     97d:	0000                	unimp
     97f:	2004                	fld	f9,0(x8)
     981:	0000                	unimp
     983:	8e06                	mv	x28,x1
     985:	0000                	unimp
     987:	0300                	addi	x8,x2,384
     989:	0e58                	addi	x14,x2,788
     98b:	0054                	addi	x13,x2,4
     98d:	0000                	unimp
     98f:	1404                	addi	x9,x2,544
     991:	040c                	addi	x11,x2,512
     993:	70786507          	0x70786507
     997:	0300                	addi	x8,x2,384
     999:	0e59                	addi	x28,x28,22
     99b:	0054                	addi	x13,x2,4
     99d:	0000                	unimp
     99f:	0b04                	addi	x9,x2,400
     9a1:	0401                	addi	x8,x8,0
     9a3:	1d06                	slli	x26,x26,0x21
     9a5:	0001                	nop
     9a7:	0300                	addi	x8,x2,384
     9a9:	0e5a                	slli	x28,x28,0x16
     9ab:	0054                	addi	x13,x2,4
     9ad:	0000                	unimp
     9af:	0104                	addi	x9,x2,128
     9b1:	0400                	addi	x8,x2,512
     9b3:	0800                	addi	x8,x2,16
     9b5:	0280                	addi	x8,x2,320
     9b7:	0000                	unimp
     9b9:	0308                	addi	x10,x2,384
     9bb:	074c                	addi	x11,x2,900
     9bd:	00e5                	addi	x1,x1,25
     9bf:	0000                	unimp
     9c1:	6609                	lui	x12,0x2
     9c3:	746c                	flw	f11,108(x8)
     9c5:	0300                	addi	x8,x2,384
     9c7:	0a4e                	slli	x20,x20,0x13
     9c9:	0069                	c.nop	26
     9cb:	0000                	unimp
     9cd:	a80a                	fsd	f2,16(x2)
     9cf:	0002                	c.slli64	x0
     9d1:	0300                	addi	x8,x2,384
     9d3:	055c                	addi	x15,x2,644
     9d5:	0075                	c.nop	29
     9d7:	0000                	unimp
     9d9:	0b00                	addi	x8,x2,400
     9db:	03de                	slli	x7,x7,0x17
     9dd:	0000                	unimp
     9df:	2301                	jal	edf <printf_char+0x7>
     9e1:	2c01                	jal	bf1 <.L306+0xd>
     9e3:	0000                	unimp
     9e5:	9400                	0x9400
     9e7:	003d                	c.nop	15
     9e9:	e400                	fsw	f8,8(x8)
     9eb:	0000                	unimp
     9ed:	0100                	addi	x8,x2,128
     9ef:	449c                	lw	x15,8(x9)
     9f1:	0002                	c.slli64	x0
     9f3:	0c00                	addi	x8,x2,528
     9f5:	0061                	c.nop	24
     9f7:	2301                	jal	ef7 <printf_str+0xb>
     9f9:	6911                	lui	x18,0x4
     9fb:	0000                	unimp
     9fd:	3d00                	fld	f8,56(x10)
     9ff:	0011                	c.nop	4
     a01:	0c00                	addi	x8,x2,528
     a03:	0062                	c.slli	x0,0x18
     a05:	2301                	jal	f05 <.L43+0x9>
     a07:	0000691b          	0x691b
     a0b:	6500                	flw	f8,8(x10)
     a0d:	0011                	c.nop	4
     a0f:	0d00                	addi	x8,x2,656
     a11:	013a                	slli	x2,x2,0xe
     a13:	0000                	unimp
     a15:	2501                	jal	1015 <.LLST54+0x1>
     a17:	00003803          	0x3803
     a1b:	0000                	unimp
     a1d:	d40d                	beqz	x8,947 <.L239+0x7>
     a1f:	01000003          	lb	x0,16(x0) # 10 <.Ldebug_info0+0x10>
     a23:	0325                	addi	x6,x6,9
     a25:	0038                	addi	x14,x2,8
     a27:	0000                	unimp
     a29:	0e00                	addi	x8,x2,784
     a2b:	5f41                	li	x30,-16
     a2d:	26010063          	beqz	x2,c8d <.LLST32+0x9>
     a31:	00024403          	lbu	x8,0(x4) # 0 <.Ldebug_info0>
     a35:	0f00                	addi	x8,x2,912
     a37:	5f41                	li	x30,-16
     a39:	26010073          	0x26010073
     a3d:	00024403          	lbu	x8,0(x4) # 0 <.Ldebug_info0>
     a41:	9d00                	0x9d00
     a43:	0011                	c.nop	4
     a45:	1000                	addi	x8,x2,32
     a47:	5f41                	li	x30,-16
     a49:	0065                	c.nop	25
     a4b:	2601                	jal	d4b <.LLST37+0xb>
     a4d:	00024403          	lbu	x8,0(x4) # 0 <.Ldebug_info0>
     a51:	0100                	addi	x8,x2,128
     a53:	1160                	addi	x8,x2,172
     a55:	000001eb          	0x1eb
     a59:	2601                	jal	d59 <.LLST37+0x19>
     a5b:	00024b03          	lbu	x22,0(x4) # 0 <.Ldebug_info0>
     a5f:	0100                	addi	x8,x2,128
     a61:	1156                	slli	x2,x2,0x35
     a63:	0135                	addi	x2,x2,13
     a65:	0000                	unimp
     a67:	2601                	jal	d67 <.L33+0x7>
     a69:	00024b03          	lbu	x22,0(x4) # 0 <.Ldebug_info0>
     a6d:	0100                	addi	x8,x2,128
     a6f:	0e61                	addi	x28,x28,24
     a71:	5f42                	lw	x30,48(x2)
     a73:	27010063          	beq	x2,x16,cd3 <.LLST33+0x21>
     a77:	00024403          	lbu	x8,0(x4) # 0 <.Ldebug_info0>
     a7b:	1000                	addi	x8,x2,32
     a7d:	5f42                	lw	x30,48(x2)
     a7f:	27010073          	0x27010073
     a83:	00024403          	lbu	x8,0(x4) # 0 <.Ldebug_info0>
     a87:	0100                	addi	x8,x2,128
     a89:	105d                	c.nop	-9
     a8b:	5f42                	lw	x30,48(x2)
     a8d:	0065                	c.nop	25
     a8f:	2701                	jal	118f <.L83+0xf>
     a91:	00024403          	lbu	x8,0(x4) # 0 <.Ldebug_info0>
     a95:	0100                	addi	x8,x2,128
     a97:	020f125b          	0x20f125b
     a9b:	0000                	unimp
     a9d:	2701                	jal	119d <.LLST2>
     a9f:	00024b03          	lbu	x22,0(x4) # 0 <.Ldebug_info0>
     aa3:	f200                	fsw	f8,32(x12)
     aa5:	0011                	c.nop	4
     aa7:	1100                	addi	x8,x2,160
     aa9:	0214                	addi	x13,x2,256
     aab:	0000                	unimp
     aad:	2701                	jal	11ad <.LLST2+0x10>
     aaf:	00024b03          	lbu	x22,0(x4) # 0 <.Ldebug_info0>
     ab3:	0100                	addi	x8,x2,128
     ab5:	105e                	c.slli	x0,0x37
     ab7:	0072                	c.slli	x0,0x1c
     ab9:	2801                	jal	ac9 <.L249+0x29>
     abb:	00002c0b          	0x2c0b
     abf:	0100                	addi	x8,x2,128
     ac1:	135a                	slli	x6,x6,0x36
     ac3:	01a8                	addi	x10,x2,200
     ac5:	0000                	unimp
     ac7:	000001e3          	beqz	x0,12c9 <.LLST1+0x2f>
     acb:	f514                	fsw	f13,40(x10)
     acd:	0001                	nop
     acf:	0100                	addi	x8,x2,128
     ad1:	00bf032b          	0xbf032b
     ad5:	0000                	unimp
     ad7:	1300                	addi	x8,x2,416
     ad9:	01c0                	addi	x8,x2,196
     adb:	0000                	unimp
     add:	01f9                	addi	x3,x3,30
     adf:	0000                	unimp
     ae1:	f514                	fsw	f13,40(x10)
     ae3:	0001                	nop
     ae5:	0100                	addi	x8,x2,128
     ae7:	032c                	addi	x11,x2,392
     ae9:	000000bf 020b1500 	0x20b1500000000bf
     af1:	0000                	unimp
     af3:	f414                	fsw	f13,40(x8)
     af5:	01000003          	lb	x0,16(x0) # 10 <.Ldebug_info0+0x10>
     af9:	032d                	addi	x6,x6,11
     afb:	0038                	addi	x14,x2,8
     afd:	0000                	unimp
     aff:	1500                	addi	x8,x2,672
     b01:	021d                	addi	x4,x4,7
     b03:	0000                	unimp
     b05:	f414                	fsw	f13,40(x8)
     b07:	01000003          	lb	x0,16(x0) # 10 <.Ldebug_info0+0x10>
     b0b:	032d                	addi	x6,x6,11
     b0d:	0038                	addi	x14,x2,8
     b0f:	0000                	unimp
     b11:	1600                	addi	x8,x2,800
     b13:	01d8                	addi	x14,x2,196
     b15:	0000                	unimp
     b17:	3212                	fld	f4,288(x2)
     b19:	0004                	0x4
     b1b:	0100                	addi	x8,x2,128
     b1d:	032d                	addi	x6,x6,11
     b1f:	0038                	addi	x14,x2,8
     b21:	0000                	unimp
     b23:	0000121b          	0x121b
     b27:	4412                	lw	x8,4(x2)
     b29:	0004                	0x4
     b2b:	0100                	addi	x8,x2,128
     b2d:	032d                	addi	x6,x6,11
     b2f:	0038                	addi	x14,x2,8
     b31:	0000                	unimp
     b33:	123a                	slli	x4,x4,0x2e
     b35:	0000                	unimp
     b37:	0000                	unimp
     b39:	0402                	c.slli64	x8
     b3b:	7705                	lui	x14,0xfffe1
     b3d:	0002                	c.slli64	x0
     b3f:	0200                	addi	x8,x2,256
     b41:	0704                	addi	x9,x2,896
     b43:	021e                	slli	x4,x4,0x7
     b45:	0000                	unimp
	...

00000b48 <.Ldebug_info0>:
     b48:	0000024f          	fnmadd.s	f4,f0,f0,f0,rne
     b4c:	0004                	0x4
     b4e:	02e2                	slli	x5,x5,0x18
     b50:	0000                	unimp
     b52:	0104                	addi	x9,x2,128
     b54:	0321                	addi	x6,x6,8
     b56:	0000                	unimp
     b58:	560c                	lw	x11,40(x12)
     b5a:	0004                	0x4
     b5c:	c000                	sw	x8,0(x8)
     b5e:	0002                	c.slli64	x0
     b60:	7800                	flw	f8,48(x8)
     b62:	003e                	c.slli	x0,0xf
     b64:	e400                	fsw	f8,8(x8)
     b66:	0000                	unimp
     b68:	8500                	0x8500
     b6a:	02000013          	li	x0,32
     b6e:	0408                	addi	x10,x2,512
     b70:	0698                	addi	x14,x2,832
     b72:	0000                	unimp
     b74:	0003e603          	0x3e603
     b78:	0200                	addi	x8,x2,256
     b7a:	0d50                	addi	x12,x2,660
     b7c:	0038                	addi	x14,x2,8
     b7e:	0000                	unimp
     b80:	0404                	addi	x9,x2,512
     b82:	6905                	lui	x18,0x1
     b84:	746e                	flw	f8,248(x2)
     b86:	0200                	addi	x8,x2,256
     b88:	0601                	addi	x12,x12,0
     b8a:	010c                	addi	x11,x2,128
     b8c:	0000                	unimp
     b8e:	0802                	c.slli64	x16
     b90:	7205                	lui	x4,0xfffe1
     b92:	0002                	c.slli64	x0
     b94:	0200                	addi	x8,x2,256
     b96:	0801                	addi	x16,x16,0
     b98:	010a                	slli	x2,x2,0x2
     b9a:	0000                	unimp
     b9c:	0402                	c.slli64	x8
     b9e:	00022307          	flw	f6,0(x4) # fffe1000 <seed1_volatile+0xfffa0940>
     ba2:	0200                	addi	x8,x2,256
     ba4:	0708                	addi	x10,x2,896
     ba6:	0219                	addi	x4,x4,6
     ba8:	0000                	unimp
     baa:	0202                	c.slli64	x4
     bac:	00012207          	flw	f4,0(x2)
     bb0:	0300                	addi	x8,x2,384
     bb2:	000000a7          	0xa7
     bb6:	250f4803          	lbu	x16,592(x30)
     bba:	0000                	unimp
     bbc:	0500                	addi	x8,x2,640
     bbe:	0308                	addi	x10,x2,384
     bc0:	00bf034f          	fnmadd.s	f6,f30,f11,f0,rne
     bc4:	0000                	unimp
     bc6:	8806                	mv	x16,x1
     bc8:	0000                	unimp
     bca:	0300                	addi	x8,x2,384
     bcc:	00540e57          	0x540e57
     bd0:	0000                	unimp
     bd2:	2004                	fld	f9,0(x8)
     bd4:	0000                	unimp
     bd6:	8e06                	mv	x28,x1
     bd8:	0000                	unimp
     bda:	0300                	addi	x8,x2,384
     bdc:	0e58                	addi	x14,x2,788
     bde:	0054                	addi	x13,x2,4
     be0:	0000                	unimp
     be2:	1404                	addi	x9,x2,544
     be4:	040c                	addi	x11,x2,512
     be6:	70786507          	0x70786507
     bea:	0300                	addi	x8,x2,384
     bec:	0e59                	addi	x28,x28,22
     bee:	0054                	addi	x13,x2,4
     bf0:	0000                	unimp
     bf2:	0b04                	addi	x9,x2,400
     bf4:	0401                	addi	x8,x8,0
     bf6:	1d06                	slli	x26,x26,0x21
     bf8:	0001                	nop
     bfa:	0300                	addi	x8,x2,384
     bfc:	0e5a                	slli	x28,x28,0x16
     bfe:	0054                	addi	x13,x2,4
     c00:	0000                	unimp
     c02:	0104                	addi	x9,x2,128
     c04:	0400                	addi	x8,x2,512
     c06:	0800                	addi	x8,x2,16
     c08:	0280                	addi	x8,x2,320
     c0a:	0000                	unimp
     c0c:	0308                	addi	x10,x2,384
     c0e:	074c                	addi	x11,x2,900
     c10:	00e5                	addi	x1,x1,25
     c12:	0000                	unimp
     c14:	6609                	lui	x12,0x2
     c16:	746c                	flw	f11,108(x8)
     c18:	0300                	addi	x8,x2,384
     c1a:	0a4e                	slli	x20,x20,0x13
     c1c:	0069                	c.nop	26
     c1e:	0000                	unimp
     c20:	a80a                	fsd	f2,16(x2)
     c22:	0002                	c.slli64	x0
     c24:	0300                	addi	x8,x2,384
     c26:	055c                	addi	x15,x2,644
     c28:	0075                	c.nop	29
     c2a:	0000                	unimp
     c2c:	0b00                	addi	x8,x2,400
     c2e:	00000483          	lb	x9,0(x0) # 0 <.Ldebug_info0>
     c32:	2301                	jal	1132 <.L59+0x2>
     c34:	2c01                	jal	e44 <.L37+0x14>
     c36:	0000                	unimp
     c38:	7800                	flw	f8,48(x8)
     c3a:	003e                	c.slli	x0,0xf
     c3c:	e400                	fsw	f8,8(x8)
     c3e:	0000                	unimp
     c40:	0100                	addi	x8,x2,128
     c42:	449c                	lw	x15,8(x9)
     c44:	0002                	c.slli64	x0
     c46:	0c00                	addi	x8,x2,528
     c48:	0061                	c.nop	24
     c4a:	2301                	jal	114a <.LLST0+0xd>
     c4c:	6911                	lui	x18,0x4
     c4e:	0000                	unimp
     c50:	7200                	flw	f8,32(x12)
     c52:	0012                	c.slli	x0,0x4
     c54:	0c00                	addi	x8,x2,528
     c56:	0062                	c.slli	x0,0x18
     c58:	2301                	jal	1158 <.L82+0x8>
     c5a:	0000691b          	0x691b
     c5e:	9a00                	0x9a00
     c60:	0012                	c.slli	x0,0x4
     c62:	0d00                	addi	x8,x2,656
     c64:	013a                	slli	x2,x2,0xe
     c66:	0000                	unimp
     c68:	2501                	jal	1268 <.L87+0x18>
     c6a:	00003803          	0x3803
     c6e:	0000                	unimp
     c70:	d40d                	beqz	x8,b9a <.L255+0x2>
     c72:	01000003          	lb	x0,16(x0) # 10 <.Ldebug_info0+0x10>
     c76:	0325                	addi	x6,x6,9
     c78:	0038                	addi	x14,x2,8
     c7a:	0000                	unimp
     c7c:	0e00                	addi	x8,x2,784
     c7e:	5f41                	li	x30,-16
     c80:	26010063          	beqz	x2,ee0 <printf_char+0x8>
     c84:	00024403          	lbu	x8,0(x4) # 0 <.Ldebug_info0>
     c88:	0f00                	addi	x8,x2,912
     c8a:	5f41                	li	x30,-16
     c8c:	26010073          	0x26010073
     c90:	00024403          	lbu	x8,0(x4) # 0 <.Ldebug_info0>
     c94:	d200                	sw	x8,32(x12)
     c96:	0012                	c.slli	x0,0x4
     c98:	1000                	addi	x8,x2,32
     c9a:	5f41                	li	x30,-16
     c9c:	0065                	c.nop	25
     c9e:	2601                	jal	f9e <.Ldebug_info0+0x2e>
     ca0:	00024403          	lbu	x8,0(x4) # 0 <.Ldebug_info0>
     ca4:	0100                	addi	x8,x2,128
     ca6:	1160                	addi	x8,x2,172
     ca8:	000001eb          	0x1eb
     cac:	2601                	jal	fac <.LLST52+0x3>
     cae:	00024b03          	lbu	x22,0(x4) # 0 <.Ldebug_info0>
     cb2:	0100                	addi	x8,x2,128
     cb4:	1156                	slli	x2,x2,0x35
     cb6:	0135                	addi	x2,x2,13
     cb8:	0000                	unimp
     cba:	2601                	jal	fba <.L49+0x2>
     cbc:	00024b03          	lbu	x22,0(x4) # 0 <.Ldebug_info0>
     cc0:	0100                	addi	x8,x2,128
     cc2:	0e61                	addi	x28,x28,24
     cc4:	5f42                	lw	x30,48(x2)
     cc6:	27010063          	beq	x2,x16,f26 <ee_printf+0x12>
     cca:	00024403          	lbu	x8,0(x4) # 0 <.Ldebug_info0>
     cce:	1000                	addi	x8,x2,32
     cd0:	5f42                	lw	x30,48(x2)
     cd2:	27010073          	0x27010073
     cd6:	00024403          	lbu	x8,0(x4) # 0 <.Ldebug_info0>
     cda:	0100                	addi	x8,x2,128
     cdc:	105d                	c.nop	-9
     cde:	5f42                	lw	x30,48(x2)
     ce0:	0065                	c.nop	25
     ce2:	2701                	jal	13e2 <.L31+0x6>
     ce4:	00024403          	lbu	x8,0(x4) # 0 <.Ldebug_info0>
     ce8:	0100                	addi	x8,x2,128
     cea:	020f125b          	0x20f125b
     cee:	0000                	unimp
     cf0:	2701                	jal	13f0 <.LLST1+0x1>
     cf2:	00024b03          	lbu	x22,0(x4) # 0 <.Ldebug_info0>
     cf6:	2700                	fld	f8,8(x14)
     cf8:	11000013          	li	x0,272
     cfc:	0214                	addi	x13,x2,256
     cfe:	0000                	unimp
     d00:	2701                	jal	1400 <.L30+0x8>
     d02:	00024b03          	lbu	x22,0(x4) # 0 <.Ldebug_info0>
     d06:	0100                	addi	x8,x2,128
     d08:	105e                	c.slli	x0,0x37
     d0a:	0072                	c.slli	x0,0x1c
     d0c:	2801                	jal	d1c <.L22+0x4>
     d0e:	00002c0b          	0x2c0b
     d12:	0100                	addi	x8,x2,128
     d14:	135a                	slli	x6,x6,0x36
     d16:	01f8                	addi	x14,x2,204
     d18:	0000                	unimp
     d1a:	000001e3          	beqz	x0,151c <.L100+0x4>
     d1e:	f514                	fsw	f13,40(x10)
     d20:	0001                	nop
     d22:	0100                	addi	x8,x2,128
     d24:	00bf032b          	0xbf032b
     d28:	0000                	unimp
     d2a:	1300                	addi	x8,x2,416
     d2c:	0210                	addi	x12,x2,256
     d2e:	0000                	unimp
     d30:	01f9                	addi	x3,x3,30
     d32:	0000                	unimp
     d34:	f514                	fsw	f13,40(x10)
     d36:	0001                	nop
     d38:	0100                	addi	x8,x2,128
     d3a:	032c                	addi	x11,x2,392
     d3c:	000000bf 020b1500 	0x20b1500000000bf
     d44:	0000                	unimp
     d46:	f414                	fsw	f13,40(x8)
     d48:	01000003          	lb	x0,16(x0) # 10 <.Ldebug_info0+0x10>
     d4c:	032d                	addi	x6,x6,11
     d4e:	0038                	addi	x14,x2,8
     d50:	0000                	unimp
     d52:	1500                	addi	x8,x2,672
     d54:	021d                	addi	x4,x4,7
     d56:	0000                	unimp
     d58:	f414                	fsw	f13,40(x8)
     d5a:	01000003          	lb	x0,16(x0) # 10 <.Ldebug_info0+0x10>
     d5e:	032d                	addi	x6,x6,11
     d60:	0038                	addi	x14,x2,8
     d62:	0000                	unimp
     d64:	1600                	addi	x8,x2,800
     d66:	0228                	addi	x10,x2,264
     d68:	0000                	unimp
     d6a:	3212                	fld	f4,288(x2)
     d6c:	0004                	0x4
     d6e:	0100                	addi	x8,x2,128
     d70:	032d                	addi	x6,x6,11
     d72:	0038                	addi	x14,x2,8
     d74:	0000                	unimp
     d76:	1350                	addi	x12,x2,420
     d78:	0000                	unimp
     d7a:	4412                	lw	x8,4(x2)
     d7c:	0004                	0x4
     d7e:	0100                	addi	x8,x2,128
     d80:	032d                	addi	x6,x6,11
     d82:	0038                	addi	x14,x2,8
     d84:	0000                	unimp
     d86:	0000136f          	jal	x6,1d86 <.Ldebug_line0+0x3c>
     d8a:	0000                	unimp
     d8c:	0402                	c.slli64	x8
     d8e:	7705                	lui	x14,0xfffe1
     d90:	0002                	c.slli64	x0
     d92:	0200                	addi	x8,x2,256
     d94:	0704                	addi	x9,x2,896
     d96:	021e                	slli	x4,x4,0x7
     d98:	0000                	unimp
	...

00000d9b <.Ldebug_info0>:
     d9b:	01d1                	addi	x3,x3,20
     d9d:	0000                	unimp
     d9f:	0004                	0x4
     da1:	0440                	addi	x8,x2,516
     da3:	0000                	unimp
     da5:	0104                	addi	x9,x2,128
     da7:	0321                	addi	x6,x6,8
     da9:	0000                	unimp
     dab:	9e0c                	0x9e0c
     dad:	0004                	0x4
     daf:	c000                	sw	x8,0(x8)
     db1:	0002                	c.slli64	x0
     db3:	5c00                	lw	x8,56(x8)
     db5:	7c00003f 65000000 	0x650000007c00003f
     dbd:	0016                	c.slli	x0,0x5
     dbf:	0200                	addi	x8,x2,256
     dc1:	0408                	addi	x10,x2,512
     dc3:	0698                	addi	x14,x2,832
     dc5:	0000                	unimp
     dc7:	69050403          	lb	x8,1680(x10)
     dcb:	746e                	flw	f8,248(x2)
     dcd:	0200                	addi	x8,x2,256
     dcf:	0601                	addi	x12,x12,0
     dd1:	010c                	addi	x11,x2,128
     dd3:	0000                	unimp
     dd5:	0802                	c.slli64	x16
     dd7:	7205                	lui	x4,0xfffe1
     dd9:	0002                	c.slli64	x0
     ddb:	0200                	addi	x8,x2,256
     ddd:	0801                	addi	x16,x16,0
     ddf:	010a                	slli	x2,x2,0x2
     de1:	0000                	unimp
     de3:	d004                	sw	x9,32(x8)
     de5:	0004                	0x4
     de7:	0200                	addi	x8,x2,256
     de9:	5516014b          	0x5516014b
     ded:	0000                	unimp
     def:	0200                	addi	x8,x2,256
     df1:	0704                	addi	x9,x2,896
     df3:	00000223          	sb	x0,4(x0) # 4 <.Ldebug_info0+0x4>
     df7:	0802                	c.slli64	x16
     df9:	00021907          	0x21907
     dfd:	0200                	addi	x8,x2,256
     dff:	0702                	c.slli64	x14
     e01:	0122                	slli	x2,x2,0x8
     e03:	0000                	unimp
     e05:	a705                	j	1525 <.L100+0xd>
     e07:	0000                	unimp
     e09:	0300                	addi	x8,x2,384
     e0b:	0f48                	addi	x10,x2,916
     e0d:	0025                	c.nop	9
     e0f:	0000                	unimp
     e11:	0806                	slli	x16,x16,0x1
     e13:	c0034f03          	lbu	x30,-1024(x6)
     e17:	0000                	unimp
     e19:	0700                	addi	x8,x2,896
     e1b:	0088                	addi	x10,x2,64
     e1d:	0000                	unimp
     e1f:	550e5703          	lhu	x14,1360(x28)
     e23:	0000                	unimp
     e25:	0400                	addi	x8,x2,512
     e27:	0020                	addi	x8,x2,8
     e29:	0700                	addi	x8,x2,896
     e2b:	008e                	slli	x1,x1,0x3
     e2d:	0000                	unimp
     e2f:	550e5803          	lhu	x16,1360(x28)
     e33:	0000                	unimp
     e35:	0400                	addi	x8,x2,512
     e37:	0c14                	addi	x13,x2,528
     e39:	0804                	addi	x9,x2,16
     e3b:	7865                	lui	x16,0xffff9
     e3d:	0070                	addi	x12,x2,12
     e3f:	550e5903          	lhu	x18,1360(x28)
     e43:	0000                	unimp
     e45:	0400                	addi	x8,x2,512
     e47:	0704010b          	0x704010b
     e4b:	011d                	addi	x2,x2,7
     e4d:	0000                	unimp
     e4f:	550e5a03          	lhu	x20,1360(x28)
     e53:	0000                	unimp
     e55:	0400                	addi	x8,x2,512
     e57:	0001                	nop
     e59:	0004                	0x4
     e5b:	8009                	srli	x8,x8,0x2
     e5d:	0002                	c.slli64	x0
     e5f:	0800                	addi	x8,x2,16
     e61:	e6074c03          	lbu	x24,-416(x14) # fffe0e60 <seed1_volatile+0xfffa07a0>
     e65:	0000                	unimp
     e67:	0a00                	addi	x8,x2,272
     e69:	6c66                	flw	f24,88(x2)
     e6b:	0074                	addi	x13,x2,12
     e6d:	6a0a4e03          	lbu	x28,1696(x20)
     e71:	0000                	unimp
     e73:	0b00                	addi	x8,x2,400
     e75:	02a8                	addi	x10,x2,328
     e77:	0000                	unimp
     e79:	76055c03          	lhu	x24,1888(x10)
     e7d:	0000                	unimp
     e7f:	0000                	unimp
     e81:	d80c                	sw	x11,48(x8)
     e83:	0004                	0x4
     e85:	0100                	addi	x8,x2,128
     e87:	00480123          	sb	x4,2(x16) # ffff9002 <seed1_volatile+0xfffb8942>
     e8b:	0000                	unimp
     e8d:	3f5c                	fld	f15,184(x14)
     e8f:	0000                	unimp
     e91:	007c                	addi	x15,x2,12
     e93:	0000                	unimp
     e95:	9c01                	0x9c01
     e97:	01c6                	slli	x3,x3,0x11
     e99:	0000                	unimp
     e9b:	610d                	addi	x2,x2,160
     e9d:	0100                	addi	x8,x2,128
     e9f:	006a1623          	sh	x6,12(x20)
     ea3:	0000                	unimp
     ea5:	000013a7          	0x13a7
     ea9:	3a0e                	fld	f20,224(x2)
     eab:	0001                	nop
     ead:	0100                	addi	x8,x2,128
     eaf:	0325                	addi	x6,x6,9
     eb1:	002c                	addi	x11,x2,8
     eb3:	0000                	unimp
     eb5:	0e00                	addi	x8,x2,784
     eb7:	03d4                	addi	x13,x2,452
     eb9:	0000                	unimp
     ebb:	2501                	jal	14bb <.LLST0+0x2d>
     ebd:	00002c03          	lw	x24,0(x0) # 0 <.Ldebug_info0>
     ec1:	0000                	unimp
     ec3:	635f410f          	0x635f410f
     ec7:	0100                	addi	x8,x2,128
     ec9:	0326                	slli	x6,x6,0x9
     ecb:	01c6                	slli	x3,x3,0x11
     ecd:	0000                	unimp
     ecf:	4110                	lw	x12,0(x10)
     ed1:	735f 0100 0326      	0x3260100735f
     ed7:	01c6                	slli	x3,x3,0x11
     ed9:	0000                	unimp
     edb:	7b06                	flw	f22,96(x2)
     edd:	0800                	addi	x8,x2,16
     edf:	1aff                	0x1aff
     ee1:	119f 5f41 0065      	0x655f41119f
     ee7:	2601                	jal	11e7 <.L85+0x7>
     ee9:	0001c603          	lbu	x12,0(x3)
     eed:	ef00                	fsw	f8,24(x14)
     eef:	12000013          	li	x0,288
     ef3:	000001eb          	0x1eb
     ef7:	2601                	jal	11f7 <.LLST3+0x5>
     ef9:	0001cd03          	lbu	x26,0(x3)
     efd:	1b00                	addi	x8,x2,432
     eff:	0014                	0x14
     f01:	1200                	addi	x8,x2,288
     f03:	0135                	addi	x2,x2,13
     f05:	0000                	unimp
     f07:	2601                	jal	1207 <.L63+0xf>
     f09:	0001cd03          	lbu	x26,0(x3)
     f0d:	3900                	fld	f8,48(x10)
     f0f:	0014                	0x14
     f11:	1000                	addi	x8,x2,32
     f13:	0072                	c.slli	x0,0x1c
     f15:	2701                	jal	1615 <.L48+0x5>
     f17:	0000480b          	0x480b
     f1b:	0100                	addi	x8,x2,128
     f1d:	135a                	slli	x6,x6,0x36
     f1f:	0248                	addi	x10,x2,260
     f21:	0000                	unimp
     f23:	0199                	addi	x3,x3,6
     f25:	0000                	unimp
     f27:	f514                	fsw	f13,40(x10)
     f29:	0001                	nop
     f2b:	0100                	addi	x8,x2,128
     f2d:	032a                	slli	x6,x6,0xa
     f2f:	00c0                	addi	x8,x2,68
     f31:	0000                	unimp
     f33:	1500                	addi	x8,x2,672
     f35:	000001ab          	0x1ab
     f39:	8b14                	0x8b14
     f3b:	0004                	0x4
     f3d:	0100                	addi	x8,x2,128
     f3f:	002c032b          	0x2c032b
     f43:	0000                	unimp
     f45:	1600                	addi	x8,x2,800
     f47:	3f98                	fld	f14,56(x15)
     f49:	0000                	unimp
     f4b:	0038                	addi	x14,x2,8
     f4d:	0000                	unimp
     f4f:	8b12                	mv	x22,x4
     f51:	0004                	0x4
     f53:	0100                	addi	x8,x2,128
     f55:	002c032b          	0x2c032b
     f59:	0000                	unimp
     f5b:	147a                	slli	x8,x8,0x3e
     f5d:	0000                	unimp
     f5f:	0000                	unimp
     f61:	0402                	c.slli64	x8
     f63:	7705                	lui	x14,0xfffe1
     f65:	0002                	c.slli64	x0
     f67:	0200                	addi	x8,x2,256
     f69:	0704                	addi	x9,x2,896
     f6b:	021e                	slli	x4,x4,0x7
     f6d:	0000                	unimp
	...

00000f70 <.Ldebug_info0>:
     f70:	028a                	slli	x5,x5,0x2
     f72:	0000                	unimp
     f74:	0004                	0x4
     f76:	059e                	slli	x11,x11,0x7
     f78:	0000                	unimp
     f7a:	0104                	addi	x9,x2,128
     f7c:	0321                	addi	x6,x6,8
     f7e:	0000                	unimp
     f80:	e50c                	fsw	f11,8(x10)
     f82:	0004                	0x4
     f84:	c000                	sw	x8,0(x8)
     f86:	0002                	c.slli64	x0
     f88:	d800                	sw	x8,48(x8)
     f8a:	8000003f 05000000 	0x50000008000003f
     f92:	0018                	0x18
     f94:	0200                	addi	x8,x2,256
     f96:	0504                	addi	x9,x2,640
     f98:	6e69                	lui	x28,0x1a
     f9a:	0074                	addi	x13,x2,12
     f9c:	0c060103          	lb	x2,192(x12) # 20c0 <.L141+0x28>
     fa0:	0001                	nop
     fa2:	0300                	addi	x8,x2,384
     fa4:	0508                	addi	x10,x2,640
     fa6:	0272                	slli	x4,x4,0x1c
     fa8:	0000                	unimp
     faa:	0a080103          	lb	x2,160(x16)
     fae:	0001                	nop
     fb0:	0400                	addi	x8,x2,512
     fb2:	04d0                	addi	x12,x2,580
     fb4:	0000                	unimp
     fb6:	4b02                	lw	x22,0(x2)
     fb8:	1601                	addi	x12,x12,-32
     fba:	004e                	c.slli	x0,0x13
     fbc:	0000                	unimp
     fbe:	23070403          	lb	x8,560(x14) # fffe1230 <seed1_volatile+0xfffa0b70>
     fc2:	0002                	c.slli64	x0
     fc4:	0300                	addi	x8,x2,384
     fc6:	0708                	addi	x10,x2,896
     fc8:	0219                	addi	x4,x4,6
     fca:	0000                	unimp
     fcc:	22070203          	lb	x4,544(x14)
     fd0:	0001                	nop
     fd2:	0500                	addi	x8,x2,640
     fd4:	000000a7          	0xa7
     fd8:	6f0f4803          	lbu	x16,1776(x30)
     fdc:	0000                	unimp
     fde:	0300                	addi	x8,x2,384
     fe0:	0408                	addi	x10,x2,512
     fe2:	0698                	addi	x14,x2,832
     fe4:	0000                	unimp
     fe6:	0806                	slli	x16,x16,0x1
     fe8:	c0034f03          	lbu	x30,-1024(x6)
     fec:	0000                	unimp
     fee:	0700                	addi	x8,x2,896
     ff0:	0088                	addi	x10,x2,64
     ff2:	0000                	unimp
     ff4:	4e0e5703          	lhu	x14,1248(x28) # 1a4e0 <.L119+0x1583c>
     ff8:	0000                	unimp
     ffa:	0400                	addi	x8,x2,512
     ffc:	0020                	addi	x8,x2,8
     ffe:	0700                	addi	x8,x2,896
    1000:	008e                	slli	x1,x1,0x3
    1002:	0000                	unimp
    1004:	4e0e5803          	lhu	x16,1248(x28)
    1008:	0000                	unimp
    100a:	0400                	addi	x8,x2,512
    100c:	0c14                	addi	x13,x2,528
    100e:	0804                	addi	x9,x2,16
    1010:	7865                	lui	x16,0xffff9
    1012:	0070                	addi	x12,x2,12
    1014:	4e0e5903          	lhu	x18,1248(x28)
    1018:	0000                	unimp
    101a:	0400                	addi	x8,x2,512
    101c:	0704010b          	0x704010b
    1020:	011d                	addi	x2,x2,7
    1022:	0000                	unimp
    1024:	4e0e5a03          	lhu	x20,1248(x28)
    1028:	0000                	unimp
    102a:	0400                	addi	x8,x2,512
    102c:	0001                	nop
    102e:	0004                	0x4
    1030:	8009                	srli	x8,x8,0x2
    1032:	0002                	c.slli64	x0
    1034:	0800                	addi	x8,x2,16
    1036:	e6074c03          	lbu	x24,-416(x14)
    103a:	0000                	unimp
    103c:	0a00                	addi	x8,x2,272
    103e:	6c66                	flw	f24,88(x2)
    1040:	0074                	addi	x13,x2,12
    1042:	630a4e03          	lbu	x28,1584(x20)
    1046:	0000                	unimp
    1048:	0b00                	addi	x8,x2,400
    104a:	02a8                	addi	x10,x2,328
    104c:	0000                	unimp
    104e:	76055c03          	lhu	x24,1888(x10)
    1052:	0000                	unimp
    1054:	0000                	unimp
    1056:	c90c                	sw	x11,16(x10)
    1058:	0005                	c.nop	1
    105a:	0100                	addi	x8,x2,128
    105c:	0124                	addi	x9,x2,136
    105e:	00000063          	beqz	x0,105e <.LLST56+0x3>
    1062:	3fd8                	fld	f14,184(x15)
    1064:	0000                	unimp
    1066:	0080                	addi	x8,x2,64
    1068:	0000                	unimp
    106a:	9c01                	0x9c01
    106c:	0276                	slli	x4,x4,0x1d
    106e:	0000                	unimp
    1070:	690d                	lui	x18,0x3
    1072:	0100                	addi	x8,x2,128
    1074:	1824                	addi	x9,x2,56
    1076:	0041                	c.nop	16
    1078:	0000                	unimp
    107a:	148e                	slli	x9,x9,0x23
    107c:	0000                	unimp
    107e:	410e                	lw	x2,192(x2)
    1080:	635f 0100 0326      	0x3260100635f
    1086:	0276                	slli	x4,x4,0x1d
    1088:	0000                	unimp
    108a:	735f410f          	0x735f410f
    108e:	0100                	addi	x8,x2,128
    1090:	0326                	slli	x6,x6,0x9
    1092:	0276                	slli	x4,x4,0x1d
    1094:	0000                	unimp
    1096:	14de                	slli	x9,x9,0x37
    1098:	0000                	unimp
    109a:	655f410f          	0x655f410f
    109e:	0100                	addi	x8,x2,128
    10a0:	0326                	slli	x6,x6,0x9
    10a2:	0276                	slli	x4,x4,0x1d
    10a4:	0000                	unimp
    10a6:	14f2                	slli	x9,x9,0x3c
    10a8:	0000                	unimp
    10aa:	eb10                	fsw	f12,16(x14)
    10ac:	0001                	nop
    10ae:	0100                	addi	x8,x2,128
    10b0:	0326                	slli	x6,x6,0x9
    10b2:	027d                	addi	x4,x4,31
    10b4:	0000                	unimp
    10b6:	1510                	addi	x12,x2,672
    10b8:	0000                	unimp
    10ba:	3510                	fld	f12,40(x10)
    10bc:	0001                	nop
    10be:	0100                	addi	x8,x2,128
    10c0:	0326                	slli	x6,x6,0x9
    10c2:	027d                	addi	x4,x4,31
    10c4:	0000                	unimp
    10c6:	1545                	addi	x10,x10,-15
    10c8:	0000                	unimp
    10ca:	610e                	flw	f2,192(x2)
    10cc:	0100                	addi	x8,x2,128
    10ce:	00630a27          	0x630a27
    10d2:	0000                	unimp
    10d4:	6811                	lui	x16,0x4
    10d6:	0002                	c.slli64	x0
    10d8:	6300                	flw	f8,0(x14)
    10da:	0002                	c.slli64	x0
    10dc:	1200                	addi	x8,x2,288
    10de:	052d                	addi	x10,x10,11
    10e0:	0000                	unimp
    10e2:	2901                	jal	14f2 <.LLST2>
    10e4:	02881303          	lh	x6,40(x16) # 4028 <.LVL9>
    10e8:	0000                	unimp
    10ea:	6810                	flw	f12,16(x8)
    10ec:	0005                	c.nop	1
    10ee:	0100                	addi	x8,x2,128
    10f0:	0329                	addi	x6,x6,10
    10f2:	0041                	c.nop	16
    10f4:	0000                	unimp
    10f6:	0000157b          	0x157b
    10fa:	a011                	j	10fe <.L58+0x12>
    10fc:	0002                	c.slli64	x0
    10fe:	ad00                	fsd	f8,24(x10)
    1100:	0001                	nop
    1102:	1000                	addi	x8,x2,32
    1104:	05a4                	addi	x9,x2,712
    1106:	0000                	unimp
    1108:	2901                	jal	1518 <.L100>
    110a:	00002503          	lw	x10,0(x0) # 0 <.Ldebug_info0>
    110e:	b200                	fsd	f8,32(x12)
    1110:	0015                	c.nop	5
    1112:	1400                	addi	x8,x2,544
    1114:	3ff0                	fld	f12,248(x15)
    1116:	0000                	unimp
    1118:	0284                	addi	x9,x2,320
    111a:	0000                	unimp
    111c:	1500                	addi	x8,x2,672
    111e:	4f16                	lw	x30,68(x2)
    1120:	0005                	c.nop	1
    1122:	0100                	addi	x8,x2,128
    1124:	0329                	addi	x6,x6,10
    1126:	0025                	c.nop	9
    1128:	0000                	unimp
    112a:	00022e17          	auipc	x28,0x22
    112e:	1600                	addi	x8,x2,800
    1130:	05b4                	addi	x13,x2,712
    1132:	0000                	unimp
    1134:	2901                	jal	1544 <.L39+0x4>
    1136:	00027603          	0x27603
    113a:	1600                	addi	x8,x2,800
    113c:	0518                	addi	x14,x2,640
    113e:	0000                	unimp
    1140:	2901                	jal	1550 <.L65+0x4>
    1142:	00027603          	0x27603
    1146:	1600                	addi	x8,x2,800
    1148:	053a                	slli	x10,x10,0xe
    114a:	0000                	unimp
    114c:	2901                	jal	155c <.L65+0x10>
    114e:	00027603          	0x27603
    1152:	1600                	addi	x8,x2,800
    1154:	0578                	addi	x14,x2,652
    1156:	0000                	unimp
    1158:	2901                	jal	1568 <.L65+0x1c>
    115a:	00027d03          	0x27d03
    115e:	1600                	addi	x8,x2,800
    1160:	058e                	slli	x11,x11,0x3
    1162:	0000                	unimp
    1164:	2901                	jal	1574 <.L36>
    1166:	00027d03          	0x27d03
    116a:	1700                	addi	x8,x2,928
    116c:	020d                	addi	x4,x4,3
    116e:	0000                	unimp
    1170:	5f0e                	lw	x30,224(x2)
    1172:	785f 0100 0329      	0x3290100785f
    1178:	027d                	addi	x4,x4,31
    117a:	0000                	unimp
    117c:	1700                	addi	x8,x2,928
    117e:	021f 0000 5f0e      	0x5f0e0000021f
    1184:	785f 0100 0329      	0x3290100785f
    118a:	027d                	addi	x4,x4,31
    118c:	0000                	unimp
    118e:	1500                	addi	x8,x2,672
    1190:	5f0e                	lw	x30,224(x2)
    1192:	785f 0100 0329      	0x3290100785f
    1198:	027d                	addi	x4,x4,31
    119a:	0000                	unimp
    119c:	0000                	unimp
    119e:	00024017          	auipc	x0,0x24
    11a2:	0e00                	addi	x8,x2,784
    11a4:	5f5f 0078 2901      	0x290100785f5f
    11aa:	00027d03          	0x27d03
    11ae:	0000                	unimp
    11b0:	00025217          	auipc	x4,0x25
    11b4:	0e00                	addi	x8,x2,784
    11b6:	5f5f 0078 2901      	0x290100785f5f
    11bc:	00027d03          	0x27d03
    11c0:	0000                	unimp
    11c2:	0e15                	addi	x28,x28,5
    11c4:	5f5f 0078 2901      	0x290100785f5f
    11ca:	00027d03          	0x27d03
    11ce:	0000                	unimp
    11d0:	0000                	unimp
    11d2:	1300                	addi	x8,x2,416
    11d4:	02b8                	addi	x14,x2,328
    11d6:	0000                	unimp
    11d8:	9416                	add	x8,x8,x5
    11da:	0000                	unimp
    11dc:	0100                	addi	x8,x2,128
    11de:	032a                	slli	x6,x6,0xa
    11e0:	00c0                	addi	x8,x2,68
    11e2:	0000                	unimp
    11e4:	0000                	unimp
    11e6:	77050403          	lb	x8,1904(x10)
    11ea:	0002                	c.slli64	x0
    11ec:	0300                	addi	x8,x2,384
    11ee:	0704                	addi	x9,x2,896
    11f0:	021e                	slli	x4,x4,0x7
    11f2:	0000                	unimp
    11f4:	b718                	fsd	f14,40(x14)
    11f6:	0002                	c.slli64	x0
    11f8:	b700                	fsd	f8,40(x14)
    11fa:	0002                	c.slli64	x0
    11fc:	0000                	unimp
    11fe:	0022                	c.slli	x0,0x8
    1200:	0000                	unimp
    1202:	0002                	c.slli64	x0
    1204:	0702                	c.slli64	x14
    1206:	0000                	unimp
    1208:	0104                	addi	x9,x2,128
    120a:	1a6e                	slli	x20,x20,0x3b
    120c:	0000                	unimp
    120e:	4058                	lw	x14,4(x8)
    1210:	0000                	unimp
    1212:	407c                	lw	x15,68(x8)
    1214:	0000                	unimp
    1216:	000005d7          	0x5d7
    121a:	02c0                	addi	x8,x2,324
    121c:	0000                	unimp
    121e:	060a                	slli	x12,x12,0x2
    1220:	0000                	unimp
    1222:	8001                	c.srli64	x8
    1224:	0022                	c.slli	x0,0x8
    1226:	0000                	unimp
    1228:	0002                	c.slli64	x0
    122a:	0716                	slli	x14,x14,0x5
    122c:	0000                	unimp
    122e:	0104                	addi	x9,x2,128
    1230:	1b01                	addi	x22,x22,-32
    1232:	0000                	unimp
    1234:	407c                	lw	x15,68(x8)
    1236:	0000                	unimp
    1238:	4130                	lw	x12,64(x10)
    123a:	0000                	unimp
    123c:	0616                	slli	x12,x12,0x5
    123e:	0000                	unimp
    1240:	02c0                	addi	x8,x2,324
    1242:	0000                	unimp
    1244:	060a                	slli	x12,x12,0x2
    1246:	0000                	unimp
    1248:	8001                	c.srli64	x8

0000124a <.Ldebug_info0>:
    124a:	0140                	addi	x8,x2,132
    124c:	0000                	unimp
    124e:	0004                	0x4
    1250:	072a                	slli	x14,x14,0xa
    1252:	0000                	unimp
    1254:	0104                	addi	x9,x2,128
    1256:	0321                	addi	x6,x6,8
    1258:	0000                	unimp
    125a:	460c                	lw	x11,8(x12)
    125c:	0006                	c.slli	x0,0x1
    125e:	c000                	sw	x8,0(x8)
    1260:	0002                	c.slli64	x0
    1262:	3000                	fld	f8,32(x8)
    1264:	0041                	c.nop	16
    1266:	4c00                	lw	x8,24(x8)
    1268:	0000                	unimp
    126a:	6a00                	flw	f8,16(x12)
    126c:	001c                	0x1c
    126e:	0200                	addi	x8,x2,256
    1270:	0504                	addi	x9,x2,640
    1272:	6e69                	lui	x28,0x1a
    1274:	0074                	addi	x13,x2,12
    1276:	23070403          	lb	x8,560(x14)
    127a:	0002                	c.slli64	x0
    127c:	0300                	addi	x8,x2,384
    127e:	0508                	addi	x10,x2,640
    1280:	0272                	slli	x4,x4,0x1c
    1282:	0000                	unimp
    1284:	93041003          	lh	x0,-1744(x8)
    1288:	0006                	c.slli	x0,0x1
    128a:	0300                	addi	x8,x2,384
    128c:	0601                	addi	x12,x12,0
    128e:	010c                	addi	x11,x2,128
    1290:	0000                	unimp
    1292:	0a080103          	lb	x2,160(x16)
    1296:	0001                	nop
    1298:	0300                	addi	x8,x2,384
    129a:	0502                	c.slli64	x10
    129c:	06b5                	addi	x13,x13,13
    129e:	0000                	unimp
    12a0:	22070203          	lb	x4,544(x14)
    12a4:	0001                	nop
    12a6:	0300                	addi	x8,x2,384
    12a8:	0504                	addi	x9,x2,640
    12aa:	00000277          	0x277
    12ae:	1e070403          	lb	x8,480(x14)
    12b2:	0002                	c.slli64	x0
    12b4:	0300                	addi	x8,x2,384
    12b6:	0708                	addi	x10,x2,896
    12b8:	0219                	addi	x4,x4,6
    12ba:	0000                	unimp
    12bc:	13080103          	lb	x2,304(x16)
    12c0:	0001                	nop
    12c2:	0400                	addi	x8,x2,512
    12c4:	06ad                	addi	x13,x13,11
    12c6:	0000                	unimp
    12c8:	7b02                	flw	f22,32(x2)
    12ca:	4816                	lw	x16,68(x2)
    12cc:	0000                	unimp
    12ce:	0500                	addi	x8,x2,640
    12d0:	0079                	c.nop	30
    12d2:	0000                	unimp
    12d4:	d104                	sw	x9,32(x10)
    12d6:	0004                	0x4
    12d8:	0200                	addi	x8,x2,256
    12da:	0f80                	addi	x8,x2,976
    12dc:	0025                	c.nop	9
    12de:	0000                	unimp
    12e0:	d004                	sw	x9,32(x8)
    12e2:	0004                	0x4
    12e4:	0200                	addi	x8,x2,256
    12e6:	1681                	addi	x13,x13,-32
    12e8:	002c                	addi	x11,x2,8
    12ea:	0000                	unimp
    12ec:	a7040403          	lb	x8,-1424(x8)
    12f0:	0006                	c.slli	x0,0x1
    12f2:	0300                	addi	x8,x2,384
    12f4:	0308                	addi	x10,x2,384
    12f6:	069f 0000 0803      	0x8030000069f
    12fc:	9804                	0x9804
    12fe:	0006                	c.slli	x0,0x1
    1300:	0300                	addi	x8,x2,384
    1302:	0310                	addi	x12,x2,384
    1304:	066d                	addi	x12,x12,27
    1306:	0000                	unimp
    1308:	8b032003          	lw	x0,-1872(x6)
    130c:	0006                	c.slli	x0,0x1
    130e:	0600                	addi	x8,x2,768
    1310:	0085                	addi	x1,x1,1
    1312:	0000                	unimp
    1314:	00d5                	addi	x1,x1,21
    1316:	0000                	unimp
    1318:	00002c07          	flw	f24,0(x0) # 0 <.Ldebug_info0>
    131c:	ff00                	fsw	f8,56(x14)
    131e:	0500                	addi	x8,x2,640
    1320:	00c5                	addi	x1,x1,17
    1322:	0000                	unimp
    1324:	8108                	0x8108
    1326:	0006                	c.slli	x0,0x1
    1328:	0200                	addi	x8,x2,256
    132a:	0202                	c.slli64	x4
    132c:	d516                	sw	x5,168(x2)
    132e:	0000                	unimp
    1330:	0900                	addi	x8,x2,144
    1332:	000002b7          	lui	x5,0x0
    1336:	c201                	beqz	x12,1336 <.LLST3+0xf>
    1338:	0102                	c.slli64	x2
    133a:	0025                	c.nop	9
    133c:	0000                	unimp
    133e:	4130                	lw	x12,64(x10)
    1340:	0000                	unimp
    1342:	004c                	addi	x11,x2,4
    1344:	0000                	unimp
    1346:	9c01                	0x9c01
    1348:	780a                	flw	f16,160(x2)
    134a:	0100                	addi	x8,x2,128
    134c:	02c2                	slli	x5,x5,0x10
    134e:	9612                	add	x12,x12,x4
    1350:	0000                	unimp
    1352:	dd00                	sw	x8,56(x10)
    1354:	0015                	c.nop	5
    1356:	0b00                	addi	x8,x2,400
    1358:	6572                	flw	f10,28(x2)
    135a:	0074                	addi	x13,x2,12
    135c:	c401                	beqz	x8,1364 <.LLST4+0x14>
    135e:	0902                	c.slli64	x18
    1360:	008a                	slli	x1,x1,0x2
    1362:	0000                	unimp
    1364:	d80c                	sw	x11,48(x8)
    1366:	0002                	c.slli64	x0
    1368:	0d00                	addi	x8,x2,656
    136a:	067c                	addi	x15,x2,780
    136c:	0000                	unimp
    136e:	c601                	beqz	x12,1376 <.LLST5+0x7>
    1370:	0302                	c.slli64	x6
    1372:	0096                	slli	x1,x1,0x5
    1374:	0000                	unimp
    1376:	1609                	addi	x12,x12,-30
    1378:	0000                	unimp
    137a:	5f0e                	lw	x30,224(x2)
    137c:	615f 0100 02c6      	0x2c60100615f
    1382:	00009603          	lh	x12,0(x1)
    1386:	3500                	fld	f8,40(x10)
    1388:	0016                	c.slli	x0,0x5
    138a:	0000                	unimp
	...

0000138e <.Ldebug_info0>:
    138e:	000000d3          	fadd.s	f1,f0,f0,rne
    1392:	0004                	0x4
    1394:	07f4                	addi	x13,x2,972
    1396:	0000                	unimp
    1398:	0104                	addi	x9,x2,128
    139a:	0321                	addi	x6,x6,8
    139c:	0000                	unimp
    139e:	460c                	lw	x11,8(x12)
    13a0:	0006                	c.slli	x0,0x1
    13a2:	c000                	sw	x8,0(x8)
    13a4:	0002                	c.slli64	x0
    13a6:	4a00                	lw	x8,16(x12)
    13a8:	001d                	c.nop	7
    13aa:	0200                	addi	x8,x2,256
    13ac:	0504                	addi	x9,x2,640
    13ae:	6e69                	lui	x28,0x1a
    13b0:	0074                	addi	x13,x2,12
    13b2:	23070403          	lb	x8,560(x14)
    13b6:	0002                	c.slli64	x0
    13b8:	0300                	addi	x8,x2,384
    13ba:	0508                	addi	x10,x2,640
    13bc:	0272                	slli	x4,x4,0x1c
    13be:	0000                	unimp
    13c0:	93041003          	lh	x0,-1744(x8)
    13c4:	0006                	c.slli	x0,0x1
    13c6:	0300                	addi	x8,x2,384
    13c8:	0601                	addi	x12,x12,0
    13ca:	010c                	addi	x11,x2,128
    13cc:	0000                	unimp
    13ce:	0a080103          	lb	x2,160(x16)
    13d2:	0001                	nop
    13d4:	0300                	addi	x8,x2,384
    13d6:	0502                	c.slli64	x10
    13d8:	06b5                	addi	x13,x13,13
    13da:	0000                	unimp
    13dc:	22070203          	lb	x4,544(x14)
    13e0:	0001                	nop
    13e2:	0300                	addi	x8,x2,384
    13e4:	0504                	addi	x9,x2,640
    13e6:	00000277          	0x277
    13ea:	1e070403          	lb	x8,480(x14)
    13ee:	0002                	c.slli64	x0
    13f0:	0300                	addi	x8,x2,384
    13f2:	0708                	addi	x10,x2,896
    13f4:	0219                	addi	x4,x4,6
    13f6:	0000                	unimp
    13f8:	13080103          	lb	x2,304(x16)
    13fc:	0001                	nop
    13fe:	0400                	addi	x8,x2,512
    1400:	06ad                	addi	x13,x13,11
    1402:	0000                	unimp
    1404:	7b01                	lui	x22,0xfffe0
    1406:	4016                	0x4016
    1408:	0000                	unimp
    140a:	0500                	addi	x8,x2,640
    140c:	0071                	c.nop	28
    140e:	0000                	unimp
    1410:	a7040403          	lb	x8,-1424(x8)
    1414:	0006                	c.slli	x0,0x1
    1416:	0300                	addi	x8,x2,384
    1418:	0308                	addi	x10,x2,384
    141a:	069f 0000 0803      	0x8030000069f
    1420:	9804                	0x9804
    1422:	0006                	c.slli	x0,0x1
    1424:	0300                	addi	x8,x2,384
    1426:	0310                	addi	x12,x2,384
    1428:	066d                	addi	x12,x12,27
    142a:	0000                	unimp
    142c:	8b032003          	lw	x0,-1872(x6)
    1430:	0006                	c.slli	x0,0x1
    1432:	0600                	addi	x8,x2,768
    1434:	007d                	c.nop	31
    1436:	0000                	unimp
    1438:	00b5                	addi	x1,x1,13
    143a:	0000                	unimp
    143c:	00002407          	flw	f8,0(x0) # 0 <.Ldebug_info0>
    1440:	ff00                	fsw	f8,56(x14)
    1442:	0500                	addi	x8,x2,640
    1444:	00a5                	addi	x1,x1,9
    1446:	0000                	unimp
    1448:	8108                	0x8108
    144a:	0006                	c.slli	x0,0x1
    144c:	0100                	addi	x8,x2,128
    144e:	0202                	c.slli64	x4
    1450:	b516                	fsd	f5,168(x2)
    1452:	0000                	unimp
    1454:	0900                	addi	x8,x2,144
    1456:	00ba                	slli	x1,x1,0xe
    1458:	0000                	unimp
    145a:	b202                	fsd	f0,288(x2)
    145c:	0f02                	c.slli64	x30
    145e:	0305                	addi	x6,x6,1
    1460:	00b0                	addi	x12,x2,72
    1462:	0004                	0x4
	...

Disassembly of section .debug_abbrev:

00000000 <.Ldebug_abbrev0>:
   0:	1101                	addi	x2,x2,-32
   2:	2501                	jal	602 <.L119+0x22>
   4:	130e                	slli	x6,x6,0x23
   6:	1b0e030b          	0x1b0e030b
   a:	110e                	slli	x2,x2,0x23
   c:	1201                	addi	x4,x4,-32
   e:	1006                	c.slli	x0,0x21
  10:	02000017          	auipc	x0,0x2000
  14:	0024                	addi	x9,x2,8
  16:	0b3e0b0b          	0xb3e0b0b
  1a:	00000e03          	lb	x28,0(x0) # 0 <.Ldebug_abbrev0>
  1e:	0b002403          	lw	x8,176(x0) # b0 <.LASF36+0x2>
  22:	030b3e0b          	0x30b3e0b
  26:	0008                	0x8
  28:	0400                	addi	x8,x2,512
  2a:	0016                	c.slli	x0,0x5
  2c:	0b3a0e03          	lb	x28,179(x20)
  30:	0b39053b          	0xb39053b
  34:	1349                	addi	x6,x6,-14
  36:	0000                	unimp
  38:	1605                	addi	x12,x12,-31
  3a:	0300                	addi	x8,x2,384
  3c:	3a0e                	fld	f20,224(x2)
  3e:	390b3b0b          	0x390b3b0b
  42:	0013490b          	0x13490b
  46:	0600                	addi	x8,x2,768
  48:	0b0b0113          	addi	x2,x22,176 # fffe00b0 <seed1_volatile+0xfff9f9f0>
  4c:	0b3a                	slli	x22,x22,0xe
  4e:	0b390b3b          	0xb390b3b
  52:	1301                	addi	x6,x6,-32
  54:	0000                	unimp
  56:	03000d07          	0x3000d07
  5a:	3a0e                	fld	f20,224(x2)
  5c:	390b3b0b          	0x390b3b0b
  60:	0b13490b          	0xb13490b
  64:	0c0b0d0b          	0xc0b0d0b
  68:	000b380b          	0xb380b
  6c:	0800                	addi	x8,x2,16
  6e:	000d                	c.nop	3
  70:	0b3a0803          	lb	x16,179(x20)
  74:	0b390b3b          	0xb390b3b
  78:	1349                	addi	x6,x6,-14
  7a:	0b0d0b0b          	0xb0d0b0b
  7e:	0b0c                	addi	x11,x2,400
  80:	0b38                	addi	x14,x2,408
  82:	0000                	unimp
  84:	1709                	addi	x14,x14,-30
  86:	0301                	addi	x6,x6,0
  88:	0b0e                	slli	x22,x22,0x3
  8a:	3b0b3a0b          	0x3b0b3a0b
  8e:	010b390b          	0x10b390b
  92:	0a000013          	li	x0,160
  96:	000d                	c.nop	3
  98:	0b3a0803          	lb	x16,179(x20)
  9c:	0b390b3b          	0xb390b3b
  a0:	1349                	addi	x6,x6,-14
  a2:	0000                	unimp
  a4:	03000d0b          	0x3000d0b
  a8:	3a0e                	fld	f20,224(x2)
  aa:	390b3b0b          	0x390b3b0b
  ae:	0013490b          	0x13490b
  b2:	0c00                	addi	x8,x2,528
  b4:	012e                	slli	x2,x2,0xb
  b6:	0e03193f 0b3b0b3a 	0xb3b0b3a0e03193f
  be:	0b39                	addi	x22,x22,14
  c0:	13491927          	0x13491927
  c4:	0111                	addi	x2,x2,4
  c6:	0612                	slli	x12,x12,0x4
  c8:	1840                	addi	x8,x2,52
  ca:	01194297          	auipc	x5,0x1194
  ce:	0d000013          	li	x0,208
  d2:	0005                	c.nop	1
  d4:	0b3a0803          	lb	x16,179(x20)
  d8:	0b390b3b          	0xb390b3b
  dc:	1349                	addi	x6,x6,-14
  de:	1702                	slli	x14,x14,0x20
  e0:	0000                	unimp
  e2:	340e                	fld	f8,224(x2)
  e4:	0300                	addi	x8,x2,384
  e6:	3a0e                	fld	f20,224(x2)
  e8:	390b3b0b          	0x390b3b0b
  ec:	0213490b          	0x213490b
  f0:	0f000017          	auipc	x0,0xf000
  f4:	0034                	addi	x13,x2,8
  f6:	0b3a0e03          	lb	x28,179(x20)
  fa:	0b390b3b          	0xb390b3b
  fe:	1349                	addi	x6,x6,-14
 100:	0b1c                	addi	x15,x2,400
 102:	0000                	unimp
 104:	3410                	fld	f12,40(x8)
 106:	0300                	addi	x8,x2,384
 108:	3a08                	fld	f10,48(x12)
 10a:	390b3b0b          	0x390b3b0b
 10e:	0213490b          	0x213490b
 112:	11000017          	auipc	x0,0x11000
 116:	0034                	addi	x13,x2,8
 118:	0b3a0803          	lb	x16,179(x20)
 11c:	0b390b3b          	0xb390b3b
 120:	1349                	addi	x6,x6,-14
 122:	0000                	unimp
 124:	0b12                	slli	x22,x22,0x4
 126:	5501                	li	x10,-32
 128:	00130117          	auipc	x2,0x130
 12c:	1300                	addi	x8,x2,416
 12e:	0034                	addi	x13,x2,8
 130:	0b3a0e03          	lb	x28,179(x20)
 134:	0b390b3b          	0xb390b3b
 138:	1349                	addi	x6,x6,-14
 13a:	0000                	unimp
 13c:	8914                	0x8914
 13e:	0182                	c.slli64	x3
 140:	1100                	addi	x8,x2,160
 142:	3101                	jal	fffffd42 <seed1_volatile+0xfffbf682>
 144:	15000013          	li	x0,336
 148:	0111010b          	0x111010b
 14c:	0612                	slli	x12,x12,0x4
 14e:	1301                	addi	x6,x6,-32
 150:	0000                	unimp
 152:	3416                	fld	f8,352(x2)
 154:	0300                	addi	x8,x2,384
 156:	3a0e                	fld	f20,224(x2)
 158:	390b3b0b          	0x390b3b0b
 15c:	0213490b          	0x213490b
 160:	0018                	0x18
 162:	1700                	addi	x8,x2,928
 164:	1755010b          	0x1755010b
 168:	0000                	unimp
 16a:	0b18                	addi	x14,x2,400
 16c:	0101                	addi	x2,x2,0
 16e:	19000013          	li	x0,400
 172:	0000010b          	0x10b
 176:	2e1a                	fld	f28,384(x2)
 178:	3f00                	fld	f8,56(x14)
 17a:	3c19                	jal	fffffb90 <seed1_volatile+0xfffbf4d0>
 17c:	6e19                	lui	x28,0x6
 17e:	030e                	slli	x6,x6,0x3
 180:	000e                	c.slli	x0,0x3
	...

00000184 <.Ldebug_abbrev0>:
 184:	1101                	addi	x2,x2,-32
 186:	2501                	jal	786 <.L129+0x26>
 188:	130e                	slli	x6,x6,0x23
 18a:	1b0e030b          	0x1b0e030b
 18e:	110e                	slli	x2,x2,0x23
 190:	1201                	addi	x4,x4,-32
 192:	1006                	c.slli	x0,0x21
 194:	02000017          	auipc	x0,0x2000
 198:	0024                	addi	x9,x2,8
 19a:	0b3e0b0b          	0xb3e0b0b
 19e:	00000e03          	lb	x28,0(x0) # 0 <.Ldebug_abbrev0>
 1a2:	03001603          	lh	x12,48(x0) # 30 <get_seed_32>
 1a6:	3a0e                	fld	f20,224(x2)
 1a8:	390b3b0b          	0x390b3b0b
 1ac:	0013490b          	0x13490b
 1b0:	0400                	addi	x8,x2,512
 1b2:	0024                	addi	x9,x2,8
 1b4:	0b3e0b0b          	0xb3e0b0b
 1b8:	00000803          	lb	x16,0(x0) # 0 <.Ldebug_abbrev0>
 1bc:	1305                	addi	x6,x6,-31
 1be:	0b01                	addi	x22,x22,0
 1c0:	3b0b3a0b          	0x3b0b3a0b
 1c4:	010b390b          	0x10b390b
 1c8:	06000013          	li	x0,96
 1cc:	000d                	c.nop	3
 1ce:	0b3a0e03          	lb	x28,179(x20)
 1d2:	0b390b3b          	0xb390b3b
 1d6:	1349                	addi	x6,x6,-14
 1d8:	0b0d0b0b          	0xb0d0b0b
 1dc:	0b0c                	addi	x11,x2,400
 1de:	0b38                	addi	x14,x2,408
 1e0:	0000                	unimp
 1e2:	03000d07          	0x3000d07
 1e6:	3a08                	fld	f10,48(x12)
 1e8:	390b3b0b          	0x390b3b0b
 1ec:	0b13490b          	0xb13490b
 1f0:	0c0b0d0b          	0xc0b0d0b
 1f4:	000b380b          	0xb380b
 1f8:	0800                	addi	x8,x2,16
 1fa:	0e030117          	auipc	x2,0xe030
 1fe:	0b3a0b0b          	0xb3a0b0b
 202:	0b390b3b          	0xb390b3b
 206:	1301                	addi	x6,x6,-32
 208:	0000                	unimp
 20a:	0d09                	addi	x26,x26,2
 20c:	0300                	addi	x8,x2,384
 20e:	3a08                	fld	f10,48(x12)
 210:	390b3b0b          	0x390b3b0b
 214:	0013490b          	0x13490b
 218:	0a00                	addi	x8,x2,272
 21a:	000d                	c.nop	3
 21c:	0b3a0e03          	lb	x28,179(x20)
 220:	0b390b3b          	0xb390b3b
 224:	1349                	addi	x6,x6,-14
 226:	0000                	unimp
 228:	3f012e0b          	0x3f012e0b
 22c:	0319                	addi	x6,x6,6
 22e:	3a0e                	fld	f20,224(x2)
 230:	390b3b0b          	0x390b3b0b
 234:	4919270b          	0x4919270b
 238:	12011113          	0x12011113
 23c:	4006                	0x4006
 23e:	9718                	0x9718
 240:	1942                	slli	x18,x18,0x30
 242:	1301                	addi	x6,x6,-32
 244:	0000                	unimp
 246:	050c                	addi	x11,x2,640
 248:	0300                	addi	x8,x2,384
 24a:	3a08                	fld	f10,48(x12)
 24c:	390b3b0b          	0x390b3b0b
 250:	0213490b          	0x213490b
 254:	0d000017          	auipc	x0,0xd000
 258:	0034                	addi	x13,x2,8
 25a:	0b3a0e03          	lb	x28,179(x20)
 25e:	0b390b3b          	0xb390b3b
 262:	1349                	addi	x6,x6,-14
 264:	0b1c                	addi	x15,x2,400
 266:	0000                	unimp
 268:	340e                	fld	f8,224(x2)
 26a:	0300                	addi	x8,x2,384
 26c:	3a08                	fld	f10,48(x12)
 26e:	390b3b0b          	0x390b3b0b
 272:	0013490b          	0x13490b
 276:	0f00                	addi	x8,x2,912
 278:	0034                	addi	x13,x2,8
 27a:	0b3a0803          	lb	x16,179(x20)
 27e:	0b390b3b          	0xb390b3b
 282:	1349                	addi	x6,x6,-14
 284:	1702                	slli	x14,x14,0x20
 286:	0000                	unimp
 288:	3410                	fld	f12,40(x8)
 28a:	0300                	addi	x8,x2,384
 28c:	3a08                	fld	f10,48(x12)
 28e:	390b3b0b          	0x390b3b0b
 292:	0213490b          	0x213490b
 296:	0018                	0x18
 298:	1100                	addi	x8,x2,160
 29a:	0034                	addi	x13,x2,8
 29c:	0b3a0e03          	lb	x28,179(x20)
 2a0:	0b390b3b          	0xb390b3b
 2a4:	1349                	addi	x6,x6,-14
 2a6:	1802                	slli	x16,x16,0x20
 2a8:	0000                	unimp
 2aa:	3412                	fld	f8,288(x2)
 2ac:	0300                	addi	x8,x2,384
 2ae:	3a0e                	fld	f20,224(x2)
 2b0:	390b3b0b          	0x390b3b0b
 2b4:	0213490b          	0x213490b
 2b8:	13000017          	auipc	x0,0x13000
 2bc:	1755010b          	0x1755010b
 2c0:	1301                	addi	x6,x6,-32
 2c2:	0000                	unimp
 2c4:	3414                	fld	f13,40(x8)
 2c6:	0300                	addi	x8,x2,384
 2c8:	3a0e                	fld	f20,224(x2)
 2ca:	390b3b0b          	0x390b3b0b
 2ce:	0013490b          	0x13490b
 2d2:	1500                	addi	x8,x2,672
 2d4:	1301010b          	0x1301010b
 2d8:	0000                	unimp
 2da:	0b16                	slli	x22,x22,0x5
 2dc:	5501                	li	x10,-32
 2de:	00000017          	auipc	x0,0x0

000002e2 <.Ldebug_abbrev0>:
 2e2:	1101                	addi	x2,x2,-32
 2e4:	2501                	jal	8e4 <.L139+0x8>
 2e6:	130e                	slli	x6,x6,0x23
 2e8:	1b0e030b          	0x1b0e030b
 2ec:	110e                	slli	x2,x2,0x23
 2ee:	1201                	addi	x4,x4,-32
 2f0:	1006                	c.slli	x0,0x21
 2f2:	02000017          	auipc	x0,0x2000
 2f6:	0024                	addi	x9,x2,8
 2f8:	0b3e0b0b          	0xb3e0b0b
 2fc:	00000e03          	lb	x28,0(x0) # 0 <.Ldebug_abbrev0>
 300:	03001603          	lh	x12,48(x0) # 30 <get_seed_32>
 304:	3a0e                	fld	f20,224(x2)
 306:	390b3b0b          	0x390b3b0b
 30a:	0013490b          	0x13490b
 30e:	0400                	addi	x8,x2,512
 310:	0024                	addi	x9,x2,8
 312:	0b3e0b0b          	0xb3e0b0b
 316:	00000803          	lb	x16,0(x0) # 0 <.Ldebug_abbrev0>
 31a:	1305                	addi	x6,x6,-31
 31c:	0b01                	addi	x22,x22,0
 31e:	3b0b3a0b          	0x3b0b3a0b
 322:	010b390b          	0x10b390b
 326:	06000013          	li	x0,96
 32a:	000d                	c.nop	3
 32c:	0b3a0e03          	lb	x28,179(x20)
 330:	0b390b3b          	0xb390b3b
 334:	1349                	addi	x6,x6,-14
 336:	0b0d0b0b          	0xb0d0b0b
 33a:	0b0c                	addi	x11,x2,400
 33c:	0b38                	addi	x14,x2,408
 33e:	0000                	unimp
 340:	03000d07          	0x3000d07
 344:	3a08                	fld	f10,48(x12)
 346:	390b3b0b          	0x390b3b0b
 34a:	0b13490b          	0xb13490b
 34e:	0c0b0d0b          	0xc0b0d0b
 352:	000b380b          	0xb380b
 356:	0800                	addi	x8,x2,16
 358:	0e030117          	auipc	x2,0xe030
 35c:	0b3a0b0b          	0xb3a0b0b
 360:	0b390b3b          	0xb390b3b
 364:	1301                	addi	x6,x6,-32
 366:	0000                	unimp
 368:	0d09                	addi	x26,x26,2
 36a:	0300                	addi	x8,x2,384
 36c:	3a08                	fld	f10,48(x12)
 36e:	390b3b0b          	0x390b3b0b
 372:	0013490b          	0x13490b
 376:	0a00                	addi	x8,x2,272
 378:	000d                	c.nop	3
 37a:	0b3a0e03          	lb	x28,179(x20)
 37e:	0b390b3b          	0xb390b3b
 382:	1349                	addi	x6,x6,-14
 384:	0000                	unimp
 386:	3f012e0b          	0x3f012e0b
 38a:	0319                	addi	x6,x6,6
 38c:	3a0e                	fld	f20,224(x2)
 38e:	390b3b0b          	0x390b3b0b
 392:	4919270b          	0x4919270b
 396:	12011113          	0x12011113
 39a:	4006                	0x4006
 39c:	9718                	0x9718
 39e:	1942                	slli	x18,x18,0x30
 3a0:	1301                	addi	x6,x6,-32
 3a2:	0000                	unimp
 3a4:	050c                	addi	x11,x2,640
 3a6:	0300                	addi	x8,x2,384
 3a8:	3a08                	fld	f10,48(x12)
 3aa:	390b3b0b          	0x390b3b0b
 3ae:	0213490b          	0x213490b
 3b2:	0d000017          	auipc	x0,0xd000
 3b6:	0034                	addi	x13,x2,8
 3b8:	0b3a0e03          	lb	x28,179(x20)
 3bc:	0b390b3b          	0xb390b3b
 3c0:	1349                	addi	x6,x6,-14
 3c2:	0b1c                	addi	x15,x2,400
 3c4:	0000                	unimp
 3c6:	340e                	fld	f8,224(x2)
 3c8:	0300                	addi	x8,x2,384
 3ca:	3a08                	fld	f10,48(x12)
 3cc:	390b3b0b          	0x390b3b0b
 3d0:	0013490b          	0x13490b
 3d4:	0f00                	addi	x8,x2,912
 3d6:	0034                	addi	x13,x2,8
 3d8:	0b3a0803          	lb	x16,179(x20)
 3dc:	0b390b3b          	0xb390b3b
 3e0:	1349                	addi	x6,x6,-14
 3e2:	1702                	slli	x14,x14,0x20
 3e4:	0000                	unimp
 3e6:	3410                	fld	f12,40(x8)
 3e8:	0300                	addi	x8,x2,384
 3ea:	3a08                	fld	f10,48(x12)
 3ec:	390b3b0b          	0x390b3b0b
 3f0:	0213490b          	0x213490b
 3f4:	0018                	0x18
 3f6:	1100                	addi	x8,x2,160
 3f8:	0034                	addi	x13,x2,8
 3fa:	0b3a0e03          	lb	x28,179(x20)
 3fe:	0b390b3b          	0xb390b3b
 402:	1349                	addi	x6,x6,-14
 404:	1802                	slli	x16,x16,0x20
 406:	0000                	unimp
 408:	3412                	fld	f8,288(x2)
 40a:	0300                	addi	x8,x2,384
 40c:	3a0e                	fld	f20,224(x2)
 40e:	390b3b0b          	0x390b3b0b
 412:	0213490b          	0x213490b
 416:	13000017          	auipc	x0,0x13000
 41a:	1755010b          	0x1755010b
 41e:	1301                	addi	x6,x6,-32
 420:	0000                	unimp
 422:	3414                	fld	f13,40(x8)
 424:	0300                	addi	x8,x2,384
 426:	3a0e                	fld	f20,224(x2)
 428:	390b3b0b          	0x390b3b0b
 42c:	0013490b          	0x13490b
 430:	1500                	addi	x8,x2,672
 432:	1301010b          	0x1301010b
 436:	0000                	unimp
 438:	0b16                	slli	x22,x22,0x5
 43a:	5501                	li	x10,-32
 43c:	00000017          	auipc	x0,0x0

00000440 <.Ldebug_abbrev0>:
 440:	1101                	addi	x2,x2,-32
 442:	2501                	jal	a42 <.LLST23+0x4>
 444:	130e                	slli	x6,x6,0x23
 446:	1b0e030b          	0x1b0e030b
 44a:	110e                	slli	x2,x2,0x23
 44c:	1201                	addi	x4,x4,-32
 44e:	1006                	c.slli	x0,0x21
 450:	02000017          	auipc	x0,0x2000
 454:	0024                	addi	x9,x2,8
 456:	0b3e0b0b          	0xb3e0b0b
 45a:	00000e03          	lb	x28,0(x0) # 0 <.Ldebug_abbrev0>
 45e:	0b002403          	lw	x8,176(x0) # b0 <.LASF36+0x2>
 462:	030b3e0b          	0x30b3e0b
 466:	0008                	0x8
 468:	0400                	addi	x8,x2,512
 46a:	0016                	c.slli	x0,0x5
 46c:	0b3a0e03          	lb	x28,179(x20)
 470:	0b39053b          	0xb39053b
 474:	1349                	addi	x6,x6,-14
 476:	0000                	unimp
 478:	1605                	addi	x12,x12,-31
 47a:	0300                	addi	x8,x2,384
 47c:	3a0e                	fld	f20,224(x2)
 47e:	390b3b0b          	0x390b3b0b
 482:	0013490b          	0x13490b
 486:	0600                	addi	x8,x2,768
 488:	0b0b0113          	addi	x2,x22,176
 48c:	0b3a                	slli	x22,x22,0xe
 48e:	0b390b3b          	0xb390b3b
 492:	1301                	addi	x6,x6,-32
 494:	0000                	unimp
 496:	03000d07          	0x3000d07
 49a:	3a0e                	fld	f20,224(x2)
 49c:	390b3b0b          	0x390b3b0b
 4a0:	0b13490b          	0xb13490b
 4a4:	0c0b0d0b          	0xc0b0d0b
 4a8:	000b380b          	0xb380b
 4ac:	0800                	addi	x8,x2,16
 4ae:	000d                	c.nop	3
 4b0:	0b3a0803          	lb	x16,179(x20)
 4b4:	0b390b3b          	0xb390b3b
 4b8:	1349                	addi	x6,x6,-14
 4ba:	0b0d0b0b          	0xb0d0b0b
 4be:	0b0c                	addi	x11,x2,400
 4c0:	0b38                	addi	x14,x2,408
 4c2:	0000                	unimp
 4c4:	1709                	addi	x14,x14,-30
 4c6:	0301                	addi	x6,x6,0
 4c8:	0b0e                	slli	x22,x22,0x3
 4ca:	3b0b3a0b          	0x3b0b3a0b
 4ce:	010b390b          	0x10b390b
 4d2:	0a000013          	li	x0,160
 4d6:	000d                	c.nop	3
 4d8:	0b3a0803          	lb	x16,179(x20)
 4dc:	0b390b3b          	0xb390b3b
 4e0:	1349                	addi	x6,x6,-14
 4e2:	0000                	unimp
 4e4:	03000d0b          	0x3000d0b
 4e8:	3a0e                	fld	f20,224(x2)
 4ea:	390b3b0b          	0x390b3b0b
 4ee:	0013490b          	0x13490b
 4f2:	0c00                	addi	x8,x2,528
 4f4:	012e                	slli	x2,x2,0xb
 4f6:	0e03193f 0b3b0b3a 	0xb3b0b3a0e03193f
 4fe:	0b39                	addi	x22,x22,14
 500:	13491927          	0x13491927
 504:	0111                	addi	x2,x2,4
 506:	0612                	slli	x12,x12,0x4
 508:	1840                	addi	x8,x2,52
 50a:	01194297          	auipc	x5,0x1194
 50e:	0d000013          	li	x0,208
 512:	0005                	c.nop	1
 514:	0b3a0803          	lb	x16,179(x20)
 518:	0b390b3b          	0xb390b3b
 51c:	1349                	addi	x6,x6,-14
 51e:	1702                	slli	x14,x14,0x20
 520:	0000                	unimp
 522:	340e                	fld	f8,224(x2)
 524:	0300                	addi	x8,x2,384
 526:	3a0e                	fld	f20,224(x2)
 528:	390b3b0b          	0x390b3b0b
 52c:	1c13490b          	0x1c13490b
 530:	0f00000b          	0xf00000b
 534:	0034                	addi	x13,x2,8
 536:	0b3a0803          	lb	x16,179(x20)
 53a:	0b390b3b          	0xb390b3b
 53e:	1349                	addi	x6,x6,-14
 540:	0000                	unimp
 542:	3410                	fld	f12,40(x8)
 544:	0300                	addi	x8,x2,384
 546:	3a08                	fld	f10,48(x12)
 548:	390b3b0b          	0x390b3b0b
 54c:	0213490b          	0x213490b
 550:	0018                	0x18
 552:	1100                	addi	x8,x2,160
 554:	0034                	addi	x13,x2,8
 556:	0b3a0803          	lb	x16,179(x20)
 55a:	0b390b3b          	0xb390b3b
 55e:	1349                	addi	x6,x6,-14
 560:	1702                	slli	x14,x14,0x20
 562:	0000                	unimp
 564:	3412                	fld	f8,288(x2)
 566:	0300                	addi	x8,x2,384
 568:	3a0e                	fld	f20,224(x2)
 56a:	390b3b0b          	0x390b3b0b
 56e:	0213490b          	0x213490b
 572:	13000017          	auipc	x0,0x13000
 576:	1755010b          	0x1755010b
 57a:	1301                	addi	x6,x6,-32
 57c:	0000                	unimp
 57e:	3414                	fld	f13,40(x8)
 580:	0300                	addi	x8,x2,384
 582:	3a0e                	fld	f20,224(x2)
 584:	390b3b0b          	0x390b3b0b
 588:	0013490b          	0x13490b
 58c:	1500                	addi	x8,x2,672
 58e:	1301010b          	0x1301010b
 592:	0000                	unimp
 594:	0b16                	slli	x22,x22,0x5
 596:	1101                	addi	x2,x2,-32
 598:	1201                	addi	x4,x4,-32
 59a:	0006                	c.slli	x0,0x1
	...

0000059e <.Ldebug_abbrev0>:
 59e:	1101                	addi	x2,x2,-32
 5a0:	2501                	jal	ba0 <.L255+0x8>
 5a2:	130e                	slli	x6,x6,0x23
 5a4:	1b0e030b          	0x1b0e030b
 5a8:	110e                	slli	x2,x2,0x23
 5aa:	1201                	addi	x4,x4,-32
 5ac:	1006                	c.slli	x0,0x21
 5ae:	02000017          	auipc	x0,0x2000
 5b2:	0024                	addi	x9,x2,8
 5b4:	0b3e0b0b          	0xb3e0b0b
 5b8:	00000803          	lb	x16,0(x0) # 0 <.Ldebug_abbrev0>
 5bc:	0b002403          	lw	x8,176(x0) # b0 <.LASF36+0x2>
 5c0:	030b3e0b          	0x30b3e0b
 5c4:	000e                	c.slli	x0,0x3
 5c6:	0400                	addi	x8,x2,512
 5c8:	0016                	c.slli	x0,0x5
 5ca:	0b3a0e03          	lb	x28,179(x20)
 5ce:	0b39053b          	0xb39053b
 5d2:	1349                	addi	x6,x6,-14
 5d4:	0000                	unimp
 5d6:	1605                	addi	x12,x12,-31
 5d8:	0300                	addi	x8,x2,384
 5da:	3a0e                	fld	f20,224(x2)
 5dc:	390b3b0b          	0x390b3b0b
 5e0:	0013490b          	0x13490b
 5e4:	0600                	addi	x8,x2,768
 5e6:	0b0b0113          	addi	x2,x22,176
 5ea:	0b3a                	slli	x22,x22,0xe
 5ec:	0b390b3b          	0xb390b3b
 5f0:	1301                	addi	x6,x6,-32
 5f2:	0000                	unimp
 5f4:	03000d07          	0x3000d07
 5f8:	3a0e                	fld	f20,224(x2)
 5fa:	390b3b0b          	0x390b3b0b
 5fe:	0b13490b          	0xb13490b
 602:	0c0b0d0b          	0xc0b0d0b
 606:	000b380b          	0xb380b
 60a:	0800                	addi	x8,x2,16
 60c:	000d                	c.nop	3
 60e:	0b3a0803          	lb	x16,179(x20)
 612:	0b390b3b          	0xb390b3b
 616:	1349                	addi	x6,x6,-14
 618:	0b0d0b0b          	0xb0d0b0b
 61c:	0b0c                	addi	x11,x2,400
 61e:	0b38                	addi	x14,x2,408
 620:	0000                	unimp
 622:	1709                	addi	x14,x14,-30
 624:	0301                	addi	x6,x6,0
 626:	0b0e                	slli	x22,x22,0x3
 628:	3b0b3a0b          	0x3b0b3a0b
 62c:	010b390b          	0x10b390b
 630:	0a000013          	li	x0,160
 634:	000d                	c.nop	3
 636:	0b3a0803          	lb	x16,179(x20)
 63a:	0b390b3b          	0xb390b3b
 63e:	1349                	addi	x6,x6,-14
 640:	0000                	unimp
 642:	03000d0b          	0x3000d0b
 646:	3a0e                	fld	f20,224(x2)
 648:	390b3b0b          	0x390b3b0b
 64c:	0013490b          	0x13490b
 650:	0c00                	addi	x8,x2,528
 652:	012e                	slli	x2,x2,0xb
 654:	0e03193f 0b3b0b3a 	0xb3b0b3a0e03193f
 65c:	0b39                	addi	x22,x22,14
 65e:	13491927          	0x13491927
 662:	0111                	addi	x2,x2,4
 664:	0612                	slli	x12,x12,0x4
 666:	1840                	addi	x8,x2,52
 668:	01194297          	auipc	x5,0x1194
 66c:	0d000013          	li	x0,208
 670:	0005                	c.nop	1
 672:	0b3a0803          	lb	x16,179(x20)
 676:	0b390b3b          	0xb390b3b
 67a:	1349                	addi	x6,x6,-14
 67c:	1702                	slli	x14,x14,0x20
 67e:	0000                	unimp
 680:	340e                	fld	f8,224(x2)
 682:	0300                	addi	x8,x2,384
 684:	3a08                	fld	f10,48(x12)
 686:	390b3b0b          	0x390b3b0b
 68a:	0013490b          	0x13490b
 68e:	0f00                	addi	x8,x2,912
 690:	0034                	addi	x13,x2,8
 692:	0b3a0803          	lb	x16,179(x20)
 696:	0b390b3b          	0xb390b3b
 69a:	1349                	addi	x6,x6,-14
 69c:	1702                	slli	x14,x14,0x20
 69e:	0000                	unimp
 6a0:	3410                	fld	f12,40(x8)
 6a2:	0300                	addi	x8,x2,384
 6a4:	3a0e                	fld	f20,224(x2)
 6a6:	390b3b0b          	0x390b3b0b
 6aa:	0213490b          	0x213490b
 6ae:	11000017          	auipc	x0,0x11000
 6b2:	1755010b          	0x1755010b
 6b6:	1301                	addi	x6,x6,-32
 6b8:	0000                	unimp
 6ba:	0a12                	slli	x20,x20,0x4
 6bc:	0300                	addi	x8,x2,384
 6be:	3a0e                	fld	f20,224(x2)
 6c0:	390b3b0b          	0x390b3b0b
 6c4:	1300000b          	0x1300000b
 6c8:	1755010b          	0x1755010b
 6cc:	0000                	unimp
 6ce:	8914                	0x8914
 6d0:	0182                	c.slli64	x3
 6d2:	1100                	addi	x8,x2,160
 6d4:	3101                	jal	2d4 <.L50+0xc>
 6d6:	15000013          	li	x0,336
 6da:	0000010b          	0x10b
 6de:	3416                	fld	f8,352(x2)
 6e0:	0300                	addi	x8,x2,384
 6e2:	3a0e                	fld	f20,224(x2)
 6e4:	390b3b0b          	0x390b3b0b
 6e8:	0013490b          	0x13490b
 6ec:	1700                	addi	x8,x2,928
 6ee:	1301010b          	0x1301010b
 6f2:	0000                	unimp
 6f4:	2e18                	fld	f14,24(x12)
 6f6:	3f00                	fld	f8,56(x14)
 6f8:	3c19                	jal	10e <.L14+0x2>
 6fa:	6e19                	lui	x28,0x6
 6fc:	030e                	slli	x6,x6,0x3
 6fe:	000e                	c.slli	x0,0x3
 700:	0000                	unimp
 702:	1101                	addi	x2,x2,-32
 704:	1000                	addi	x8,x2,32
 706:	1106                	slli	x2,x2,0x21
 708:	1201                	addi	x4,x4,-32
 70a:	0301                	addi	x6,x6,0
 70c:	1b0e                	slli	x22,x22,0x23
 70e:	250e                	fld	f10,192(x2)
 710:	130e                	slli	x6,x6,0x23
 712:	0005                	c.nop	1
 714:	0000                	unimp
 716:	1101                	addi	x2,x2,-32
 718:	1000                	addi	x8,x2,32
 71a:	1106                	slli	x2,x2,0x21
 71c:	1201                	addi	x4,x4,-32
 71e:	0301                	addi	x6,x6,0
 720:	1b0e                	slli	x22,x22,0x23
 722:	250e                	fld	f10,192(x2)
 724:	130e                	slli	x6,x6,0x23
 726:	0005                	c.nop	1
	...

0000072a <.Ldebug_abbrev0>:
 72a:	1101                	addi	x2,x2,-32
 72c:	2501                	jal	d2c <.L22+0x14>
 72e:	130e                	slli	x6,x6,0x23
 730:	1b0e030b          	0x1b0e030b
 734:	110e                	slli	x2,x2,0x23
 736:	1201                	addi	x4,x4,-32
 738:	1006                	c.slli	x0,0x21
 73a:	02000017          	auipc	x0,0x2000
 73e:	0024                	addi	x9,x2,8
 740:	0b3e0b0b          	0xb3e0b0b
 744:	00000803          	lb	x16,0(x0) # 0 <.Ldebug_abbrev0>
 748:	0b002403          	lw	x8,176(x0) # b0 <.LASF36+0x2>
 74c:	030b3e0b          	0x30b3e0b
 750:	000e                	c.slli	x0,0x3
 752:	0400                	addi	x8,x2,512
 754:	0016                	c.slli	x0,0x5
 756:	0b3a0e03          	lb	x28,179(x20)
 75a:	0b390b3b          	0xb390b3b
 75e:	1349                	addi	x6,x6,-14
 760:	0000                	unimp
 762:	2605                	jal	a82 <.L247+0x16>
 764:	4900                	lw	x8,16(x10)
 766:	06000013          	li	x0,96
 76a:	0101                	addi	x2,x2,0
 76c:	1349                	addi	x6,x6,-14
 76e:	1301                	addi	x6,x6,-32
 770:	0000                	unimp
 772:	49002107          	flw	f2,1168(x0) # 490 <.L110+0x4>
 776:	000b2f13          	slti	x30,x22,0
 77a:	0800                	addi	x8,x2,16
 77c:	0034                	addi	x13,x2,8
 77e:	0b3a0e03          	lb	x28,179(x20)
 782:	0b39053b          	0xb39053b
 786:	1349                	addi	x6,x6,-14
 788:	193c193f 2e090000 	0x2e090000193c193f
 790:	3f01                	jal	6a0 <.LASF12+0x1>
 792:	0319                	addi	x6,x6,6
 794:	3a0e                	fld	f20,224(x2)
 796:	39053b0b          	0x39053b0b
 79a:	4919270b          	0x4919270b
 79e:	12011113          	0x12011113
 7a2:	4006                	0x4006
 7a4:	9718                	0x9718
 7a6:	1942                	slli	x18,x18,0x30
 7a8:	0000                	unimp
 7aa:	050a                	slli	x10,x10,0x2
 7ac:	0300                	addi	x8,x2,384
 7ae:	3a08                	fld	f10,48(x12)
 7b0:	39053b0b          	0x39053b0b
 7b4:	0213490b          	0x213490b
 7b8:	0b000017          	auipc	x0,0xb000
 7bc:	0034                	addi	x13,x2,8
 7be:	0b3a0803          	lb	x16,179(x20)
 7c2:	0b39053b          	0xb39053b
 7c6:	1349                	addi	x6,x6,-14
 7c8:	0000                	unimp
 7ca:	0b0c                	addi	x11,x2,400
 7cc:	5501                	li	x10,-32
 7ce:	0d000017          	auipc	x0,0xd000
 7d2:	0034                	addi	x13,x2,8
 7d4:	0b3a0e03          	lb	x28,179(x20)
 7d8:	0b39053b          	0xb39053b
 7dc:	1349                	addi	x6,x6,-14
 7de:	1702                	slli	x14,x14,0x20
 7e0:	0000                	unimp
 7e2:	340e                	fld	f8,224(x2)
 7e4:	0300                	addi	x8,x2,384
 7e6:	3a08                	fld	f10,48(x12)
 7e8:	39053b0b          	0x39053b0b
 7ec:	0213490b          	0x213490b
 7f0:	00000017          	auipc	x0,0x0

000007f4 <.Ldebug_abbrev0>:
 7f4:	1101                	addi	x2,x2,-32
 7f6:	2501                	jal	df6 <.LLST44+0x1>
 7f8:	130e                	slli	x6,x6,0x23
 7fa:	1b0e030b          	0x1b0e030b
 7fe:	100e                	c.slli	x0,0x23
 800:	02000017          	auipc	x0,0x2000
 804:	0024                	addi	x9,x2,8
 806:	0b3e0b0b          	0xb3e0b0b
 80a:	00000803          	lb	x16,0(x0) # 0 <.Ldebug_abbrev0>
 80e:	0b002403          	lw	x8,176(x0) # b0 <.LASF36+0x2>
 812:	030b3e0b          	0x30b3e0b
 816:	000e                	c.slli	x0,0x3
 818:	0400                	addi	x8,x2,512
 81a:	0016                	c.slli	x0,0x5
 81c:	0b3a0e03          	lb	x28,179(x20)
 820:	0b390b3b          	0xb390b3b
 824:	1349                	addi	x6,x6,-14
 826:	0000                	unimp
 828:	2605                	jal	b48 <.L253>
 82a:	4900                	lw	x8,16(x10)
 82c:	06000013          	li	x0,96
 830:	0101                	addi	x2,x2,0
 832:	1349                	addi	x6,x6,-14
 834:	1301                	addi	x6,x6,-32
 836:	0000                	unimp
 838:	49002107          	flw	f2,1168(x0) # 490 <.L110+0x4>
 83c:	000b2f13          	slti	x30,x22,0
 840:	0800                	addi	x8,x2,16
 842:	0034                	addi	x13,x2,8
 844:	0b3a0e03          	lb	x28,179(x20)
 848:	0b39053b          	0xb39053b
 84c:	1349                	addi	x6,x6,-14
 84e:	193c193f 34090000 	0x34090000193c193f
 856:	4700                	lw	x8,8(x14)
 858:	3b0b3a13          	sltiu	x20,x22,944
 85c:	3905                	jal	48c <.L110>
 85e:	0018020b          	0x18020b
	...

Disassembly of section .debug_loc:

00000000 <.LLST0>:
       0:	0000                	unimp
       2:	0000                	unimp
       4:	0080                	addi	x8,x2,64
       6:	0000                	unimp
       8:	0006                	c.slli	x0,0x1
       a:	935a                	add	x6,x6,x22
       c:	5b04                	lw	x9,48(x14)
       e:	00800493          	li	x9,8
      12:	0000                	unimp
      14:	00f8                	addi	x14,x2,76
      16:	0000                	unimp
      18:	0006                	c.slli	x0,0x1
      1a:	0af503f3          	0xaf503f3
      1e:	9f25                	0x9f25
      20:	00f8                	addi	x14,x2,76
      22:	0000                	unimp
      24:	0108                	addi	x10,x2,128
      26:	0000                	unimp
      28:	0006                	c.slli	x0,0x1
      2a:	935a                	add	x6,x6,x22
      2c:	5b04                	lw	x9,48(x14)
      2e:	01080493          	addi	x9,x16,16
      32:	0000                	unimp
      34:	0140                	addi	x8,x2,132
      36:	0000                	unimp
      38:	0006                	c.slli	x0,0x1
      3a:	0af503f3          	0xaf503f3
      3e:	9f25                	0x9f25
      40:	0140                	addi	x8,x2,132
      42:	0000                	unimp
      44:	00000143          	fmadd.s	f2,f0,f0,f0,rne
      48:	0006                	c.slli	x0,0x1
      4a:	935a                	add	x6,x6,x22
      4c:	5b04                	lw	x9,48(x14)
      4e:	01430493          	addi	x9,x6,20
      52:	0000                	unimp
      54:	015c                	addi	x15,x2,132
      56:	0000                	unimp
      58:	0006                	c.slli	x0,0x1
      5a:	0af503f3          	0xaf503f3
      5e:	9f25                	0x9f25
      60:	015c                	addi	x15,x2,132
      62:	0000                	unimp
      64:	0198                	addi	x14,x2,192
      66:	0000                	unimp
      68:	0006                	c.slli	x0,0x1
      6a:	935a                	add	x6,x6,x22
      6c:	5b04                	lw	x9,48(x14)
      6e:	01980493          	addi	x9,x16,25
      72:	0000                	unimp
      74:	07e0                	addi	x8,x2,972
      76:	0000                	unimp
      78:	0006                	c.slli	x0,0x1
      7a:	0af503f3          	0xaf503f3
      7e:	9f25                	0x9f25
	...

00000088 <.LLST1>:
      88:	0000                	unimp
      8a:	0000                	unimp
      8c:	0080                	addi	x8,x2,64
      8e:	0000                	unimp
      90:	0006                	c.slli	x0,0x1
      92:	935c                	0x935c
      94:	5d04                	lw	x9,56(x10)
      96:	00800493          	li	x9,8
      9a:	0000                	unimp
      9c:	00f8                	addi	x14,x2,76
      9e:	0000                	unimp
      a0:	0006                	c.slli	x0,0x1
      a2:	0cf503f3          	0xcf503f3
      a6:	9f25                	0x9f25
      a8:	00f8                	addi	x14,x2,76
      aa:	0000                	unimp
      ac:	0000010b          	0x10b
      b0:	0006                	c.slli	x0,0x1
      b2:	935c                	0x935c
      b4:	5d04                	lw	x9,56(x10)
      b6:	010b0493          	addi	x9,x22,16
      ba:	0000                	unimp
      bc:	0140                	addi	x8,x2,132
      be:	0000                	unimp
      c0:	0006                	c.slli	x0,0x1
      c2:	0cf503f3          	0xcf503f3
      c6:	9f25                	0x9f25
      c8:	0140                	addi	x8,x2,132
      ca:	0000                	unimp
      cc:	00000143          	fmadd.s	f2,f0,f0,f0,rne
      d0:	0006                	c.slli	x0,0x1
      d2:	935c                	0x935c
      d4:	5d04                	lw	x9,56(x10)
      d6:	01430493          	addi	x9,x6,20
      da:	0000                	unimp
      dc:	015c                	addi	x15,x2,132
      de:	0000                	unimp
      e0:	0006                	c.slli	x0,0x1
      e2:	0cf503f3          	0xcf503f3
      e6:	9f25                	0x9f25
      e8:	015c                	addi	x15,x2,132
      ea:	0000                	unimp
      ec:	0198                	addi	x14,x2,192
      ee:	0000                	unimp
      f0:	0006                	c.slli	x0,0x1
      f2:	935c                	0x935c
      f4:	5d04                	lw	x9,56(x10)
      f6:	01980493          	addi	x9,x16,25
      fa:	0000                	unimp
      fc:	07e0                	addi	x8,x2,972
      fe:	0000                	unimp
     100:	0006                	c.slli	x0,0x1
     102:	0cf503f3          	0xcf503f3
     106:	9f25                	0x9f25
	...

00000110 <.LLST2>:
     110:	0000                	unimp
     112:	0000                	unimp
     114:	0084                	addi	x9,x2,64
     116:	0000                	unimp
     118:	0002                	c.slli64	x0
     11a:	9f30                	0x9f30
     11c:	00f8                	addi	x14,x2,76
     11e:	0000                	unimp
     120:	0198                	addi	x14,x2,192
     122:	0000                	unimp
     124:	0002                	c.slli64	x0
     126:	9f30                	0x9f30
	...

00000130 <.LLST3>:
     130:	0080                	addi	x8,x2,64
     132:	0000                	unimp
     134:	0084                	addi	x9,x2,64
     136:	0000                	unimp
     138:	0002                	c.slli64	x0
     13a:	9f30                	0x9f30
     13c:	0084                	addi	x9,x2,64
     13e:	0000                	unimp
     140:	00f8                	addi	x14,x2,76
     142:	0000                	unimp
     144:	0001                	nop
     146:	9868                	0x9868
     148:	0001                	nop
     14a:	7000                	flw	f8,32(x8)
     14c:	0002                	c.slli64	x0
     14e:	0100                	addi	x8,x2,128
     150:	6800                	flw	f8,16(x8)
     152:	0690                	addi	x12,x2,832
     154:	0000                	unimp
     156:	06c4                	addi	x9,x2,836
     158:	0000                	unimp
     15a:	0001                	nop
     15c:	d468                	sw	x10,108(x8)
     15e:	0006                	c.slli	x0,0x1
     160:	f000                	fsw	f8,32(x8)
     162:	0006                	c.slli	x0,0x1
     164:	0100                	addi	x8,x2,128
     166:	6800                	flw	f8,16(x8)
     168:	07a4                	addi	x9,x2,968
     16a:	0000                	unimp
     16c:	07b8                	addi	x14,x2,968
     16e:	0000                	unimp
     170:	0001                	nop
     172:	0068                	addi	x10,x2,12
     174:	0000                	unimp
     176:	0000                	unimp
     178:	0000                	unimp
	...

0000017b <.LLST4>:
     17b:	0058                	addi	x14,x2,4
     17d:	0000                	unimp
     17f:	0260                	addi	x8,x2,268
     181:	0000                	unimp
     183:	0006                	c.slli	x0,0x1
     185:	0085                	addi	x1,x1,1
     187:	ff08                	fsw	f10,56(x14)
     189:	9f1a                	add	x30,x30,x6
     18b:	0690                	addi	x12,x2,832
     18d:	0000                	unimp
     18f:	06c4                	addi	x9,x2,836
     191:	0000                	unimp
     193:	0006                	c.slli	x0,0x1
     195:	0085                	addi	x1,x1,1
     197:	ff08                	fsw	f10,56(x14)
     199:	9f1a                	add	x30,x30,x6
     19b:	06d4                	addi	x13,x2,836
     19d:	0000                	unimp
     19f:	06f0                	addi	x12,x2,844
     1a1:	0000                	unimp
     1a3:	0006                	c.slli	x0,0x1
     1a5:	0085                	addi	x1,x1,1
     1a7:	ff08                	fsw	f10,56(x14)
     1a9:	9f1a                	add	x30,x30,x6
     1ab:	07a4                	addi	x9,x2,968
     1ad:	0000                	unimp
     1af:	07b8                	addi	x14,x2,968
     1b1:	0000                	unimp
     1b3:	0006                	c.slli	x0,0x1
     1b5:	0085                	addi	x1,x1,1
     1b7:	ff08                	fsw	f10,56(x14)
     1b9:	9f1a                	add	x30,x30,x6
	...

000001c3 <.LLST5>:
     1c3:	0054                	addi	x13,x2,4
     1c5:	0000                	unimp
     1c7:	0080                	addi	x8,x2,64
     1c9:	0000                	unimp
     1cb:	00820007          	0x820007
     1cf:	ff0a                	fsw	f2,188(x2)
     1d1:	1aff                	0x1aff
     1d3:	809f 0000 dc00      	0xdc000000809f
     1d9:	0000                	unimp
     1db:	0100                	addi	x8,x2,128
     1dd:	6200                	flw	f8,0(x12)
     1df:	00f8                	addi	x14,x2,76
     1e1:	0000                	unimp
     1e3:	0138                	addi	x14,x2,136
     1e5:	0000                	unimp
     1e7:	00820007          	0x820007
     1eb:	ff0a                	fsw	f2,188(x2)
     1ed:	1aff                	0x1aff
     1ef:	409f 0001 7000      	0x70000001409f
     1f5:	0001                	nop
     1f7:	0700                	addi	x8,x2,896
     1f9:	8200                	0x8200
     1fb:	0a00                	addi	x8,x2,272
     1fd:	ffff                	0xffff
     1ff:	9f1a                	add	x30,x30,x6
     201:	0170                	addi	x12,x2,140
     203:	0000                	unimp
     205:	0178                	addi	x14,x2,140
     207:	0000                	unimp
     209:	0009                	c.nop	2
     20b:	2544007b          	0x2544007b
     20f:	ff0a                	fsw	f2,188(x2)
     211:	789f1a07          	0x789f1a07
     215:	0001                	nop
     217:	8000                	0x8000
     219:	0001                	nop
     21b:	0700                	addi	x8,x2,896
     21d:	8200                	0x8200
     21f:	0a00                	addi	x8,x2,272
     221:	ffff                	0xffff
     223:	9f1a                	add	x30,x30,x6
     225:	0180                	addi	x8,x2,192
     227:	0000                	unimp
     229:	0188                	addi	x10,x2,192
     22b:	0000                	unimp
     22d:	0009                	c.nop	2
     22f:	2544007b          	0x2544007b
     233:	ff0a                	fsw	f2,188(x2)
     235:	889f1a07          	0x889f1a07
     239:	0001                	nop
     23b:	9000                	0x9000
     23d:	0001                	nop
     23f:	0700                	addi	x8,x2,896
     241:	8200                	0x8200
     243:	0a00                	addi	x8,x2,272
     245:	ffff                	0xffff
     247:	9f1a                	add	x30,x30,x6
     249:	0190                	addi	x12,x2,192
     24b:	0000                	unimp
     24d:	0198                	addi	x14,x2,192
     24f:	0000                	unimp
     251:	0009                	c.nop	2
     253:	2544007b          	0x2544007b
     257:	ff0a                	fsw	f2,188(x2)
     259:	989f1a07          	0x989f1a07
     25d:	0001                	nop
     25f:	3800                	fld	f8,48(x8)
     261:	0002                	c.slli64	x0
     263:	0100                	addi	x8,x2,128
     265:	6200                	flw	f8,0(x12)
	...

0000026f <.LLST6>:
     26f:	0000                	unimp
     271:	0000                	unimp
     273:	007c                	addi	x15,x2,12
     275:	0000                	unimp
     277:	0001                	nop
     279:	7c5a                	flw	f24,180(x2)
     27b:	0000                	unimp
     27d:	f800                	fsw	f8,48(x8)
     27f:	0000                	unimp
     281:	0100                	addi	x8,x2,128
     283:	5800                	lw	x8,48(x8)
     285:	00f8                	addi	x14,x2,76
     287:	0000                	unimp
     289:	0108                	addi	x10,x2,128
     28b:	0000                	unimp
     28d:	0001                	nop
     28f:	085a                	slli	x16,x16,0x16
     291:	0001                	nop
     293:	3400                	fld	f8,40(x8)
     295:	0001                	nop
     297:	0100                	addi	x8,x2,128
     299:	6300                	flw	f8,0(x14)
     29b:	0134                	addi	x13,x2,136
     29d:	0000                	unimp
     29f:	0140                	addi	x8,x2,132
     2a1:	0000                	unimp
     2a3:	0001                	nop
     2a5:	4058                	lw	x14,4(x8)
     2a7:	0001                	nop
     2a9:	4300                	lw	x8,0(x14)
     2ab:	0001                	nop
     2ad:	0100                	addi	x8,x2,128
     2af:	5a00                	lw	x8,48(x12)
     2b1:	00000143          	fmadd.s	f2,f0,f0,f0,rne
     2b5:	0154                	addi	x13,x2,132
     2b7:	0000                	unimp
     2b9:	0001                	nop
     2bb:	00015463          	bgez	x2,2c3 <.LASF18+0x3>
     2bf:	5c00                	lw	x8,56(x8)
     2c1:	0001                	nop
     2c3:	0200                	addi	x8,x2,256
     2c5:	3000                	fld	f8,32(x8)
     2c7:	5c9f 0001 9800      	0x980000015c9f
     2cd:	0001                	nop
     2cf:	0100                	addi	x8,x2,128
     2d1:	5a00                	lw	x8,48(x12)
     2d3:	0198                	addi	x14,x2,192
     2d5:	0000                	unimp
     2d7:	0258                	addi	x14,x2,260
     2d9:	0000                	unimp
     2db:	0001                	nop
     2dd:	9058                	0x9058
     2df:	0006                	c.slli	x0,0x1
     2e1:	c400                	sw	x8,8(x8)
     2e3:	0006                	c.slli	x0,0x1
     2e5:	0100                	addi	x8,x2,128
     2e7:	5800                	lw	x8,48(x8)
     2e9:	06d4                	addi	x13,x2,836
     2eb:	0000                	unimp
     2ed:	06f0                	addi	x12,x2,844
     2ef:	0000                	unimp
     2f1:	0001                	nop
     2f3:	a458                	fsd	f14,136(x8)
     2f5:	b8000007          	0xb8000007
     2f9:	01000007          	0x1000007
     2fd:	5800                	lw	x8,48(x8)
	...

00000307 <.LLST7>:
     307:	0054                	addi	x13,x2,4
     309:	0000                	unimp
     30b:	0064                	addi	x9,x2,12
     30d:	0000                	unimp
     30f:	0001                	nop
     311:	6459                	lui	x8,0x16
     313:	0000                	unimp
     315:	6c00                	flw	f8,24(x8)
     317:	0000                	unimp
     319:	0700                	addi	x8,x2,896
     31b:	7900                	flw	f8,48(x10)
     31d:	4000                	lw	x8,0(x8)
     31f:	2440                	fld	f8,136(x8)
     321:	9f21                	0x9f21
     323:	006c                	addi	x11,x2,12
     325:	0000                	unimp
     327:	0078                	addi	x14,x2,12
     329:	0000                	unimp
     32b:	007b000b          	0x7b000b
     32f:	243c                	fld	f15,72(x8)
     331:	253c                	fld	f15,72(x10)
     333:	4040                	lw	x8,4(x8)
     335:	2124                	fld	f9,64(x10)
     337:	789f 0000 f800      	0xf8000000789f
     33d:	0000                	unimp
     33f:	0100                	addi	x8,x2,128
     341:	6900                	flw	f8,16(x10)
     343:	00f8                	addi	x14,x2,76
     345:	0000                	unimp
     347:	0128                	addi	x10,x2,136
     349:	0000                	unimp
     34b:	0001                	nop
     34d:	3059                	jal	fffffbd3 <seed1_volatile+0xfffbf513>
     34f:	0001                	nop
     351:	4000                	lw	x8,0(x8)
     353:	0001                	nop
     355:	0100                	addi	x8,x2,128
     357:	6900                	flw	f8,16(x10)
     359:	0140                	addi	x8,x2,132
     35b:	0000                	unimp
     35d:	0150                	addi	x12,x2,132
     35f:	0000                	unimp
     361:	0001                	nop
     363:	5459                	li	x8,-10
     365:	0001                	nop
     367:	5c00                	lw	x8,56(x8)
     369:	0001                	nop
     36b:	0100                	addi	x8,x2,128
     36d:	6900                	flw	f8,16(x10)
     36f:	015c                	addi	x15,x2,132
     371:	0000                	unimp
     373:	0198                	addi	x14,x2,192
     375:	0000                	unimp
     377:	0001                	nop
     379:	9859                	andi	x8,x8,-10
     37b:	0001                	nop
     37d:	5400                	lw	x8,40(x8)
     37f:	0002                	c.slli64	x0
     381:	0100                	addi	x8,x2,128
     383:	6900                	flw	f8,16(x10)
     385:	0690                	addi	x12,x2,832
     387:	0000                	unimp
     389:	06c4                	addi	x9,x2,836
     38b:	0000                	unimp
     38d:	0001                	nop
     38f:	d469                	beqz	x8,359 <.L53+0x19>
     391:	0006                	c.slli	x0,0x1
     393:	f000                	fsw	f8,32(x8)
     395:	0006                	c.slli	x0,0x1
     397:	0100                	addi	x8,x2,128
     399:	6900                	flw	f8,16(x10)
     39b:	07a4                	addi	x9,x2,968
     39d:	0000                	unimp
     39f:	07b8                	addi	x14,x2,968
     3a1:	0000                	unimp
     3a3:	0001                	nop
     3a5:	0069                	c.nop	26
     3a7:	0000                	unimp
     3a9:	0000                	unimp
     3ab:	0000                	unimp
	...

000003ae <.LLST8>:
     3ae:	00c0                	addi	x8,x2,68
     3b0:	0000                	unimp
     3b2:	00c4                	addi	x9,x2,68
     3b4:	0000                	unimp
     3b6:	0002                	c.slli64	x0
     3b8:	9f30                	0x9f30
     3ba:	00c4                	addi	x9,x2,68
     3bc:	0000                	unimp
     3be:	00f8                	addi	x14,x2,76
     3c0:	0000                	unimp
     3c2:	0001                	nop
     3c4:	385f 0002 4c00      	0x4c000002385f
     3ca:	0002                	c.slli64	x0
     3cc:	0100                	addi	x8,x2,128
     3ce:	5f00                	lw	x8,56(x14)
     3d0:	0690                	addi	x12,x2,832
     3d2:	0000                	unimp
     3d4:	06ac                	addi	x11,x2,840
     3d6:	0000                	unimp
     3d8:	0001                	nop
     3da:	d45f 0006 ec00      	0xec000006d45f
     3e0:	0006                	c.slli	x0,0x1
     3e2:	0100                	addi	x8,x2,128
     3e4:	5f00                	lw	x8,56(x14)
	...

000003ee <.LLST9>:
     3ee:	0098                	addi	x14,x2,64
     3f0:	0000                	unimp
     3f2:	00f8                	addi	x14,x2,76
     3f4:	0000                	unimp
     3f6:	0006                	c.slli	x0,0x1
     3f8:	0086                	slli	x1,x1,0x1
     3fa:	ff08                	fsw	f10,56(x14)
     3fc:	9f1a                	add	x30,x30,x6
     3fe:	0198                	addi	x14,x2,192
     400:	0000                	unimp
     402:	0278                	addi	x14,x2,268
     404:	0000                	unimp
     406:	0006                	c.slli	x0,0x1
     408:	0086                	slli	x1,x1,0x1
     40a:	ff08                	fsw	f10,56(x14)
     40c:	9f1a                	add	x30,x30,x6
     40e:	0690                	addi	x12,x2,832
     410:	0000                	unimp
     412:	06c4                	addi	x9,x2,836
     414:	0000                	unimp
     416:	0006                	c.slli	x0,0x1
     418:	0086                	slli	x1,x1,0x1
     41a:	ff08                	fsw	f10,56(x14)
     41c:	9f1a                	add	x30,x30,x6
     41e:	06d4                	addi	x13,x2,836
     420:	0000                	unimp
     422:	06f0                	addi	x12,x2,844
     424:	0000                	unimp
     426:	0006                	c.slli	x0,0x1
     428:	0086                	slli	x1,x1,0x1
     42a:	ff08                	fsw	f10,56(x14)
     42c:	9f1a                	add	x30,x30,x6
     42e:	07a4                	addi	x9,x2,968
     430:	0000                	unimp
     432:	07b8                	addi	x14,x2,968
     434:	0000                	unimp
     436:	0006                	c.slli	x0,0x1
     438:	0086                	slli	x1,x1,0x1
     43a:	ff08                	fsw	f10,56(x14)
     43c:	9f1a                	add	x30,x30,x6
	...

00000446 <.LLST10>:
     446:	0094                	addi	x13,x2,64
     448:	0000                	unimp
     44a:	00c0                	addi	x8,x2,68
     44c:	0000                	unimp
     44e:	007a0007          	0x7a0007
     452:	ff0a                	fsw	f2,188(x2)
     454:	1aff                	0x1aff
     456:	c09f 0000 f800      	0xf8000000c09f
     45c:	0000                	unimp
     45e:	0100                	addi	x8,x2,128
     460:	5a00                	lw	x8,48(x12)
     462:	0198                	addi	x14,x2,192
     464:	0000                	unimp
     466:	01a8                	addi	x10,x2,200
     468:	0000                	unimp
     46a:	007a0007          	0x7a0007
     46e:	ff0a                	fsw	f2,188(x2)
     470:	1aff                	0x1aff
     472:	e09f 0001 e400      	0xe4000001e09f
     478:	0001                	nop
     47a:	0700                	addi	x8,x2,896
     47c:	7a00                	flw	f8,48(x12)
     47e:	0a00                	addi	x8,x2,272
     480:	ffff                	0xffff
     482:	9f1a                	add	x30,x30,x6
     484:	0200                	addi	x8,x2,256
     486:	0000                	unimp
     488:	0210                	addi	x12,x2,256
     48a:	0000                	unimp
     48c:	007a0007          	0x7a0007
     490:	ff0a                	fsw	f2,188(x2)
     492:	1aff                	0x1aff
     494:	189f 0002 2000      	0x20000002189f
     49a:	0002                	c.slli64	x0
     49c:	0700                	addi	x8,x2,896
     49e:	7a00                	flw	f8,48(x12)
     4a0:	0a00                	addi	x8,x2,272
     4a2:	ffff                	0xffff
     4a4:	9f1a                	add	x30,x30,x6
     4a6:	0228                	addi	x10,x2,264
     4a8:	0000                	unimp
     4aa:	0230                	addi	x12,x2,264
     4ac:	0000                	unimp
     4ae:	007a0007          	0x7a0007
     4b2:	ff0a                	fsw	f2,188(x2)
     4b4:	1aff                	0x1aff
     4b6:	389f 0002 7400      	0x74000002389f
     4bc:	0002                	c.slli64	x0
     4be:	0100                	addi	x8,x2,128
     4c0:	5a00                	lw	x8,48(x12)
     4c2:	0690                	addi	x12,x2,832
     4c4:	0000                	unimp
     4c6:	06c4                	addi	x9,x2,836
     4c8:	0000                	unimp
     4ca:	0001                	nop
     4cc:	d45a                	sw	x22,40(x2)
     4ce:	0006                	c.slli	x0,0x1
     4d0:	f000                	fsw	f8,32(x8)
     4d2:	0006                	c.slli	x0,0x1
     4d4:	0100                	addi	x8,x2,128
     4d6:	5a00                	lw	x8,48(x12)
     4d8:	07a4                	addi	x9,x2,968
     4da:	0000                	unimp
     4dc:	07b8                	addi	x14,x2,968
     4de:	0000                	unimp
     4e0:	0001                	nop
     4e2:	005a                	c.slli	x0,0x16
     4e4:	0000                	unimp
     4e6:	0000                	unimp
     4e8:	0000                	unimp
	...

000004eb <.LLST11>:
     4eb:	0084                	addi	x9,x2,64
     4ed:	0000                	unimp
     4ef:	00bc                	addi	x15,x2,72
     4f1:	0000                	unimp
     4f3:	0001                	nop
     4f5:	0000bc67          	0xbc67
     4f9:	f800                	fsw	f8,48(x8)
     4fb:	0000                	unimp
     4fd:	0100                	addi	x8,x2,128
     4ff:	5d00                	lw	x8,56(x10)
     501:	0198                	addi	x14,x2,192
     503:	0000                	unimp
     505:	01d4                	addi	x13,x2,196
     507:	0000                	unimp
     509:	0001                	nop
     50b:	0001d467          	0x1d467
     50f:	e000                	fsw	f8,0(x8)
     511:	0001                	nop
     513:	0100                	addi	x8,x2,128
     515:	5d00                	lw	x8,56(x10)
     517:	01e0                	addi	x8,x2,204
     519:	0000                	unimp
     51b:	01f8                	addi	x14,x2,204
     51d:	0000                	unimp
     51f:	0001                	nop
     521:	0001f867          	0x1f867
     525:	0000                	unimp
     527:	0002                	c.slli64	x0
     529:	0200                	addi	x8,x2,256
     52b:	3000                	fld	f8,32(x8)
     52d:	009f 0002 3800      	0x38000002009f
     533:	0002                	c.slli64	x0
     535:	0100                	addi	x8,x2,128
     537:	6700                	flw	f8,8(x14)
     539:	0238                	addi	x14,x2,264
     53b:	0000                	unimp
     53d:	0278                	addi	x14,x2,268
     53f:	0000                	unimp
     541:	0001                	nop
     543:	785d                	lui	x16,0xffff7
     545:	0002                	c.slli64	x0
     547:	b000                	fsd	f8,32(x8)
     549:	0005                	c.nop	1
     54b:	0100                	addi	x8,x2,128
     54d:	6600                	flw	f8,8(x12)
     54f:	0690                	addi	x12,x2,832
     551:	0000                	unimp
     553:	06a8                	addi	x10,x2,840
     555:	0000                	unimp
     557:	0001                	nop
     559:	d45d                	beqz	x8,507 <.L113+0x3>
     55b:	0006                	c.slli	x0,0x1
     55d:	e400                	fsw	f8,8(x8)
     55f:	0006                	c.slli	x0,0x1
     561:	0100                	addi	x8,x2,128
     563:	5d00                	lw	x8,56(x10)
     565:	07d4                	addi	x13,x2,964
     567:	0000                	unimp
     569:	07e0                	addi	x8,x2,972
     56b:	0000                	unimp
     56d:	0001                	nop
     56f:	0066                	c.slli	x0,0x19
     571:	0000                	unimp
     573:	0000                	unimp
     575:	0000                	unimp
	...

00000578 <.LLST12>:
     578:	0094                	addi	x13,x2,64
     57a:	0000                	unimp
     57c:	00a4                	addi	x9,x2,72
     57e:	0000                	unimp
     580:	0001                	nop
     582:	0000a463          	0xa463
     586:	b400                	fsd	f8,40(x8)
     588:	0000                	unimp
     58a:	0700                	addi	x8,x2,896
     58c:	8300                	0x8300
     58e:	4000                	lw	x8,0(x8)
     590:	2440                	fld	f8,136(x8)
     592:	9f21                	0x9f21
     594:	00b8                	addi	x14,x2,72
     596:	0000                	unimp
     598:	00f8                	addi	x14,x2,76
     59a:	0000                	unimp
     59c:	0001                	nop
     59e:	00019863          	bnez	x3,5ae <.LASF16+0xa>
     5a2:	1c00                	addi	x8,x2,560
     5a4:	0002                	c.slli64	x0
     5a6:	0100                	addi	x8,x2,128
     5a8:	6300                	flw	f8,0(x14)
     5aa:	021c                	addi	x15,x2,256
     5ac:	0000                	unimp
     5ae:	0228                	addi	x10,x2,264
     5b0:	0000                	unimp
     5b2:	0005                	c.nop	1
     5b4:	253c007b          	0x253c007b
     5b8:	289f 0002 2c00      	0x2c000002289f
     5be:	0002                	c.slli64	x0
     5c0:	0100                	addi	x8,x2,128
     5c2:	6300                	flw	f8,0(x14)
     5c4:	022c                	addi	x11,x2,264
     5c6:	0000                	unimp
     5c8:	0238                	addi	x14,x2,264
     5ca:	0000                	unimp
     5cc:	0005                	c.nop	1
     5ce:	253c007b          	0x253c007b
     5d2:	389f 0002 6400      	0x64000002389f
     5d8:	0002                	c.slli64	x0
     5da:	0100                	addi	x8,x2,128
     5dc:	6300                	flw	f8,0(x14)
     5de:	0264                	addi	x9,x2,268
     5e0:	0000                	unimp
     5e2:	05b4                	addi	x13,x2,712
     5e4:	0000                	unimp
     5e6:	0001                	nop
     5e8:	9065                	srli	x8,x8,0x39
     5ea:	0006                	c.slli	x0,0x1
     5ec:	a400                	fsd	f8,8(x8)
     5ee:	0006                	c.slli	x0,0x1
     5f0:	0100                	addi	x8,x2,128
     5f2:	6300                	flw	f8,0(x14)
     5f4:	06d4                	addi	x13,x2,836
     5f6:	0000                	unimp
     5f8:	06e0                	addi	x8,x2,844
     5fa:	0000                	unimp
     5fc:	0001                	nop
     5fe:	0007d463          	bgez	x15,606 <.L119+0x26>
     602:	e000                	fsw	f8,0(x8)
     604:	01000007          	0x1000007
     608:	6500                	flw	f8,8(x10)
	...

00000612 <.LLST13>:
     612:	0238                	addi	x14,x2,264
     614:	0000                	unimp
     616:	05cc                	addi	x11,x2,708
     618:	0000                	unimp
     61a:	0002                	c.slli64	x0
     61c:	9f30                	0x9f30
     61e:	0690                	addi	x12,x2,832
     620:	0000                	unimp
     622:	069c                	addi	x15,x2,832
     624:	0000                	unimp
     626:	0002                	c.slli64	x0
     628:	9f30                	0x9f30
     62a:	06a0                	addi	x8,x2,840
     62c:	0000                	unimp
     62e:	06ac                	addi	x11,x2,840
     630:	0000                	unimp
     632:	0001                	nop
     634:	ac68                	fsd	f10,216(x8)
     636:	0006                	c.slli	x0,0x1
     638:	c400                	sw	x8,8(x8)
     63a:	0006                	c.slli	x0,0x1
     63c:	0100                	addi	x8,x2,128
     63e:	5f00                	lw	x8,56(x14)
     640:	06d8                	addi	x14,x2,836
     642:	0000                	unimp
     644:	06dc                	addi	x15,x2,836
     646:	0000                	unimp
     648:	0001                	nop
     64a:	d45f 0007 e000      	0xe0000007d45f
     650:	02000007          	0x2000007
     654:	3000                	fld	f8,32(x8)
     656:	009f 0000 0000      	0x9f
     65c:	0000                	unimp
	...

0000065f <.LLST14>:
     65f:	00d8                	addi	x14,x2,68
     661:	0000                	unimp
     663:	00f8                	addi	x14,x2,76
     665:	0000                	unimp
     667:	0001                	nop
     669:	3859                	jal	fffffeff <seed1_volatile+0xfffbf83f>
     66b:	0002                	c.slli64	x0
     66d:	5000                	lw	x8,32(x8)
     66f:	0006                	c.slli	x0,0x1
     671:	0100                	addi	x8,x2,128
     673:	5900                	lw	x8,48(x10)
     675:	0690                	addi	x12,x2,832
     677:	0000                	unimp
     679:	06a0                	addi	x8,x2,840
     67b:	0000                	unimp
     67d:	0001                	nop
     67f:	a059                	j	705 <.L126+0x1d>
     681:	0006                	c.slli	x0,0x1
     683:	ac00                	fsd	f8,24(x8)
     685:	0006                	c.slli	x0,0x1
     687:	0600                	addi	x8,x2,768
     689:	8500                	0x8500
     68b:	0800                	addi	x8,x2,16
     68d:	1aff                	0x1aff
     68f:	ac9f 0006 d800      	0xd8000006ac9f
     695:	0006                	c.slli	x0,0x1
     697:	0100                	addi	x8,x2,128
     699:	5900                	lw	x8,48(x10)
     69b:	06d8                	addi	x14,x2,836
     69d:	0000                	unimp
     69f:	06dc                	addi	x15,x2,836
     6a1:	0000                	unimp
     6a3:	0006                	c.slli	x0,0x1
     6a5:	0086                	slli	x1,x1,0x1
     6a7:	ff08                	fsw	f10,56(x14)
     6a9:	9f1a                	add	x30,x30,x6
     6ab:	06dc                	addi	x15,x2,836
     6ad:	0000                	unimp
     6af:	06e8                	addi	x10,x2,844
     6b1:	0000                	unimp
     6b3:	0001                	nop
     6b5:	e859                	bnez	x8,74b <.L128+0x13>
     6b7:	0006                	c.slli	x0,0x1
     6b9:	f000                	fsw	f8,32(x8)
     6bb:	0006                	c.slli	x0,0x1
     6bd:	0600                	addi	x8,x2,768
     6bf:	8500                	0x8500
     6c1:	8600                	0x8600
     6c3:	2700                	fld	f8,8(x14)
     6c5:	f09f 0006 b400      	0xb4000006f09f
     6cb:	01000007          	0x1000007
     6cf:	5900                	lw	x8,48(x10)
     6d1:	07b8                	addi	x14,x2,968
     6d3:	0000                	unimp
     6d5:	07e0                	addi	x8,x2,972
     6d7:	0000                	unimp
     6d9:	0001                	nop
     6db:	0059                	c.nop	22
     6dd:	0000                	unimp
     6df:	0000                	unimp
     6e1:	0000                	unimp
	...

000006e4 <.LLST15>:
     6e4:	00dc                	addi	x15,x2,68
     6e6:	0000                	unimp
     6e8:	00f8                	addi	x14,x2,76
     6ea:	0000                	unimp
     6ec:	0001                	nop
     6ee:	3862                	fld	f16,56(x2)
     6f0:	0002                	c.slli64	x0
     6f2:	d000                	sw	x8,32(x8)
     6f4:	0005                	c.nop	1
     6f6:	0100                	addi	x8,x2,128
     6f8:	6200                	flw	f8,0(x12)
     6fa:	05d0                	addi	x12,x2,708
     6fc:	0000                	unimp
     6fe:	0608                	addi	x10,x2,768
     700:	0000                	unimp
     702:	0001                	nop
     704:	085f 0006 1400      	0x14000006085f
     70a:	0006                	c.slli	x0,0x1
     70c:	0400                	addi	x8,x2,512
     70e:	8200                	0x8200
     710:	07ff                	0x7ff
     712:	149f 0006 3000      	0x30000006149f
     718:	0006                	c.slli	x0,0x1
     71a:	0100                	addi	x8,x2,128
     71c:	5f00                	lw	x8,56(x14)
     71e:	0690                	addi	x12,x2,832
     720:	0000                	unimp
     722:	06c4                	addi	x9,x2,836
     724:	0000                	unimp
     726:	0001                	nop
     728:	d462                	sw	x24,40(x2)
     72a:	0006                	c.slli	x0,0x1
     72c:	f000                	fsw	f8,32(x8)
     72e:	0006                	c.slli	x0,0x1
     730:	0100                	addi	x8,x2,128
     732:	6200                	flw	f8,0(x12)
     734:	06f0                	addi	x12,x2,844
     736:	0000                	unimp
     738:	06f8                	addi	x14,x2,844
     73a:	0000                	unimp
     73c:	0001                	nop
     73e:	f85f 0006 2800      	0x28000006f85f
     744:	01000007          	0x1000007
     748:	5b00                	lw	x8,48(x14)
     74a:	0758                	addi	x14,x2,900
     74c:	0000                	unimp
     74e:	0768                	addi	x10,x2,908
     750:	0000                	unimp
     752:	0002                	c.slli64	x0
     754:	9f30                	0x9f30
     756:	0770                	addi	x12,x2,908
     758:	0000                	unimp
     75a:	07a0                	addi	x8,x2,968
     75c:	0000                	unimp
     75e:	0001                	nop
     760:	0007a05b          	0x7a05b
     764:	a400                	fsd	f8,8(x8)
     766:	07000007          	0x7000007
     76a:	0b00                	addi	x8,x2,400
     76c:	fc02                	fsw	f0,56(x2)
     76e:	0082                	c.slli64	x1
     770:	9f1c                	0x9f1c
     772:	07a4                	addi	x9,x2,968
     774:	0000                	unimp
     776:	07b8                	addi	x14,x2,968
     778:	0000                	unimp
     77a:	0001                	nop
     77c:	d462                	sw	x24,40(x2)
     77e:	e0000007          	0xe0000007
     782:	01000007          	0x1000007
     786:	6200                	flw	f8,0(x12)
	...

00000790 <.LLST16>:
     790:	0504                	addi	x9,x2,640
     792:	0000                	unimp
     794:	0598                	addi	x14,x2,704
     796:	0000                	unimp
     798:	0001                	nop
     79a:	9860                	0x9860
     79c:	0005                	c.nop	1
     79e:	f000                	fsw	f8,32(x8)
     7a0:	0005                	c.nop	1
     7a2:	0100                	addi	x8,x2,128
     7a4:	5d00                	lw	x8,56(x10)
     7a6:	05f0                	addi	x12,x2,716
     7a8:	0000                	unimp
     7aa:	05f4                	addi	x13,x2,716
     7ac:	0000                	unimp
     7ae:	7c7c0003          	lb	x0,1991(x24)
     7b2:	f49f 0005 f800      	0xf8000005f49f
     7b8:	0005                	c.nop	1
     7ba:	0100                	addi	x8,x2,128
     7bc:	5c00                	lw	x8,56(x8)
     7be:	05f8                	addi	x14,x2,716
     7c0:	0000                	unimp
     7c2:	0614                	addi	x13,x2,768
     7c4:	0000                	unimp
     7c6:	0001                	nop
     7c8:	145d                	addi	x8,x8,-9
     7ca:	0006                	c.slli	x0,0x1
     7cc:	2000                	fld	f8,0(x8)
     7ce:	0006                	c.slli	x0,0x1
     7d0:	0a00                	addi	x8,x2,272
     7d2:	7d00                	flw	f8,56(x10)
     7d4:	3300                	fld	f8,32(x14)
     7d6:	8325                	srli	x14,x14,0x9
     7d8:	4d00                	lw	x8,24(x10)
     7da:	2124                	fld	f9,64(x10)
     7dc:	209f 0006 2400      	0x24000006209f
     7e2:	0006                	c.slli	x0,0x1
     7e4:	0800                	addi	x8,x2,16
     7e6:	8300                	0x8300
     7e8:	4d00                	lw	x8,24(x10)
     7ea:	7d24                	flw	f9,120(x10)
     7ec:	2100                	fld	f8,0(x10)
     7ee:	249f 0006 2800      	0x28000006249f
     7f4:	0006                	c.slli	x0,0x1
     7f6:	0600                	addi	x8,x2,768
     7f8:	7d00                	flw	f8,56(x10)
     7fa:	7e00                	flw	f8,56(x12)
     7fc:	2100                	fld	f8,0(x10)
     7fe:	289f 0006 2c00      	0x2c000006289f
     804:	0006                	c.slli	x0,0x1
     806:	0800                	addi	x8,x2,16
     808:	8300                	0x8300
     80a:	4d00                	lw	x8,24(x10)
     80c:	7d24                	flw	f9,120(x10)
     80e:	2100                	fld	f8,0(x10)
     810:	2c9f 0006 9000      	0x900000062c9f
     816:	0006                	c.slli	x0,0x1
     818:	0100                	addi	x8,x2,128
     81a:	5e00                	lw	x8,56(x12)
     81c:	06a0                	addi	x8,x2,840
     81e:	0000                	unimp
     820:	06ac                	addi	x11,x2,840
     822:	0000                	unimp
     824:	0001                	nop
     826:	ac58                	fsd	f14,152(x8)
     828:	0006                	c.slli	x0,0x1
     82a:	c400                	sw	x8,8(x8)
     82c:	0006                	c.slli	x0,0x1
     82e:	0100                	addi	x8,x2,128
     830:	5d00                	lw	x8,56(x10)
     832:	06d8                	addi	x14,x2,836
     834:	0000                	unimp
     836:	06dc                	addi	x15,x2,836
     838:	0000                	unimp
     83a:	0001                	nop
     83c:	f05d                	bnez	x8,7e2 <.L132+0xa>
     83e:	0006                	c.slli	x0,0x1
     840:	2400                	fld	f8,8(x8)
     842:	01000007          	0x1000007
     846:	5d00                	lw	x8,56(x10)
     848:	0724                	addi	x9,x2,904
     84a:	0000                	unimp
     84c:	0744                	addi	x9,x2,900
     84e:	0000                	unimp
     850:	0001                	nop
     852:	445f 0007 4800      	0x48000007445f
     858:	03000007          	0x3000007
     85c:	7e00                	flw	f8,56(x12)
     85e:	9f7c                	0x9f7c
     860:	0748                	addi	x10,x2,900
     862:	0000                	unimp
     864:	074c                	addi	x11,x2,900
     866:	0000                	unimp
     868:	0001                	nop
     86a:	4c5e                	lw	x24,212(x2)
     86c:	60000007          	0x60000007
     870:	01000007          	0x1000007
     874:	5f00                	lw	x8,56(x14)
     876:	0764                	addi	x9,x2,908
     878:	0000                	unimp
     87a:	0768                	addi	x10,x2,908
     87c:	0000                	unimp
     87e:	0001                	nop
     880:	705e                	flw	f0,244(x2)
     882:	9c000007          	0x9c000007
     886:	01000007          	0x1000007
     88a:	5d00                	lw	x8,56(x10)
     88c:	079c                	addi	x15,x2,960
     88e:	0000                	unimp
     890:	07a4                	addi	x9,x2,968
     892:	0000                	unimp
     894:	0001                	nop
     896:	c45f 0007 d000      	0xd0000007c45f
     89c:	01000007          	0x1000007
     8a0:	5f00                	lw	x8,56(x14)
     8a2:	07d4                	addi	x13,x2,964
     8a4:	0000                	unimp
     8a6:	07d8                	addi	x14,x2,964
     8a8:	0000                	unimp
     8aa:	0001                	nop
     8ac:	d85d                	beqz	x8,862 <.L135+0x26>
     8ae:	e0000007          	0xe0000007
     8b2:	01000007          	0x1000007
     8b6:	6000                	flw	f8,0(x8)
	...

000008c0 <.LLST17>:
     8c0:	033c                	addi	x15,x2,392
     8c2:	0000                	unimp
     8c4:	03e8                	addi	x10,x2,460
     8c6:	0000                	unimp
     8c8:	0001                	nop
     8ca:	e860                	fsw	f8,84(x8)
     8cc:	14000003          	lb	x0,320(x0) # 140 <.LASF42+0x1>
     8d0:	0006                	c.slli	x0,0x1
     8d2:	0100                	addi	x8,x2,128
     8d4:	6300                	flw	f8,0(x14)
     8d6:	0614                	addi	x13,x2,768
     8d8:	0000                	unimp
     8da:	062c                	addi	x11,x2,776
     8dc:	0000                	unimp
     8de:	0005                	c.nop	1
     8e0:	25330083          	lb	x1,595(x6)
     8e4:	2c9f 0006 3800      	0x380000062c9f
     8ea:	0006                	c.slli	x0,0x1
     8ec:	0100                	addi	x8,x2,128
     8ee:	5b00                	lw	x8,48(x14)
     8f0:	06a0                	addi	x8,x2,840
     8f2:	0000                	unimp
     8f4:	06ac                	addi	x11,x2,840
     8f6:	0000                	unimp
     8f8:	0001                	nop
     8fa:	ac69                	j	b94 <.LLST28+0x8>
     8fc:	0006                	c.slli	x0,0x1
     8fe:	c400                	sw	x8,8(x8)
     900:	0006                	c.slli	x0,0x1
     902:	0100                	addi	x8,x2,128
     904:	6300                	flw	f8,0(x14)
     906:	06d8                	addi	x14,x2,836
     908:	0000                	unimp
     90a:	06dc                	addi	x15,x2,836
     90c:	0000                	unimp
     90e:	0001                	nop
     910:	0006f063          	bgeu	x13,x0,910 <.L140+0xc>
     914:	2800                	fld	f8,16(x8)
     916:	01000007          	0x1000007
     91a:	6300                	flw	f8,0(x14)
     91c:	0728                	addi	x10,x2,904
     91e:	0000                	unimp
     920:	0768                	addi	x10,x2,908
     922:	0000                	unimp
     924:	0001                	nop
     926:	0007705b          	0x7705b
     92a:	9c00                	0x9c00
     92c:	01000007          	0x1000007
     930:	6300                	flw	f8,0(x14)
     932:	079c                	addi	x15,x2,960
     934:	0000                	unimp
     936:	07a4                	addi	x9,x2,968
     938:	0000                	unimp
     93a:	0002                	c.slli64	x0
     93c:	9f30                	0x9f30
     93e:	07c4                	addi	x9,x2,964
     940:	0000                	unimp
     942:	07c8                	addi	x10,x2,964
     944:	0000                	unimp
     946:	0001                	nop
     948:	0007d45b          	0x7d45b
     94c:	e000                	fsw	f8,0(x8)
     94e:	01000007          	0x1000007
     952:	6300                	flw	f8,0(x14)
	...

0000095c <.LLST18>:
     95c:	010c                	addi	x11,x2,128
     95e:	0000                	unimp
     960:	0110                	addi	x12,x2,128
     962:	0000                	unimp
     964:	0001                	nop
     966:	105a                	c.slli	x0,0x36
     968:	0001                	nop
     96a:	4000                	lw	x8,0(x8)
     96c:	0001                	nop
     96e:	0100                	addi	x8,x2,128
     970:	5f00                	lw	x8,56(x14)
     972:	0144                	addi	x9,x2,132
     974:	0000                	unimp
     976:	014c                	addi	x11,x2,132
     978:	0000                	unimp
     97a:	0001                	nop
     97c:	4c5a                	lw	x24,148(x2)
     97e:	0001                	nop
     980:	5c00                	lw	x8,56(x8)
     982:	0001                	nop
     984:	0100                	addi	x8,x2,128
     986:	5f00                	lw	x8,56(x14)
	...

00000990 <.LLST19>:
     990:	01ac                	addi	x11,x2,200
     992:	0000                	unimp
     994:	01b0                	addi	x12,x2,200
     996:	0000                	unimp
     998:	0001                	nop
     99a:	b05a                	fsd	f22,32(x2)
     99c:	0001                	nop
     99e:	e000                	fsw	f8,0(x8)
     9a0:	0001                	nop
     9a2:	0100                	addi	x8,x2,128
     9a4:	5f00                	lw	x8,56(x14)
     9a6:	01e8                	addi	x10,x2,204
     9a8:	0000                	unimp
     9aa:	01f0                	addi	x12,x2,204
     9ac:	0000                	unimp
     9ae:	0001                	nop
     9b0:	f05a                	fsw	f22,32(x2)
     9b2:	0001                	nop
     9b4:	0000                	unimp
     9b6:	0002                	c.slli64	x0
     9b8:	0100                	addi	x8,x2,128
     9ba:	5f00                	lw	x8,56(x14)
	...

000009c4 <.LLST20>:
     9c4:	0244                	addi	x9,x2,260
     9c6:	0000                	unimp
     9c8:	0254                	addi	x13,x2,260
     9ca:	0000                	unimp
     9cc:	0005                	c.nop	1
     9ce:	0089                	addi	x1,x1,2
     9d0:	2531                	jal	fdc <.LLST53+0x15>
     9d2:	549f 0002 f000      	0xf0000002549f
     9d8:	0002                	c.slli64	x0
     9da:	0100                	addi	x8,x2,128
     9dc:	6900                	flw	f8,16(x10)
     9de:	0694                	addi	x13,x2,832
     9e0:	0000                	unimp
     9e2:	069c                	addi	x15,x2,832
     9e4:	0000                	unimp
     9e6:	0001                	nop
     9e8:	0069                	c.nop	26
     9ea:	0000                	unimp
     9ec:	0000                	unimp
     9ee:	0000                	unimp
	...

000009f1 <.LLST21>:
     9f1:	024c                	addi	x11,x2,260
     9f3:	0000                	unimp
     9f5:	0258                	addi	x14,x2,260
     9f7:	0000                	unimp
     9f9:	0006                	c.slli	x0,0x1
     9fb:	007e                	c.slli	x0,0x1f
     9fd:	007f                	0x7f
     9ff:	9f21                	0x9f21
     a01:	0258                	addi	x14,x2,260
     a03:	0000                	unimp
     a05:	0300                	addi	x8,x2,384
     a07:	0000                	unimp
     a09:	0001                	nop
     a0b:	9458                	0x9458
     a0d:	0006                	c.slli	x0,0x1
     a0f:	9c00                	0x9c00
     a11:	0006                	c.slli	x0,0x1
     a13:	0100                	addi	x8,x2,128
     a15:	5800                	lw	x8,48(x8)
	...

00000a1f <.LLST22>:
     a1f:	0250                	addi	x12,x2,260
     a21:	0000                	unimp
     a23:	03d8                	addi	x14,x2,452
     a25:	0000                	unimp
     a27:	0001                	nop
     a29:	0006946b          	0x6946b
     a2d:	9c00                	0x9c00
     a2f:	0006                	c.slli	x0,0x1
     a31:	0200                	addi	x8,x2,256
     a33:	3000                	fld	f8,32(x8)
     a35:	009f 0000 0000      	0x9f
     a3b:	0000                	unimp
	...

00000a3e <.LLST23>:
     a3e:	033c                	addi	x15,x2,392
     a40:	0000                	unimp
     a42:	03e4                	addi	x9,x2,460
     a44:	0000                	unimp
     a46:	0001                	nop
     a48:	e858                	fsw	f14,20(x8)
     a4a:	1c000003          	lb	x0,448(x0) # 1c0 <.LASF46+0x10>
     a4e:	0004                	0x4
     a50:	0100                	addi	x8,x2,128
     a52:	5800                	lw	x8,48(x8)
     a54:	0424                	addi	x9,x2,520
     a56:	0000                	unimp
     a58:	0490                	addi	x12,x2,576
     a5a:	0000                	unimp
     a5c:	0001                	nop
     a5e:	0458                	addi	x14,x2,516
     a60:	0005                	c.nop	1
     a62:	9400                	0x9400
     a64:	0005                	c.nop	1
     a66:	0100                	addi	x8,x2,128
     a68:	5f00                	lw	x8,56(x14)
     a6a:	0598                	addi	x14,x2,704
     a6c:	0000                	unimp
     a6e:	05c4                	addi	x9,x2,708
     a70:	0000                	unimp
     a72:	0001                	nop
     a74:	c45f 0005 c800      	0xc8000005c45f
     a7a:	0005                	c.nop	1
     a7c:	0100                	addi	x8,x2,128
     a7e:	5c00                	lw	x8,56(x8)
     a80:	07d4                	addi	x13,x2,964
     a82:	0000                	unimp
     a84:	07d8                	addi	x14,x2,964
     a86:	0000                	unimp
     a88:	0001                	nop
     a8a:	005f 0000 0000      	0x5f
     a90:	0000                	unimp
	...

00000a93 <.LLST24>:
     a93:	03c4                	addi	x9,x2,452
     a95:	0000                	unimp
     a97:	03d8                	addi	x14,x2,452
     a99:	0000                	unimp
     a9b:	0001                	nop
     a9d:	0003e86b          	0x3e86b
     aa1:	0400                	addi	x8,x2,512
     aa3:	0004                	0x4
     aa5:	0100                	addi	x8,x2,128
     aa7:	6b00                	flw	f8,16(x14)
     aa9:	0414                	addi	x13,x2,512
     aab:	0000                	unimp
     aad:	0424                	addi	x9,x2,520
     aaf:	0000                	unimp
     ab1:	0001                	nop
     ab3:	0004246b          	0x4246b
     ab7:	c400                	sw	x8,8(x8)
     ab9:	0004                	0x4
     abb:	0100                	addi	x8,x2,128
     abd:	6400                	flw	f8,8(x8)
     abf:	0580                	addi	x8,x2,704
     ac1:	0000                	unimp
     ac3:	0598                	addi	x14,x2,704
     ac5:	0000                	unimp
     ac7:	0002                	c.slli64	x0
     ac9:	9f30                	0x9f30
     acb:	0598                	addi	x14,x2,704
     acd:	0000                	unimp
     acf:	05b0                	addi	x12,x2,712
     ad1:	0000                	unimp
     ad3:	0001                	nop
     ad5:	bc66                	fsd	f25,56(x2)
     ad7:	0005                	c.nop	1
     ad9:	c000                	sw	x8,0(x8)
     adb:	0005                	c.nop	1
     add:	0100                	addi	x8,x2,128
     adf:	5e00                	lw	x8,56(x12)
     ae1:	05c0                	addi	x8,x2,708
     ae3:	0000                	unimp
     ae5:	05c8                	addi	x10,x2,708
     ae7:	0000                	unimp
     ae9:	0001                	nop
     aeb:	d466                	sw	x25,40(x2)
     aed:	d8000007          	0xd8000007
     af1:	01000007          	0x1000007
     af5:	6600                	flw	f8,8(x12)
	...

00000aff <.LLST25>:
     aff:	03c0                	addi	x8,x2,452
     b01:	0000                	unimp
     b03:	0428                	addi	x10,x2,520
     b05:	0000                	unimp
     b07:	0001                	nop
     b09:	285d                	jal	bbf <.L255+0x27>
     b0b:	0004                	0x4
     b0d:	3700                	fld	f8,40(x14)
     b0f:	0004                	0x4
     b11:	0800                	addi	x8,x2,16
     b13:	7e00                	flw	f8,56(x12)
     b15:	4000                	lw	x8,0(x8)
     b17:	7c25                	lui	x24,0xfffe9
     b19:	2200                	fld	f8,0(x12)
     b1b:	7c9f 0005 cc00      	0xcc0000057c9f
     b21:	0005                	c.nop	1
     b23:	0100                	addi	x8,x2,128
     b25:	5c00                	lw	x8,56(x8)
     b27:	07d4                	addi	x13,x2,964
     b29:	0000                	unimp
     b2b:	07e0                	addi	x8,x2,972
     b2d:	0000                	unimp
     b2f:	0001                	nop
     b31:	005c                	addi	x15,x2,4
     b33:	0000                	unimp
     b35:	0000                	unimp
     b37:	0000                	unimp
	...

00000b3a <.LLST26>:
     b3a:	03c4                	addi	x9,x2,452
     b3c:	0000                	unimp
     b3e:	0418                	addi	x14,x2,512
     b40:	0000                	unimp
     b42:	0001                	nop
     b44:	8064                	0x8064
     b46:	0005                	c.nop	1
     b48:	cc00                	sw	x8,24(x8)
     b4a:	0005                	c.nop	1
     b4c:	0100                	addi	x8,x2,128
     b4e:	5a00                	lw	x8,48(x12)
     b50:	07d4                	addi	x13,x2,964
     b52:	0000                	unimp
     b54:	07e0                	addi	x8,x2,972
     b56:	0000                	unimp
     b58:	0001                	nop
     b5a:	005a                	c.slli	x0,0x16
     b5c:	0000                	unimp
     b5e:	0000                	unimp
     b60:	0000                	unimp
	...

00000b63 <.LLST27>:
     b63:	0278                	addi	x14,x2,268
     b65:	0000                	unimp
     b67:	027f                	0x27f
     b69:	0000                	unimp
     b6b:	0001                	nop
     b6d:	00027f5b          	0x27f5b
     b71:	cc00                	sw	x8,24(x8)
     b73:	0005                	c.nop	1
     b75:	0100                	addi	x8,x2,128
     b77:	6700                	flw	f8,8(x14)
     b79:	07d4                	addi	x13,x2,964
     b7b:	0000                	unimp
     b7d:	07e0                	addi	x8,x2,972
     b7f:	0000                	unimp
     b81:	0001                	nop
     b83:	00000067          	jr	x0 # 0 <.LLST0>
     b87:	0000                	unimp
     b89:	0000                	unimp
	...

00000b8c <.LLST28>:
     b8c:	027c                	addi	x15,x2,268
     b8e:	0000                	unimp
     b90:	04b0                	addi	x12,x2,584
     b92:	0000                	unimp
     b94:	0001                	nop
     b96:	b068                	fsd	f10,224(x8)
     b98:	0004                	0x4
     b9a:	b400                	fsd	f8,40(x8)
     b9c:	0005                	c.nop	1
     b9e:	0700                	addi	x8,x2,896
     ba0:	8500                	0x8500
     ba2:	4000                	lw	x8,0(x8)
     ba4:	4024                	lw	x9,64(x8)
     ba6:	9f25                	0x9f25
     ba8:	07d4                	addi	x13,x2,964
     baa:	0000                	unimp
     bac:	07e0                	addi	x8,x2,972
     bae:	0000                	unimp
     bb0:	00850007          	0x850007
     bb4:	2440                	fld	f8,136(x8)
     bb6:	2540                	fld	f8,136(x10)
     bb8:	009f 0000 0000      	0x9f
     bbe:	0000                	unimp
	...

00000bc1 <.LLST29>:
     bc1:	0288                	addi	x10,x2,320
     bc3:	0000                	unimp
     bc5:	028c                	addi	x11,x2,320
     bc7:	0000                	unimp
     bc9:	0001                	nop
     bcb:	8c5a                	mv	x24,x22
     bcd:	0002                	c.slli64	x0
     bcf:	8f00                	0x8f00
     bd1:	0002                	c.slli64	x0
     bd3:	0100                	addi	x8,x2,128
     bd5:	5b00                	lw	x8,48(x14)
     bd7:	0000028f          	0x28f
     bdb:	02bc                	addi	x15,x2,328
     bdd:	0000                	unimp
     bdf:	0001                	nop
     be1:	bc6a                	fsd	f26,56(x2)
     be3:	0002                	c.slli64	x0
     be5:	b400                	fsd	f8,40(x8)
     be7:	01000003          	lb	x0,16(x0) # 10 <.LLST0+0x10>
     beb:	6400                	flw	f8,8(x8)
	...

00000bf5 <.LLST30>:
     bf5:	02e4                	addi	x9,x2,332
     bf7:	0000                	unimp
     bf9:	02e8                	addi	x10,x2,332
     bfb:	0000                	unimp
     bfd:	0001                	nop
     bff:	e85a                	fsw	f22,16(x2)
     c01:	0002                	c.slli64	x0
     c03:	eb00                	fsw	f8,16(x14)
     c05:	0002                	c.slli64	x0
     c07:	0100                	addi	x8,x2,128
     c09:	5b00                	lw	x8,48(x14)
     c0b:	000002eb          	0x2eb
     c0f:	031c                	addi	x15,x2,384
     c11:	0000                	unimp
     c13:	0001                	nop
     c15:	1c6a                	slli	x24,x24,0x3a
     c17:	60000003          	lb	x0,1536(x0) # 600 <.L119+0x20>
     c1b:	01000003          	lb	x0,16(x0) # 10 <.LLST0+0x10>
     c1f:	5f00                	lw	x8,56(x14)
	...

00000c29 <.LLST31>:
     c29:	027c                	addi	x15,x2,268
     c2b:	0000                	unimp
     c2d:	027f                	0x27f
     c2f:	0000                	unimp
     c31:	0006                	c.slli	x0,0x1
     c33:	0089                	addi	x1,x1,2
     c35:	9f1d007b          	0x9f1d007b
     c39:	027f                	0x27f
     c3b:	0000                	unimp
     c3d:	02ac                	addi	x11,x2,328
     c3f:	0000                	unimp
     c41:	0006                	c.slli	x0,0x1
     c43:	0089                	addi	x1,x1,2
     c45:	9f1d0087          	0x9f1d0087
     c49:	02ac                	addi	x11,x2,328
     c4b:	0000                	unimp
     c4d:	02b8                	addi	x14,x2,328
     c4f:	0000                	unimp
     c51:	0001                	nop
     c53:	b85e                	fsd	f23,48(x2)
     c55:	0002                	c.slli64	x0
     c57:	bc00                	fsd	f8,56(x8)
     c59:	0002                	c.slli64	x0
     c5b:	0800                	addi	x8,x2,16
     c5d:	7800                	flw	f8,48(x8)
     c5f:	4000                	lw	x8,0(x8)
     c61:	7a25                	lui	x20,0xfffe9
     c63:	2100                	fld	f8,0(x10)
     c65:	bc9f 0002 d000      	0xd0000002bc9f
     c6b:	0002                	c.slli64	x0
     c6d:	0100                	addi	x8,x2,128
     c6f:	5e00                	lw	x8,56(x12)
     c71:	02d0                	addi	x12,x2,324
     c73:	0000                	unimp
     c75:	03cc                	addi	x11,x2,452
     c77:	0000                	unimp
     c79:	0001                	nop
     c7b:	00000063          	beqz	x0,c7b <.L16+0xf>
     c7f:	0000                	unimp
     c81:	0000                	unimp
	...

00000c84 <.LLST32>:
     c84:	02d0                	addi	x12,x2,324
     c86:	0000                	unimp
     c88:	030c                	addi	x11,x2,384
     c8a:	0000                	unimp
     c8c:	0006                	c.slli	x0,0x1
     c8e:	00870083          	lb	x1,8(x14)
     c92:	9f1d                	0x9f1d
     c94:	030c                	addi	x11,x2,384
     c96:	0000                	unimp
     c98:	0318                	addi	x14,x2,384
     c9a:	0000                	unimp
     c9c:	0001                	nop
     c9e:	1c58                	addi	x14,x2,564
     ca0:	e4000003          	lb	x0,-448(x0) # fffffe40 <seed1_volatile+0xfffbf780>
     ca4:	01000003          	lb	x0,16(x0) # 10 <.LLST0+0x10>
     ca8:	5800                	lw	x8,48(x8)
	...

00000cb2 <.LLST33>:
     cb2:	0294                	addi	x13,x2,320
     cb4:	0000                	unimp
     cb6:	029c                	addi	x15,x2,320
     cb8:	0000                	unimp
     cba:	0001                	nop
     cbc:	9c5a                	add	x24,x24,x22
     cbe:	0002                	c.slli64	x0
     cc0:	d000                	sw	x8,32(x8)
     cc2:	0002                	c.slli64	x0
     cc4:	0100                	addi	x8,x2,128
     cc6:	6300                	flw	f8,0(x14)
     cc8:	02f0                	addi	x12,x2,332
     cca:	0000                	unimp
     ccc:	02f8                	addi	x14,x2,332
     cce:	0000                	unimp
     cd0:	0001                	nop
     cd2:	f85a                	fsw	f22,48(x2)
     cd4:	0002                	c.slli64	x0
     cd6:	4000                	lw	x8,0(x8)
     cd8:	01000003          	lb	x0,16(x0) # 10 <.LLST0+0x10>
     cdc:	6900                	flw	f8,16(x10)
	...

00000ce6 <.LLST34>:
     ce6:	0360                	addi	x8,x2,396
     ce8:	0000                	unimp
     cea:	0368                	addi	x10,x2,396
     cec:	0000                	unimp
     cee:	0001                	nop
     cf0:	685a                	flw	f16,148(x2)
     cf2:	bc000003          	lb	x0,-1088(x0) # fffffbc0 <seed1_volatile+0xfffbf500>
     cf6:	01000003          	lb	x0,16(x0) # 10 <.LLST0+0x10>
     cfa:	5f00                	lw	x8,56(x14)
	...

00000d04 <.LLST35>:
     d04:	0370                	addi	x12,x2,396
     d06:	0000                	unimp
     d08:	0378                	addi	x14,x2,396
     d0a:	0000                	unimp
     d0c:	0001                	nop
     d0e:	785a                	flw	f16,180(x2)
     d10:	94000003          	lb	x0,-1728(x0) # fffff940 <seed1_volatile+0xfffbf280>
     d14:	01000003          	lb	x0,16(x0) # 10 <.LLST0+0x10>
     d18:	6100                	flw	f8,0(x10)
     d1a:	039c                	addi	x15,x2,448
     d1c:	0000                	unimp
     d1e:	00000437          	lui	x8,0x0
     d22:	0001                	nop
     d24:	005e                	c.slli	x0,0x17
     d26:	0000                	unimp
     d28:	0000                	unimp
     d2a:	0000                	unimp
	...

00000d2d <.LLST36>:
     d2d:	0380                	addi	x8,x2,448
     d2f:	0000                	unimp
     d31:	00000437          	lui	x8,0x0
     d35:	0001                	nop
     d37:	0056                	c.slli	x0,0x15
     d39:	0000                	unimp
     d3b:	0000                	unimp
     d3d:	0000                	unimp
	...

00000d40 <.LLST37>:
     d40:	039c                	addi	x15,x2,448
     d42:	0000                	unimp
     d44:	03a4                	addi	x9,x2,456
     d46:	0000                	unimp
     d48:	0001                	nop
     d4a:	a45a                	fsd	f22,8(x2)
     d4c:	37000003          	lb	x0,880(x0) # 370 <.L54+0x8>
     d50:	0004                	0x4
     d52:	0100                	addi	x8,x2,128
     d54:	5c00                	lw	x8,56(x8)
	...

00000d5e <.LLST38>:
     d5e:	033c                	addi	x15,x2,392
     d60:	0000                	unimp
     d62:	00000437          	lui	x8,0x0
     d66:	0001                	nop
     d68:	0060                	addi	x8,x2,12
     d6a:	0000                	unimp
     d6c:	0000                	unimp
     d6e:	0000                	unimp
	...

00000d71 <.LLST39>:
     d71:	034c                	addi	x11,x2,388
     d73:	0000                	unimp
     d75:	05b0                	addi	x12,x2,712
     d77:	0000                	unimp
     d79:	0001                	nop
     d7b:	d466                	sw	x25,40(x2)
     d7d:	e0000007          	0xe0000007
     d81:	01000007          	0x1000007
     d85:	6600                	flw	f8,8(x12)
	...

00000d8f <.LLST40>:
     d8f:	034c                	addi	x11,x2,388
     d91:	0000                	unimp
     d93:	0390                	addi	x12,x2,448
     d95:	0000                	unimp
     d97:	0001                	nop
     d99:	905e                	c.add	x0,x23
     d9b:	37000003          	lb	x0,880(x0) # 370 <.L54+0x8>
     d9f:	0004                	0x4
     da1:	0500                	addi	x8,x2,640
     da3:	8000                	0x8000
     da5:	4000                	lw	x8,0(x8)
     da7:	9f25                	0x9f25
	...

00000db1 <.LLST41>:
     db1:	0350                	addi	x12,x2,388
     db3:	0000                	unimp
     db5:	05cc                	addi	x11,x2,708
     db7:	0000                	unimp
     db9:	0001                	nop
     dbb:	d46a                	sw	x26,40(x2)
     dbd:	e0000007          	0xe0000007
     dc1:	01000007          	0x1000007
     dc5:	6a00                	flw	f8,16(x12)
	...

00000dcf <.LLST42>:
     dcf:	03e8                	addi	x10,x2,460
     dd1:	0000                	unimp
     dd3:	0404                	addi	x9,x2,512
     dd5:	0000                	unimp
     dd7:	0001                	nop
     dd9:	0000006b          	0x6b
     ddd:	0000                	unimp
     ddf:	0000                	unimp
	...

00000de2 <.LLST43>:
     de2:	0410                	addi	x12,x2,512
     de4:	0000                	unimp
     de6:	0414                	addi	x13,x2,512
     de8:	0000                	unimp
     dea:	0001                	nop
     dec:	0000006b          	0x6b
     df0:	0000                	unimp
     df2:	0000                	unimp
	...

00000df5 <.LLST44>:
     df5:	0418                	addi	x14,x2,512
     df7:	0000                	unimp
     df9:	04c4                	addi	x9,x2,580
     dfb:	0000                	unimp
     dfd:	0001                	nop
     dff:	0064                	addi	x9,x2,12
     e01:	0000                	unimp
     e03:	0000                	unimp
     e05:	0000                	unimp
	...

00000e08 <.LLST45>:
     e08:	042c                	addi	x11,x2,520
     e0a:	0000                	unimp
     e0c:	05cc                	addi	x11,x2,708
     e0e:	0000                	unimp
     e10:	0001                	nop
     e12:	0007d467          	0x7d467
     e16:	e000                	fsw	f8,0(x8)
     e18:	01000007          	0x1000007
     e1c:	6700                	flw	f8,8(x14)
	...

00000e26 <.LLST46>:
     e26:	042c                	addi	x11,x2,520
     e28:	0000                	unimp
     e2a:	04b0                	addi	x12,x2,584
     e2c:	0000                	unimp
     e2e:	0001                	nop
     e30:	b068                	fsd	f10,224(x8)
     e32:	0004                	0x4
     e34:	b400                	fsd	f8,40(x8)
     e36:	0005                	c.nop	1
     e38:	0700                	addi	x8,x2,896
     e3a:	8500                	0x8500
     e3c:	4000                	lw	x8,0(x8)
     e3e:	4024                	lw	x9,64(x8)
     e40:	9f25                	0x9f25
     e42:	07d4                	addi	x13,x2,964
     e44:	0000                	unimp
     e46:	07e0                	addi	x8,x2,972
     e48:	0000                	unimp
     e4a:	00850007          	0x850007
     e4e:	2440                	fld	f8,136(x8)
     e50:	2540                	fld	f8,136(x10)
     e52:	009f 0000 0000      	0x9f
     e58:	0000                	unimp
	...

00000e5b <.LLST47>:
     e5b:	0438                	addi	x14,x2,520
     e5d:	0000                	unimp
     e5f:	0444                	addi	x9,x2,516
     e61:	0000                	unimp
     e63:	0001                	nop
     e65:	445a                	lw	x8,148(x2)
     e67:	0004                	0x4
     e69:	4700                	lw	x8,8(x14)
     e6b:	0004                	0x4
     e6d:	0100                	addi	x8,x2,128
     e6f:	5b00                	lw	x8,48(x14)
     e71:	00000447          	fmsub.s	f8,f0,f0,f0,rne
     e75:	047c                	addi	x15,x2,524
     e77:	0000                	unimp
     e79:	bc910003          	lb	x0,-1079(x2) # e02ff21 <seed1_volatile+0xdfef861>
     e7d:	7c7f                	0x7c7f
     e7f:	0004                	0x4
     e81:	cc00                	sw	x8,24(x8)
     e83:	0005                	c.nop	1
     e85:	0100                	addi	x8,x2,128
     e87:	6b00                	flw	f8,16(x14)
     e89:	07d4                	addi	x13,x2,964
     e8b:	0000                	unimp
     e8d:	07e0                	addi	x8,x2,972
     e8f:	0000                	unimp
     e91:	0001                	nop
     e93:	0000006b          	0x6b
     e97:	0000                	unimp
     e99:	0000                	unimp
	...

00000e9c <.LLST48>:
     e9c:	049c                	addi	x15,x2,576
     e9e:	0000                	unimp
     ea0:	04a8                	addi	x10,x2,584
     ea2:	0000                	unimp
     ea4:	0001                	nop
     ea6:	a85a                	fsd	f22,16(x2)
     ea8:	0004                	0x4
     eaa:	ab00                	fsd	f8,16(x14)
     eac:	0004                	0x4
     eae:	0100                	addi	x8,x2,128
     eb0:	5b00                	lw	x8,48(x14)
     eb2:	000004ab          	0x4ab
     eb6:	04e0                	addi	x8,x2,588
     eb8:	0000                	unimp
     eba:	b8910003          	lb	x0,-1143(x2)
     ebe:	e07f                	0xe07f
     ec0:	0004                	0x4
     ec2:	1400                	addi	x8,x2,544
     ec4:	0005                	c.nop	1
     ec6:	0100                	addi	x8,x2,128
     ec8:	5d00                	lw	x8,56(x10)
	...

00000ed2 <.LLST49>:
     ed2:	042c                	addi	x11,x2,520
     ed4:	0000                	unimp
     ed6:	046c                	addi	x11,x2,524
     ed8:	0000                	unimp
     eda:	0006                	c.slli	x0,0x1
     edc:	0078                	addi	x14,x2,12
     ede:	9f1d0087          	0x9f1d0087
     ee2:	046c                	addi	x11,x2,524
     ee4:	0000                	unimp
     ee6:	0478                	addi	x14,x2,524
     ee8:	0000                	unimp
     eea:	0001                	nop
     eec:	785f 0004 7c00      	0x7c000004785f
     ef2:	0004                	0x4
     ef4:	0800                	addi	x8,x2,16
     ef6:	8400                	0x8400
     ef8:	4000                	lw	x8,0(x8)
     efa:	7a25                	lui	x20,0xfffe9
     efc:	2100                	fld	f8,0(x10)
     efe:	7c9f 0004 9000      	0x900000047c9f
     f04:	0004                	0x4
     f06:	0100                	addi	x8,x2,128
     f08:	5f00                	lw	x8,56(x14)
     f0a:	0490                	addi	x12,x2,576
     f0c:	0000                	unimp
     f0e:	05cc                	addi	x11,x2,708
     f10:	0000                	unimp
     f12:	0001                	nop
     f14:	d458                	sw	x14,44(x8)
     f16:	e0000007          	0xe0000007
     f1a:	01000007          	0x1000007
     f1e:	5800                	lw	x8,48(x8)
	...

00000f28 <.LLST50>:
     f28:	0490                	addi	x12,x2,576
     f2a:	0000                	unimp
     f2c:	04d0                	addi	x12,x2,580
     f2e:	0000                	unimp
     f30:	0006                	c.slli	x0,0x1
     f32:	0078                	addi	x14,x2,12
     f34:	9f1d0087          	0x9f1d0087
     f38:	04d0                	addi	x12,x2,580
     f3a:	0000                	unimp
     f3c:	04dc                	addi	x15,x2,580
     f3e:	0000                	unimp
     f40:	0001                	nop
     f42:	dc5f 0004 e000      	0xe0000004dc5f
     f48:	0004                	0x4
     f4a:	0800                	addi	x8,x2,16
     f4c:	7a00                	flw	f8,48(x12)
     f4e:	4000                	lw	x8,0(x8)
     f50:	8424                	0x8424
     f52:	2100                	fld	f8,0(x10)
     f54:	e09f 0004 9400      	0x94000004e09f
     f5a:	0005                	c.nop	1
     f5c:	0100                	addi	x8,x2,128
     f5e:	5f00                	lw	x8,56(x14)
	...

00000f68 <.LLST51>:
     f68:	044c                	addi	x11,x2,516
     f6a:	0000                	unimp
     f6c:	0454                	addi	x13,x2,516
     f6e:	0000                	unimp
     f70:	0001                	nop
     f72:	545a                	lw	x8,180(x2)
     f74:	0004                	0x4
     f76:	a400                	fsd	f8,8(x8)
     f78:	0004                	0x4
     f7a:	0300                	addi	x8,x2,384
     f7c:	9100                	0x9100
     f7e:	7fb8                	flw	f14,120(x15)
     f80:	04b0                	addi	x12,x2,584
     f82:	0000                	unimp
     f84:	04b8                	addi	x14,x2,584
     f86:	0000                	unimp
     f88:	0001                	nop
     f8a:	b85a                	fsd	f22,48(x2)
     f8c:	0004                	0x4
     f8e:	cc00                	sw	x8,24(x8)
     f90:	0005                	c.nop	1
     f92:	0100                	addi	x8,x2,128
     f94:	6800                	flw	f8,16(x8)
     f96:	07d4                	addi	x13,x2,964
     f98:	0000                	unimp
     f9a:	07e0                	addi	x8,x2,972
     f9c:	0000                	unimp
     f9e:	0001                	nop
     fa0:	0068                	addi	x10,x2,12
     fa2:	0000                	unimp
     fa4:	0000                	unimp
     fa6:	0000                	unimp
	...

00000fa9 <.LLST52>:
     fa9:	0518                	addi	x14,x2,640
     fab:	0000                	unimp
     fad:	05cc                	addi	x11,x2,708
     faf:	0000                	unimp
     fb1:	0001                	nop
     fb3:	d456                	sw	x21,40(x2)
     fb5:	e0000007          	0xe0000007
     fb9:	01000007          	0x1000007
     fbd:	5600                	lw	x8,40(x12)
	...

00000fc7 <.LLST53>:
     fc7:	0528                	addi	x10,x2,648
     fc9:	0000                	unimp
     fcb:	0530                	addi	x12,x2,648
     fcd:	0000                	unimp
     fcf:	0001                	nop
     fd1:	305a                	fld	f0,432(x2)
     fd3:	0005                	c.nop	1
     fd5:	4c00                	lw	x8,24(x8)
     fd7:	0005                	c.nop	1
     fd9:	0100                	addi	x8,x2,128
     fdb:	6100                	flw	f8,0(x10)
     fdd:	0554                	addi	x13,x2,644
     fdf:	0000                	unimp
     fe1:	0570                	addi	x12,x2,652
     fe3:	0000                	unimp
     fe5:	0001                	nop
     fe7:	705e                	flw	f0,244(x2)
     fe9:	0005                	c.nop	1
     feb:	cc00                	sw	x8,24(x8)
     fed:	0005                	c.nop	1
     fef:	0800                	addi	x8,x2,16
     ff1:	7600                	flw	f8,40(x12)
     ff3:	4000                	lw	x8,0(x8)
     ff5:	8125                	srli	x10,x10,0x9
     ff7:	2200                	fld	f8,0(x12)
     ff9:	d49f 0007 e000      	0xe0000007d49f
     fff:	08000007          	0x8000007
    1003:	7600                	flw	f8,40(x12)
    1005:	4000                	lw	x8,0(x8)
    1007:	8125                	srli	x10,x10,0x9
    1009:	2200                	fld	f8,0(x12)
    100b:	009f 0000 0000      	0x9f
    1011:	0000                	unimp
	...

00001014 <.LLST54>:
    1014:	0538                	addi	x14,x2,648
    1016:	0000                	unimp
    1018:	0540                	addi	x8,x2,644
    101a:	0000                	unimp
    101c:	0001                	nop
    101e:	405a                	0x405a
    1020:	0005                	c.nop	1
    1022:	cc00                	sw	x8,24(x8)
    1024:	0005                	c.nop	1
    1026:	0100                	addi	x8,x2,128
    1028:	6c00                	flw	f8,24(x8)
    102a:	07d4                	addi	x13,x2,964
    102c:	0000                	unimp
    102e:	07e0                	addi	x8,x2,972
    1030:	0000                	unimp
    1032:	0001                	nop
    1034:	006c                	addi	x11,x2,12
    1036:	0000                	unimp
    1038:	0000                	unimp
    103a:	0000                	unimp
	...

0000103d <.LLST55>:
    103d:	0554                	addi	x13,x2,644
    103f:	0000                	unimp
    1041:	0560                	addi	x8,x2,652
    1043:	0000                	unimp
    1045:	0001                	nop
    1047:	605a                	flw	f0,148(x2)
    1049:	0005                	c.nop	1
    104b:	8c00                	0x8c00
    104d:	0005                	c.nop	1
    104f:	0100                	addi	x8,x2,128
    1051:	5d00                	lw	x8,56(x10)
	...

0000105b <.LLST56>:
    105b:	0504                	addi	x9,x2,640
    105d:	0000                	unimp
    105f:	05c8                	addi	x10,x2,708
    1061:	0000                	unimp
    1063:	0001                	nop
    1065:	d460                	sw	x8,108(x8)
    1067:	d8000007          	0xd8000007
    106b:	01000007          	0x1000007
    106f:	6000                	flw	f8,0(x8)
	...

00001079 <.LLST57>:
    1079:	0508                	addi	x10,x2,640
    107b:	0000                	unimp
    107d:	05b0                	addi	x12,x2,712
    107f:	0000                	unimp
    1081:	0001                	nop
    1083:	d466                	sw	x25,40(x2)
    1085:	e0000007          	0xe0000007
    1089:	01000007          	0x1000007
    108d:	6600                	flw	f8,8(x12)
	...

00001097 <.LLST58>:
    1097:	0508                	addi	x10,x2,640
    1099:	0000                	unimp
    109b:	0548                	addi	x10,x2,644
    109d:	0000                	unimp
    109f:	0001                	nop
    10a1:	485e                	lw	x16,212(x2)
    10a3:	0005                	c.nop	1
    10a5:	c800                	sw	x8,16(x8)
    10a7:	0005                	c.nop	1
    10a9:	0500                	addi	x8,x2,640
    10ab:	8000                	0x8000
    10ad:	4000                	lw	x8,0(x8)
    10af:	9f25                	0x9f25
    10b1:	07d4                	addi	x13,x2,964
    10b3:	0000                	unimp
    10b5:	07d8                	addi	x14,x2,964
    10b7:	0000                	unimp
    10b9:	0005                	c.nop	1
    10bb:	0080                	addi	x8,x2,64
    10bd:	2540                	fld	f8,136(x10)
    10bf:	009f 0000 0000      	0x9f
    10c5:	0000                	unimp
	...

000010c8 <.LLST59>:
    10c8:	0508                	addi	x10,x2,640
    10ca:	0000                	unimp
    10cc:	05cc                	addi	x11,x2,708
    10ce:	0000                	unimp
    10d0:	0001                	nop
    10d2:	d46a                	sw	x26,40(x2)
    10d4:	e0000007          	0xe0000007
    10d8:	01000007          	0x1000007
    10dc:	6a00                	flw	f8,16(x12)
	...

000010e6 <.LLST60>:
    10e6:	0598                	addi	x14,x2,704
    10e8:	0000                	unimp
    10ea:	05b0                	addi	x12,x2,712
    10ec:	0000                	unimp
    10ee:	0001                	nop
    10f0:	d466                	sw	x25,40(x2)
    10f2:	d8000007          	0xd8000007
    10f6:	01000007          	0x1000007
    10fa:	6600                	flw	f8,8(x12)
	...

00001104 <.LLST61>:
    1104:	05b8                	addi	x14,x2,712
    1106:	0000                	unimp
    1108:	05c0                	addi	x8,x2,708
    110a:	0000                	unimp
    110c:	0001                	nop
    110e:	005e                	c.slli	x0,0x17
    1110:	0000                	unimp
    1112:	0000                	unimp
    1114:	0000                	unimp
	...

00001117 <.LLST62>:
    1117:	05ec                	addi	x11,x2,716
    1119:	0000                	unimp
    111b:	05f8                	addi	x14,x2,716
    111d:	0000                	unimp
    111f:	0001                	nop
    1121:	005c                	addi	x15,x2,4
    1123:	0000                	unimp
    1125:	0000                	unimp
    1127:	0000                	unimp
	...

0000112a <.LLST63>:
    112a:	0740                	addi	x8,x2,900
    112c:	0000                	unimp
    112e:	074c                	addi	x11,x2,900
    1130:	0000                	unimp
    1132:	0001                	nop
    1134:	005e                	c.slli	x0,0x17
    1136:	0000                	unimp
    1138:	0000                	unimp
    113a:	0000                	unimp
	...

0000113d <.LLST0>:
    113d:	0000                	unimp
    113f:	0000                	unimp
    1141:	0020                	addi	x8,x2,8
    1143:	0000                	unimp
    1145:	0006                	c.slli	x0,0x1
    1147:	935a                	add	x6,x6,x22
    1149:	5b04                	lw	x9,48(x14)
    114b:	00200493          	li	x9,2
    114f:	0000                	unimp
    1151:	00e4                	addi	x9,x2,76
    1153:	0000                	unimp
    1155:	0006                	c.slli	x0,0x1
    1157:	0af503f3          	0xaf503f3
    115b:	9f25                	0x9f25
	...

00001165 <.LLST1>:
    1165:	0000                	unimp
    1167:	0000                	unimp
    1169:	006c                	addi	x11,x2,12
    116b:	0000                	unimp
    116d:	0006                	c.slli	x0,0x1
    116f:	935c                	0x935c
    1171:	5d04                	lw	x9,56(x10)
    1173:	006c0493          	addi	x9,x24,6 # fffe9006 <seed1_volatile+0xfffa8946>
    1177:	0000                	unimp
    1179:	00d4                	addi	x13,x2,68
    117b:	0000                	unimp
    117d:	0006                	c.slli	x0,0x1
    117f:	0cf503f3          	0xcf503f3
    1183:	9f25                	0x9f25
    1185:	00d4                	addi	x13,x2,68
    1187:	0000                	unimp
    1189:	00e4                	addi	x9,x2,76
    118b:	0000                	unimp
    118d:	0006                	c.slli	x0,0x1
    118f:	935c                	0x935c
    1191:	5d04                	lw	x9,56(x10)
    1193:	00000493          	li	x9,0
    1197:	0000                	unimp
    1199:	0000                	unimp
	...

0000119d <.LLST2>:
    119d:	0020                	addi	x8,x2,8
    119f:	0000                	unimp
    11a1:	0048                	addi	x10,x2,4
    11a3:	0000                	unimp
    11a5:	0001                	nop
    11a7:	4c5a                	lw	x24,148(x2)
    11a9:	0000                	unimp
    11ab:	8400                	0x8400
    11ad:	0000                	unimp
    11af:	0100                	addi	x8,x2,128
    11b1:	5a00                	lw	x8,48(x12)
    11b3:	0088                	addi	x10,x2,64
    11b5:	0000                	unimp
    11b7:	008c                	addi	x11,x2,64
    11b9:	0000                	unimp
    11bb:	0001                	nop
    11bd:	985a                	add	x16,x16,x22
    11bf:	0000                	unimp
    11c1:	a000                	fsd	f8,0(x8)
    11c3:	0000                	unimp
    11c5:	0100                	addi	x8,x2,128
    11c7:	5a00                	lw	x8,48(x12)
    11c9:	00a4                	addi	x9,x2,72
    11cb:	0000                	unimp
    11cd:	00b8                	addi	x14,x2,72
    11cf:	0000                	unimp
    11d1:	0001                	nop
    11d3:	bc5a                	fsd	f22,56(x2)
    11d5:	0000                	unimp
    11d7:	c000                	sw	x8,0(x8)
    11d9:	0000                	unimp
    11db:	0100                	addi	x8,x2,128
    11dd:	5a00                	lw	x8,48(x12)
    11df:	00c4                	addi	x9,x2,68
    11e1:	0000                	unimp
    11e3:	00e4                	addi	x9,x2,76
    11e5:	0000                	unimp
    11e7:	0001                	nop
    11e9:	005a                	c.slli	x0,0x16
    11eb:	0000                	unimp
    11ed:	0000                	unimp
    11ef:	0000                	unimp
	...

000011f2 <.LLST3>:
    11f2:	0030                	addi	x12,x2,8
    11f4:	0000                	unimp
    11f6:	006c                	addi	x11,x2,12
    11f8:	0000                	unimp
    11fa:	0001                	nop
    11fc:	6c5c                	flw	f15,28(x8)
    11fe:	0000                	unimp
    1200:	d400                	sw	x8,40(x8)
    1202:	0000                	unimp
    1204:	0100                	addi	x8,x2,128
    1206:	6c00                	flw	f8,24(x8)
    1208:	00d4                	addi	x13,x2,68
    120a:	0000                	unimp
    120c:	00e4                	addi	x9,x2,76
    120e:	0000                	unimp
    1210:	0001                	nop
    1212:	005c                	addi	x15,x2,4
    1214:	0000                	unimp
    1216:	0000                	unimp
    1218:	0000                	unimp
	...

0000121b <.LLST4>:
    121b:	0064                	addi	x9,x2,12
    121d:	0000                	unimp
    121f:	0068                	addi	x10,x2,12
    1221:	0000                	unimp
    1223:	0001                	nop
    1225:	d85f 0000 e400      	0xe4000000d85f
    122b:	0000                	unimp
    122d:	0200                	addi	x8,x2,256
    122f:	3000                	fld	f8,32(x8)
    1231:	009f 0000 0000      	0x9f
    1237:	0000                	unimp
	...

0000123a <.LLST5>:
    123a:	0070                	addi	x12,x2,12
    123c:	0000                	unimp
    123e:	007c                	addi	x15,x2,12
    1240:	0000                	unimp
    1242:	0002                	c.slli64	x0
    1244:	9f30                	0x9f30
    1246:	0088                	addi	x10,x2,64
    1248:	0000                	unimp
    124a:	00b4                	addi	x13,x2,72
    124c:	0000                	unimp
    124e:	0002                	c.slli64	x0
    1250:	9f30                	0x9f30
    1252:	00c4                	addi	x9,x2,68
    1254:	0000                	unimp
    1256:	00cc                	addi	x11,x2,68
    1258:	0000                	unimp
    125a:	0002                	c.slli64	x0
    125c:	9f31                	0x9f31
    125e:	00cc                	addi	x11,x2,68
    1260:	0000                	unimp
    1262:	00d4                	addi	x13,x2,68
    1264:	0000                	unimp
    1266:	0002                	c.slli64	x0
    1268:	9f30                	0x9f30
	...

00001272 <.LLST0>:
    1272:	0000                	unimp
    1274:	0000                	unimp
    1276:	0020                	addi	x8,x2,8
    1278:	0000                	unimp
    127a:	0006                	c.slli	x0,0x1
    127c:	935a                	add	x6,x6,x22
    127e:	5b04                	lw	x9,48(x14)
    1280:	00200493          	li	x9,2
    1284:	0000                	unimp
    1286:	00e4                	addi	x9,x2,76
    1288:	0000                	unimp
    128a:	0006                	c.slli	x0,0x1
    128c:	0af503f3          	0xaf503f3
    1290:	9f25                	0x9f25
	...

0000129a <.LLST1>:
    129a:	0000                	unimp
    129c:	0000                	unimp
    129e:	006c                	addi	x11,x2,12
    12a0:	0000                	unimp
    12a2:	0006                	c.slli	x0,0x1
    12a4:	935c                	0x935c
    12a6:	5d04                	lw	x9,56(x10)
    12a8:	006c0493          	addi	x9,x24,6
    12ac:	0000                	unimp
    12ae:	00d4                	addi	x13,x2,68
    12b0:	0000                	unimp
    12b2:	0006                	c.slli	x0,0x1
    12b4:	0cf503f3          	0xcf503f3
    12b8:	9f25                	0x9f25
    12ba:	00d4                	addi	x13,x2,68
    12bc:	0000                	unimp
    12be:	00e4                	addi	x9,x2,76
    12c0:	0000                	unimp
    12c2:	0006                	c.slli	x0,0x1
    12c4:	935c                	0x935c
    12c6:	5d04                	lw	x9,56(x10)
    12c8:	00000493          	li	x9,0
    12cc:	0000                	unimp
    12ce:	0000                	unimp
	...

000012d2 <.LLST2>:
    12d2:	0020                	addi	x8,x2,8
    12d4:	0000                	unimp
    12d6:	0048                	addi	x10,x2,4
    12d8:	0000                	unimp
    12da:	0001                	nop
    12dc:	4c5a                	lw	x24,148(x2)
    12de:	0000                	unimp
    12e0:	8400                	0x8400
    12e2:	0000                	unimp
    12e4:	0100                	addi	x8,x2,128
    12e6:	5a00                	lw	x8,48(x12)
    12e8:	0088                	addi	x10,x2,64
    12ea:	0000                	unimp
    12ec:	008c                	addi	x11,x2,64
    12ee:	0000                	unimp
    12f0:	0001                	nop
    12f2:	985a                	add	x16,x16,x22
    12f4:	0000                	unimp
    12f6:	a000                	fsd	f8,0(x8)
    12f8:	0000                	unimp
    12fa:	0100                	addi	x8,x2,128
    12fc:	5a00                	lw	x8,48(x12)
    12fe:	00a4                	addi	x9,x2,72
    1300:	0000                	unimp
    1302:	00b8                	addi	x14,x2,72
    1304:	0000                	unimp
    1306:	0001                	nop
    1308:	bc5a                	fsd	f22,56(x2)
    130a:	0000                	unimp
    130c:	c000                	sw	x8,0(x8)
    130e:	0000                	unimp
    1310:	0100                	addi	x8,x2,128
    1312:	5a00                	lw	x8,48(x12)
    1314:	00c4                	addi	x9,x2,68
    1316:	0000                	unimp
    1318:	00e4                	addi	x9,x2,76
    131a:	0000                	unimp
    131c:	0001                	nop
    131e:	005a                	c.slli	x0,0x16
    1320:	0000                	unimp
    1322:	0000                	unimp
    1324:	0000                	unimp
	...

00001327 <.LLST3>:
    1327:	0030                	addi	x12,x2,8
    1329:	0000                	unimp
    132b:	006c                	addi	x11,x2,12
    132d:	0000                	unimp
    132f:	0001                	nop
    1331:	6c5c                	flw	f15,28(x8)
    1333:	0000                	unimp
    1335:	d400                	sw	x8,40(x8)
    1337:	0000                	unimp
    1339:	0100                	addi	x8,x2,128
    133b:	6c00                	flw	f8,24(x8)
    133d:	00d4                	addi	x13,x2,68
    133f:	0000                	unimp
    1341:	00e4                	addi	x9,x2,76
    1343:	0000                	unimp
    1345:	0001                	nop
    1347:	005c                	addi	x15,x2,4
    1349:	0000                	unimp
    134b:	0000                	unimp
    134d:	0000                	unimp
	...

00001350 <.LLST4>:
    1350:	0064                	addi	x9,x2,12
    1352:	0000                	unimp
    1354:	0068                	addi	x10,x2,12
    1356:	0000                	unimp
    1358:	0001                	nop
    135a:	d85f 0000 e400      	0xe4000000d85f
    1360:	0000                	unimp
    1362:	0200                	addi	x8,x2,256
    1364:	3000                	fld	f8,32(x8)
    1366:	009f 0000 0000      	0x9f
    136c:	0000                	unimp
	...

0000136f <.LLST5>:
    136f:	0070                	addi	x12,x2,12
    1371:	0000                	unimp
    1373:	007c                	addi	x15,x2,12
    1375:	0000                	unimp
    1377:	0002                	c.slli64	x0
    1379:	9f30                	0x9f30
    137b:	0088                	addi	x10,x2,64
    137d:	0000                	unimp
    137f:	00b4                	addi	x13,x2,72
    1381:	0000                	unimp
    1383:	0002                	c.slli64	x0
    1385:	9f30                	0x9f30
    1387:	00c4                	addi	x9,x2,68
    1389:	0000                	unimp
    138b:	00cc                	addi	x11,x2,68
    138d:	0000                	unimp
    138f:	0002                	c.slli64	x0
    1391:	9f31                	0x9f31
    1393:	00cc                	addi	x11,x2,68
    1395:	0000                	unimp
    1397:	00d4                	addi	x13,x2,68
    1399:	0000                	unimp
    139b:	0002                	c.slli64	x0
    139d:	9f30                	0x9f30
	...

000013a7 <.LLST0>:
    13a7:	0000                	unimp
    13a9:	0000                	unimp
    13ab:	0030                	addi	x12,x2,8
    13ad:	0000                	unimp
    13af:	0006                	c.slli	x0,0x1
    13b1:	935a                	add	x6,x6,x22
    13b3:	5b04                	lw	x9,48(x14)
    13b5:	00300493          	li	x9,3
    13b9:	0000                	unimp
    13bb:	0074                	addi	x13,x2,12
    13bd:	0000                	unimp
    13bf:	0006                	c.slli	x0,0x1
    13c1:	0af503f3          	0xaf503f3
    13c5:	9f25                	0x9f25
    13c7:	0074                	addi	x13,x2,12
    13c9:	0000                	unimp
    13cb:	0078                	addi	x14,x2,12
    13cd:	0000                	unimp
    13cf:	0006                	c.slli	x0,0x1
    13d1:	935a                	add	x6,x6,x22
    13d3:	5b04                	lw	x9,48(x14)
    13d5:	00780493          	addi	x9,x16,7 # ffff7007 <seed1_volatile+0xfffb6947>
    13d9:	0000                	unimp
    13db:	007c                	addi	x15,x2,12
    13dd:	0000                	unimp
    13df:	0006                	c.slli	x0,0x1
    13e1:	0af503f3          	0xaf503f3
    13e5:	9f25                	0x9f25
	...

000013ef <.LLST1>:
    13ef:	001c                	0x1c
    13f1:	0000                	unimp
    13f3:	0054                	addi	x13,x2,4
    13f5:	0000                	unimp
    13f7:	0001                	nop
    13f9:	545e                	lw	x8,244(x2)
    13fb:	0000                	unimp
    13fd:	6400                	flw	f8,8(x8)
    13ff:	0000                	unimp
    1401:	0400                	addi	x8,x2,512
    1403:	7e00                	flw	f8,56(x12)
    1405:	649f0893          	addi	x17,x30,1609
    1409:	0000                	unimp
    140b:	7c00                	flw	f8,56(x8)
    140d:	0000                	unimp
    140f:	0100                	addi	x8,x2,128
    1411:	5e00                	lw	x8,56(x12)
	...

0000141b <.LLST2>:
    141b:	0060                	addi	x8,x2,12
    141d:	0000                	unimp
    141f:	0064                	addi	x9,x2,12
    1421:	0000                	unimp
    1423:	0001                	nop
    1425:	705a                	flw	f0,180(x2)
    1427:	0000                	unimp
    1429:	7400                	flw	f8,40(x8)
    142b:	0000                	unimp
    142d:	0100                	addi	x8,x2,128
    142f:	5a00                	lw	x8,48(x12)
	...

00001439 <.LLST3>:
    1439:	001c                	0x1c
    143b:	0000                	unimp
    143d:	0058                	addi	x14,x2,4
    143f:	0000                	unimp
    1441:	0001                	nop
    1443:	605f 0000 6400      	0x64000000605f
    1449:	0000                	unimp
    144b:	0200                	addi	x8,x2,256
    144d:	3000                	fld	f8,32(x8)
    144f:	649f 0000 7000      	0x70000000649f
    1455:	0000                	unimp
    1457:	0100                	addi	x8,x2,128
    1459:	5f00                	lw	x8,56(x14)
    145b:	0070                	addi	x12,x2,12
    145d:	0000                	unimp
    145f:	0074                	addi	x13,x2,12
    1461:	0000                	unimp
    1463:	0002                	c.slli64	x0
    1465:	9f30                	0x9f30
    1467:	0074                	addi	x13,x2,12
    1469:	0000                	unimp
    146b:	007c                	addi	x15,x2,12
    146d:	0000                	unimp
    146f:	0001                	nop
    1471:	005f 0000 0000      	0x5f
    1477:	0000                	unimp
	...

0000147a <.LLST4>:
    147a:	003c                	addi	x15,x2,8
    147c:	0000                	unimp
    147e:	0050                	addi	x12,x2,4
    1480:	0000                	unimp
    1482:	0002                	c.slli64	x0
    1484:	9f30                	0x9f30
	...

0000148e <.LLST0>:
    148e:	0000                	unimp
    1490:	0000                	unimp
    1492:	00000017          	auipc	x0,0x0
    1496:	0001                	nop
    1498:	175a                	slli	x14,x14,0x36
    149a:	0000                	unimp
    149c:	3c00                	fld	f8,56(x8)
    149e:	0000                	unimp
    14a0:	0100                	addi	x8,x2,128
    14a2:	5800                	lw	x8,48(x8)
    14a4:	003c                	addi	x15,x2,8
    14a6:	0000                	unimp
    14a8:	0064                	addi	x9,x2,12
    14aa:	0000                	unimp
    14ac:	0004                	0x4
    14ae:	9f5a01f3          	0x9f5a01f3
    14b2:	0064                	addi	x9,x2,12
    14b4:	0000                	unimp
    14b6:	0070                	addi	x12,x2,12
    14b8:	0000                	unimp
    14ba:	0001                	nop
    14bc:	7058                	flw	f14,36(x8)
    14be:	0000                	unimp
    14c0:	7400                	flw	f8,40(x8)
    14c2:	0000                	unimp
    14c4:	0400                	addi	x8,x2,512
    14c6:	f300                	fsw	f8,32(x14)
    14c8:	5a01                	li	x20,-32
    14ca:	749f 0000 8000      	0x80000000749f
    14d0:	0000                	unimp
    14d2:	0100                	addi	x8,x2,128
    14d4:	5800                	lw	x8,48(x8)
	...

000014de <.LLST1>:
    14de:	0014                	0x14
    14e0:	0000                	unimp
    14e2:	0074                	addi	x13,x2,12
    14e4:	0000                	unimp
    14e6:	0002                	c.slli64	x0
    14e8:	9f30                	0x9f30
	...

000014f2 <.LLST2>:
    14f2:	0024                	addi	x9,x2,8
    14f4:	0000                	unimp
    14f6:	0050                	addi	x12,x2,4
    14f8:	0000                	unimp
    14fa:	0001                	nop
    14fc:	645e                	flw	f8,212(x2)
    14fe:	0000                	unimp
    1500:	7400                	flw	f8,40(x8)
    1502:	0000                	unimp
    1504:	0100                	addi	x8,x2,128
    1506:	5e00                	lw	x8,56(x12)
	...

00001510 <.LLST3>:
    1510:	0024                	addi	x9,x2,8
    1512:	0000                	unimp
    1514:	004c                	addi	x11,x2,4
    1516:	0000                	unimp
    1518:	0001                	nop
    151a:	4c58                	lw	x14,28(x8)
    151c:	0000                	unimp
    151e:	6400                	flw	f8,8(x8)
    1520:	0000                	unimp
    1522:	0100                	addi	x8,x2,128
    1524:	5a00                	lw	x8,48(x12)
    1526:	0064                	addi	x9,x2,12
    1528:	0000                	unimp
    152a:	006c                	addi	x11,x2,12
    152c:	0000                	unimp
    152e:	0001                	nop
    1530:	6c58                	flw	f14,28(x8)
    1532:	0000                	unimp
    1534:	7400                	flw	f8,40(x8)
    1536:	0000                	unimp
    1538:	0200                	addi	x8,x2,256
    153a:	3000                	fld	f8,32(x8)
    153c:	009f 0000 0000      	0x9f
    1542:	0000                	unimp
	...

00001545 <.LLST4>:
    1545:	0024                	addi	x9,x2,8
    1547:	0000                	unimp
    1549:	0038                	addi	x14,x2,8
    154b:	0000                	unimp
    154d:	0002                	c.slli64	x0
    154f:	9f30                	0x9f30
    1551:	0038                	addi	x14,x2,8
    1553:	0000                	unimp
    1555:	0048                	addi	x10,x2,4
    1557:	0000                	unimp
    1559:	0001                	nop
    155b:	645f 0000 6c00      	0x6c000000645f
    1561:	0000                	unimp
    1563:	0200                	addi	x8,x2,256
    1565:	3000                	fld	f8,32(x8)
    1567:	6c9f 0000 7400      	0x740000006c9f
    156d:	0000                	unimp
    156f:	0100                	addi	x8,x2,128
    1571:	5f00                	lw	x8,56(x14)
	...

0000157b <.LLST5>:
    157b:	0014                	0x14
    157d:	0000                	unimp
    157f:	00000017          	auipc	x0,0x0
    1583:	0001                	nop
    1585:	175a                	slli	x14,x14,0x36
    1587:	0000                	unimp
    1589:	3c00                	fld	f8,56(x8)
    158b:	0000                	unimp
    158d:	0100                	addi	x8,x2,128
    158f:	5800                	lw	x8,48(x8)
    1591:	0064                	addi	x9,x2,12
    1593:	0000                	unimp
    1595:	0070                	addi	x12,x2,12
    1597:	0000                	unimp
    1599:	0001                	nop
    159b:	7058                	flw	f14,36(x8)
    159d:	0000                	unimp
    159f:	7400                	flw	f8,40(x8)
    15a1:	0000                	unimp
    15a3:	0400                	addi	x8,x2,512
    15a5:	f300                	fsw	f8,32(x14)
    15a7:	5a01                	li	x20,-32
    15a9:	009f 0000 0000      	0x9f
    15af:	0000                	unimp
	...

000015b2 <.LLST6>:
    15b2:	0018                	0x18
    15b4:	0000                	unimp
    15b6:	0034                	addi	x13,x2,8
    15b8:	0000                	unimp
    15ba:	0001                	nop
    15bc:	345a                	fld	f8,432(x2)
    15be:	0000                	unimp
    15c0:	3c00                	fld	f8,56(x8)
    15c2:	0000                	unimp
    15c4:	0300                	addi	x8,x2,384
    15c6:	7a00                	flw	f8,48(x12)
    15c8:	00649f6b          	0x649f6b
    15cc:	0000                	unimp
    15ce:	0074                	addi	x13,x2,12
    15d0:	0000                	unimp
    15d2:	0001                	nop
    15d4:	005a                	c.slli	x0,0x16
    15d6:	0000                	unimp
    15d8:	0000                	unimp
    15da:	0000                	unimp
	...

000015dd <.LLST0>:
    15dd:	0000                	unimp
    15df:	0000                	unimp
    15e1:	0024                	addi	x9,x2,8
    15e3:	0000                	unimp
    15e5:	0001                	nop
    15e7:	245a                	fld	f8,400(x2)
    15e9:	0000                	unimp
    15eb:	3800                	fld	f8,48(x8)
    15ed:	0000                	unimp
    15ef:	0400                	addi	x8,x2,512
    15f1:	f300                	fsw	f8,32(x14)
    15f3:	5a01                	li	x20,-32
    15f5:	389f 0000 4c00      	0x4c000000389f
    15fb:	0000                	unimp
    15fd:	0100                	addi	x8,x2,128
    15ff:	5a00                	lw	x8,48(x12)
	...

00001609 <.LLST1>:
    1609:	0000                	unimp
    160b:	0000                	unimp
    160d:	0024                	addi	x9,x2,8
    160f:	0000                	unimp
    1611:	0001                	nop
    1613:	245a                	fld	f8,400(x2)
    1615:	0000                	unimp
    1617:	3800                	fld	f8,48(x8)
    1619:	0000                	unimp
    161b:	0400                	addi	x8,x2,512
    161d:	f300                	fsw	f8,32(x14)
    161f:	5a01                	li	x20,-32
    1621:	389f 0000 4c00      	0x4c000000389f
    1627:	0000                	unimp
    1629:	0100                	addi	x8,x2,128
    162b:	5a00                	lw	x8,48(x12)
	...

00001635 <.LLST2>:
    1635:	0014                	0x14
    1637:	0000                	unimp
    1639:	0028                	addi	x10,x2,8
    163b:	0000                	unimp
    163d:	0001                	nop
    163f:	005f 0000 0000      	0x5f
    1645:	0000                	unimp
	...

Disassembly of section .debug_aranges:

00000000 <.debug_aranges>:
   0:	001c                	0x1c
   2:	0000                	unimp
   4:	0002                	c.slli64	x0
   6:	0000                	unimp
   8:	0000                	unimp
   a:	0004                	0x4
   c:	0000                	unimp
   e:	0000                	unimp
  10:	35b4                	fld	f13,104(x11)
  12:	0000                	unimp
  14:	07e0                	addi	x8,x2,972
	...
  1e:	0000                	unimp
  20:	001c                	0x1c
  22:	0000                	unimp
  24:	0002                	c.slli64	x0
  26:	08f5                	addi	x17,x17,29
  28:	0000                	unimp
  2a:	0004                	0x4
  2c:	0000                	unimp
  2e:	0000                	unimp
  30:	3d94                	fld	f13,56(x11)
  32:	0000                	unimp
  34:	00e4                	addi	x9,x2,76
	...
  3e:	0000                	unimp
  40:	001c                	0x1c
  42:	0000                	unimp
  44:	0002                	c.slli64	x0
  46:	0b48                	addi	x10,x2,404
  48:	0000                	unimp
  4a:	0004                	0x4
  4c:	0000                	unimp
  4e:	0000                	unimp
  50:	3e78                	fld	f14,248(x12)
  52:	0000                	unimp
  54:	00e4                	addi	x9,x2,76
	...
  5e:	0000                	unimp
  60:	001c                	0x1c
  62:	0000                	unimp
  64:	0002                	c.slli64	x0
  66:	00000d9b          	0xd9b
  6a:	0004                	0x4
  6c:	0000                	unimp
  6e:	0000                	unimp
  70:	3f5c                	fld	f15,184(x14)
  72:	0000                	unimp
  74:	007c                	addi	x15,x2,12
	...
  7e:	0000                	unimp
  80:	001c                	0x1c
  82:	0000                	unimp
  84:	0002                	c.slli64	x0
  86:	0f70                	addi	x12,x2,924
  88:	0000                	unimp
  8a:	0004                	0x4
  8c:	0000                	unimp
  8e:	0000                	unimp
  90:	3fd8                	fld	f14,184(x15)
  92:	0000                	unimp
  94:	0080                	addi	x8,x2,64
	...
  9e:	0000                	unimp
  a0:	001c                	0x1c
  a2:	0000                	unimp
  a4:	0002                	c.slli64	x0
  a6:	11fe                	slli	x3,x3,0x3f
  a8:	0000                	unimp
  aa:	0004                	0x4
  ac:	0000                	unimp
  ae:	0000                	unimp
  b0:	4058                	lw	x14,4(x8)
  b2:	0000                	unimp
  b4:	0024                	addi	x9,x2,8
	...
  be:	0000                	unimp
  c0:	001c                	0x1c
  c2:	0000                	unimp
  c4:	0002                	c.slli64	x0
  c6:	1224                	addi	x9,x2,296
  c8:	0000                	unimp
  ca:	0004                	0x4
  cc:	0000                	unimp
  ce:	0000                	unimp
  d0:	407c                	lw	x15,68(x8)
  d2:	0000                	unimp
  d4:	00b4                	addi	x13,x2,72
	...
  de:	0000                	unimp
  e0:	001c                	0x1c
  e2:	0000                	unimp
  e4:	0002                	c.slli64	x0
  e6:	124a                	slli	x4,x4,0x32
  e8:	0000                	unimp
  ea:	0004                	0x4
  ec:	0000                	unimp
  ee:	0000                	unimp
  f0:	4130                	lw	x12,64(x10)
  f2:	0000                	unimp
  f4:	004c                	addi	x11,x2,4
	...
  fe:	0000                	unimp
 100:	0014                	0x14
 102:	0000                	unimp
 104:	0002                	c.slli64	x0
 106:	138e                	slli	x7,x7,0x23
 108:	0000                	unimp
 10a:	0004                	0x4
	...

Disassembly of section .debug_ranges:

00000000 <.Ldebug_ranges0>:
	...
   8:	0008                	0x8
   a:	0000                	unimp
   c:	000c                	0xc
   e:	0000                	unimp
  10:	0020                	addi	x8,x2,8
  12:	0000                	unimp
  14:	0024                	addi	x9,x2,8
  16:	0000                	unimp
  18:	0040                	addi	x8,x2,4
  1a:	0000                	unimp
  1c:	0044                	addi	x9,x2,4
  1e:	0000                	unimp
  20:	0050                	addi	x12,x2,4
  22:	0000                	unimp
  24:	0058                	addi	x14,x2,4
  26:	0000                	unimp
  28:	0168                	addi	x10,x2,140
  2a:	0000                	unimp
  2c:	016c                	addi	x11,x2,140
  2e:	0000                	unimp
  30:	069c                	addi	x15,x2,832
  32:	0000                	unimp
  34:	06a0                	addi	x8,x2,840
	...
  3e:	0000                	unimp
  40:	0080                	addi	x8,x2,64
  42:	0000                	unimp
  44:	0084                	addi	x9,x2,64
  46:	0000                	unimp
  48:	0100                	addi	x8,x2,128
  4a:	0000                	unimp
  4c:	015c                	addi	x15,x2,132
	...
  56:	0000                	unimp
  58:	0084                	addi	x9,x2,64
  5a:	0000                	unimp
  5c:	0098                	addi	x14,x2,64
  5e:	0000                	unimp
  60:	06d4                	addi	x13,x2,836
  62:	0000                	unimp
  64:	06d8                	addi	x14,x2,836
	...
  6e:	0000                	unimp
  70:	00c0                	addi	x8,x2,68
  72:	0000                	unimp
  74:	00c4                	addi	x9,x2,68
  76:	0000                	unimp
  78:	01a0                	addi	x8,x2,200
  7a:	0000                	unimp
  7c:	0200                	addi	x8,x2,256
	...
  86:	0000                	unimp
  88:	0238                	addi	x14,x2,264
  8a:	0000                	unimp
  8c:	05cc                	addi	x11,x2,708
  8e:	0000                	unimp
  90:	0690                	addi	x12,x2,832
  92:	0000                	unimp
  94:	069c                	addi	x15,x2,832
  96:	0000                	unimp
  98:	07d4                	addi	x13,x2,964
  9a:	0000                	unimp
  9c:	07e0                	addi	x8,x2,972
	...
  a6:	0000                	unimp
  a8:	0264                	addi	x9,x2,268
  aa:	0000                	unimp
  ac:	0274                	addi	x13,x2,268
  ae:	0000                	unimp
  b0:	0278                	addi	x14,x2,268
  b2:	0000                	unimp
  b4:	033c                	addi	x15,x2,392
  b6:	0000                	unimp
  b8:	03c8                	addi	x10,x2,452
  ba:	0000                	unimp
  bc:	03cc                	addi	x11,x2,452
	...
  c6:	0000                	unimp
  c8:	0380                	addi	x8,x2,448
  ca:	0000                	unimp
  cc:	038c                	addi	x11,x2,448
  ce:	0000                	unimp
  d0:	0398                	addi	x14,x2,448
  d2:	0000                	unimp
  d4:	039c                	addi	x15,x2,448
	...
  de:	0000                	unimp
  e0:	03d4                	addi	x13,x2,452
  e2:	0000                	unimp
  e4:	03e4                	addi	x9,x2,460
  e6:	0000                	unimp
  e8:	03e8                	addi	x10,x2,460
  ea:	0000                	unimp
  ec:	03e8                	addi	x10,x2,460
	...
  f6:	0000                	unimp
  f8:	0400                	addi	x8,x2,512
  fa:	0000                	unimp
  fc:	040c                	addi	x11,x2,512
  fe:	0000                	unimp
 100:	0410                	addi	x12,x2,512
 102:	0000                	unimp
 104:	0414                	addi	x13,x2,512
	...
 10e:	0000                	unimp
 110:	042c                	addi	x11,x2,520
 112:	0000                	unimp
 114:	0504                	addi	x9,x2,640
 116:	0000                	unimp
 118:	0588                	addi	x10,x2,704
 11a:	0000                	unimp
 11c:	058c                	addi	x11,x2,704
	...
 126:	0000                	unimp
 128:	0538                	addi	x14,x2,648
 12a:	0000                	unimp
 12c:	0544                	addi	x9,x2,644
 12e:	0000                	unimp
 130:	0550                	addi	x12,x2,644
 132:	0000                	unimp
 134:	0554                	addi	x13,x2,644
	...
 13e:	0000                	unimp
 140:	0590                	addi	x12,x2,704
 142:	0000                	unimp
 144:	0594                	addi	x13,x2,704
 146:	0000                	unimp
 148:	0598                	addi	x14,x2,704
 14a:	0000                	unimp
 14c:	0598                	addi	x14,x2,704
	...
 156:	0000                	unimp
 158:	05a8                	addi	x10,x2,712
 15a:	0000                	unimp
 15c:	05b4                	addi	x13,x2,712
 15e:	0000                	unimp
 160:	05b8                	addi	x14,x2,712
 162:	0000                	unimp
 164:	05c0                	addi	x8,x2,708
 166:	0000                	unimp
 168:	07d8                	addi	x14,x2,964
 16a:	0000                	unimp
 16c:	07e0                	addi	x8,x2,972
	...
 176:	0000                	unimp
 178:	062c                	addi	x11,x2,776
 17a:	0000                	unimp
 17c:	0638                	addi	x14,x2,776
 17e:	0000                	unimp
 180:	0640                	addi	x8,x2,772
 182:	0000                	unimp
 184:	0654                	addi	x13,x2,772
	...
 18e:	0000                	unimp
 190:	06f0                	addi	x12,x2,844
 192:	0000                	unimp
 194:	07a4                	addi	x9,x2,968
 196:	0000                	unimp
 198:	07b8                	addi	x14,x2,968
 19a:	0000                	unimp
 19c:	07d4                	addi	x13,x2,964
	...

000001a8 <.Ldebug_ranges0>:
 1a8:	0000                	unimp
 1aa:	0000                	unimp
 1ac:	0010                	0x10
 1ae:	0000                	unimp
 1b0:	0018                	0x18
 1b2:	0000                	unimp
 1b4:	0020                	addi	x8,x2,8
	...
 1be:	0000                	unimp
 1c0:	0020                	addi	x8,x2,8
 1c2:	0000                	unimp
 1c4:	0020                	addi	x8,x2,8
 1c6:	0000                	unimp
 1c8:	0024                	addi	x9,x2,8
 1ca:	0000                	unimp
 1cc:	0038                	addi	x14,x2,8
	...
 1d6:	0000                	unimp
 1d8:	0058                	addi	x14,x2,4
 1da:	0000                	unimp
 1dc:	00a0                	addi	x8,x2,72
 1de:	0000                	unimp
 1e0:	00a4                	addi	x9,x2,72
 1e2:	0000                	unimp
 1e4:	00d4                	addi	x13,x2,68
 1e6:	0000                	unimp
 1e8:	00d8                	addi	x14,x2,68
 1ea:	0000                	unimp
 1ec:	00e4                	addi	x9,x2,76
	...

000001f8 <.Ldebug_ranges0>:
 1f8:	0000                	unimp
 1fa:	0000                	unimp
 1fc:	0010                	0x10
 1fe:	0000                	unimp
 200:	0018                	0x18
 202:	0000                	unimp
 204:	0020                	addi	x8,x2,8
	...
 20e:	0000                	unimp
 210:	0020                	addi	x8,x2,8
 212:	0000                	unimp
 214:	0020                	addi	x8,x2,8
 216:	0000                	unimp
 218:	0024                	addi	x9,x2,8
 21a:	0000                	unimp
 21c:	0038                	addi	x14,x2,8
	...
 226:	0000                	unimp
 228:	0058                	addi	x14,x2,4
 22a:	0000                	unimp
 22c:	00a0                	addi	x8,x2,72
 22e:	0000                	unimp
 230:	00a4                	addi	x9,x2,72
 232:	0000                	unimp
 234:	00d4                	addi	x13,x2,68
 236:	0000                	unimp
 238:	00d8                	addi	x14,x2,68
 23a:	0000                	unimp
 23c:	00e4                	addi	x9,x2,76
	...

00000248 <.Ldebug_ranges0>:
 248:	0000                	unimp
 24a:	0000                	unimp
 24c:	0010                	0x10
 24e:	0000                	unimp
 250:	0014                	0x14
 252:	0000                	unimp
 254:	0018                	0x18
 256:	0000                	unimp
 258:	001c                	0x1c
 25a:	0000                	unimp
 25c:	0020                	addi	x8,x2,8
	...

00000268 <.Ldebug_ranges0>:
	...
 270:	0010                	0x10
 272:	0000                	unimp
 274:	003c                	addi	x15,x2,8
 276:	0000                	unimp
 278:	0064                	addi	x9,x2,12
 27a:	0000                	unimp
 27c:	0080                	addi	x8,x2,64
	...
 286:	0000                	unimp
 288:	0014                	0x14
 28a:	0000                	unimp
 28c:	003c                	addi	x15,x2,8
 28e:	0000                	unimp
 290:	0064                	addi	x9,x2,12
 292:	0000                	unimp
 294:	0074                	addi	x13,x2,12
	...
 29e:	0000                	unimp
 2a0:	0014                	0x14
 2a2:	0000                	unimp
 2a4:	001c                	0x1c
 2a6:	0000                	unimp
 2a8:	0020                	addi	x8,x2,8
 2aa:	0000                	unimp
 2ac:	0024                	addi	x9,x2,8
	...
 2b6:	0000                	unimp
 2b8:	003c                	addi	x15,x2,8
 2ba:	0000                	unimp
 2bc:	003c                	addi	x15,x2,8
 2be:	0000                	unimp
 2c0:	0044                	addi	x9,x2,4
 2c2:	0000                	unimp
 2c4:	0048                	addi	x10,x2,4
 2c6:	0000                	unimp
 2c8:	004c                	addi	x11,x2,4
 2ca:	0000                	unimp
 2cc:	0058                	addi	x14,x2,4
	...

000002d8 <.Ldebug_ranges0>:
 2d8:	0000                	unimp
 2da:	0000                	unimp
 2dc:	0014                	0x14
 2de:	0000                	unimp
 2e0:	0014                	0x14
 2e2:	0000                	unimp
 2e4:	0030                	addi	x12,x2,8
 2e6:	0000                	unimp
 2e8:	0038                	addi	x14,x2,8
 2ea:	0000                	unimp
 2ec:	004c                	addi	x11,x2,4
	...

Disassembly of section .debug_line:

00000000 <.Ldebug_line0>:
       0:	10a1                	addi	x1,x1,-24
       2:	0000                	unimp
       4:	005d0003          	lb	x0,5(x26)
       8:	0000                	unimp
       a:	0101                	addi	x2,x2,0
       c:	000d0efb          	0xd0efb
      10:	0101                	addi	x2,x2,0
      12:	0101                	addi	x2,x2,0
      14:	0000                	unimp
      16:	0100                	addi	x8,x2,128
      18:	0000                	unimp
      1a:	2e01                	jal	32a <.LASF16+0x9>
      1c:	2f2e                	fld	f30,200(x2)
      1e:	2e2e                	fld	f28,200(x2)
      20:	2f2e2e2f          	0x2f2e2e2f
      24:	2e2e                	fld	f28,200(x2)
      26:	7369722f          	0x7369722f
      2a:	672d7663          	bgeu	x26,x18,696 <.LASF2+0x3>
      2e:	6c2f6363          	bltu	x30,x2,6f4 <.L126+0xc>
      32:	6269                	lui	x4,0x1a
      34:	2f636367          	0x2f636367
      38:	74666f73          	csrrsi	x30,0x746,12
      3c:	662d                	lui	x12,0xb
      3e:	0070                	addi	x12,x2,12
      40:	6400                	flw	f8,8(x8)
      42:	7669                	lui	x12,0xffffa
      44:	6664                	flw	f9,76(x12)
      46:	00632e33          	slt	x28,x6,x6
      4a:	0001                	nop
      4c:	7300                	flw	f8,32(x14)
      4e:	2d74666f          	jal	x12,46b24 <seed1_volatile+0x6464>
      52:	7066                	flw	f0,120(x2)
      54:	682e                	flw	f16,200(x2)
      56:	0100                	addi	x8,x2,128
      58:	0000                	unimp
      5a:	6f64                	flw	f9,92(x14)
      5c:	6275                	lui	x4,0x1d
      5e:	656c                	flw	f11,76(x10)
      60:	682e                	flw	f16,200(x2)
      62:	0100                	addi	x8,x2,128
      64:	0000                	unimp
      66:	0500                	addi	x8,x2,640
      68:	0001                	nop
      6a:	0205                	addi	x4,x4,1
      6c:	35b4                	fld	f13,104(x11)
      6e:	0000                	unimp
      70:	05012303          	lw	x6,80(x2)
      74:	09010303          	lb	x6,144(x2)
      78:	0000                	unimp
      7a:	0301                	addi	x6,x6,0
      7c:	0900                	addi	x8,x2,144
      7e:	0000                	unimp
      80:	0501                	addi	x10,x10,0
      82:	030d                	addi	x6,x6,3
      84:	0900                	addi	x8,x2,144
      86:	0000                	unimp
      88:	0501                	addi	x10,x10,0
      8a:	09010303          	lb	x6,144(x2)
      8e:	0000                	unimp
      90:	0301                	addi	x6,x6,0
      92:	0900                	addi	x8,x2,144
      94:	0000                	unimp
      96:	0301                	addi	x6,x6,0
      98:	0900                	addi	x8,x2,144
      9a:	0000                	unimp
      9c:	0301                	addi	x6,x6,0
      9e:	0900                	addi	x8,x2,144
      a0:	0000                	unimp
      a2:	0301                	addi	x6,x6,0
      a4:	0901                	addi	x18,x18,0
      a6:	0000                	unimp
      a8:	0301                	addi	x6,x6,0
      aa:	0900                	addi	x8,x2,144
      ac:	0000                	unimp
      ae:	0301                	addi	x6,x6,0
      b0:	0900                	addi	x8,x2,144
      b2:	0000                	unimp
      b4:	0301                	addi	x6,x6,0
      b6:	0900                	addi	x8,x2,144
      b8:	0000                	unimp
      ba:	0301                	addi	x6,x6,0
      bc:	0901                	addi	x18,x18,0
      be:	0000                	unimp
      c0:	0301                	addi	x6,x6,0
      c2:	0900                	addi	x8,x2,144
      c4:	0000                	unimp
      c6:	0301                	addi	x6,x6,0
      c8:	0900                	addi	x8,x2,144
      ca:	0000                	unimp
      cc:	0301                	addi	x6,x6,0
      ce:	0900                	addi	x8,x2,144
      d0:	0000                	unimp
      d2:	0301                	addi	x6,x6,0
      d4:	0901                	addi	x18,x18,0
      d6:	0000                	unimp
      d8:	0301                	addi	x6,x6,0
      da:	0902                	c.slli64	x18
      dc:	0000                	unimp
      de:	0301                	addi	x6,x6,0
      e0:	0901                	addi	x18,x18,0
      e2:	0000                	unimp
      e4:	0301                	addi	x6,x6,0
      e6:	0900                	addi	x8,x2,144
      e8:	0000                	unimp
      ea:	0301                	addi	x6,x6,0
      ec:	0900                	addi	x8,x2,144
      ee:	0000                	unimp
      f0:	0301                	addi	x6,x6,0
      f2:	0900                	addi	x8,x2,144
      f4:	0000                	unimp
      f6:	0301                	addi	x6,x6,0
      f8:	0900                	addi	x8,x2,144
      fa:	0000                	unimp
      fc:	0301                	addi	x6,x6,0
      fe:	0900                	addi	x8,x2,144
     100:	0000                	unimp
     102:	0501                	addi	x10,x10,0
     104:	0601                	addi	x12,x12,0
     106:	00097803          	0x97803
     10a:	0100                	addi	x8,x2,128
     10c:	0305                	addi	x6,x6,1
     10e:	08090803          	lb	x16,128(x18) # 3080 <matrix_mul_const+0x8>
     112:	0100                	addi	x8,x2,128
     114:	0105                	addi	x2,x2,1
     116:	04097803          	0x4097803
     11a:	0100                	addi	x8,x2,128
     11c:	0305                	addi	x6,x6,1
     11e:	14090803          	lb	x16,320(x18)
     122:	0100                	addi	x8,x2,128
     124:	0105                	addi	x2,x2,1
     126:	04097803          	0x4097803
     12a:	0100                	addi	x8,x2,128
     12c:	0305                	addi	x6,x6,1
     12e:	1c090803          	lb	x16,448(x18)
     132:	0100                	addi	x8,x2,128
     134:	0105                	addi	x2,x2,1
     136:	04097803          	0x4097803
     13a:	0100                	addi	x8,x2,128
     13c:	0305                	addi	x6,x6,1
     13e:	0c090803          	lb	x16,192(x18)
     142:	0100                	addi	x8,x2,128
     144:	0306                	slli	x6,x6,0x1
     146:	0900                	addi	x8,x2,144
     148:	0004                	0x4
     14a:	0301                	addi	x6,x6,0
     14c:	0900                	addi	x8,x2,144
     14e:	0000                	unimp
     150:	0301                	addi	x6,x6,0
     152:	0900                	addi	x8,x2,144
     154:	0004                	0x4
     156:	0301                	addi	x6,x6,0
     158:	0900                	addi	x8,x2,144
     15a:	0000                	unimp
     15c:	0301                	addi	x6,x6,0
     15e:	0900                	addi	x8,x2,144
     160:	0000                	unimp
     162:	0001                	nop
     164:	0402                	c.slli64	x8
     166:	0301                	addi	x6,x6,0
     168:	0900                	addi	x8,x2,144
     16a:	000c                	0xc
     16c:	0001                	nop
     16e:	0402                	c.slli64	x8
     170:	0301                	addi	x6,x6,0
     172:	0900                	addi	x8,x2,144
     174:	0000                	unimp
     176:	0001                	nop
     178:	0402                	c.slli64	x8
     17a:	0301                	addi	x6,x6,0
     17c:	0900                	addi	x8,x2,144
     17e:	0000                	unimp
     180:	0001                	nop
     182:	0402                	c.slli64	x8
     184:	0301                	addi	x6,x6,0
     186:	0900                	addi	x8,x2,144
     188:	0000                	unimp
     18a:	0001                	nop
     18c:	0402                	c.slli64	x8
     18e:	0301                	addi	x6,x6,0
     190:	0900                	addi	x8,x2,144
     192:	0014                	0x14
     194:	0001                	nop
     196:	0402                	c.slli64	x8
     198:	0301                	addi	x6,x6,0
     19a:	0900                	addi	x8,x2,144
     19c:	0004                	0x4
     19e:	0001                	nop
     1a0:	0402                	c.slli64	x8
     1a2:	0301                	addi	x6,x6,0
     1a4:	0900                	addi	x8,x2,144
     1a6:	0000                	unimp
     1a8:	0001                	nop
     1aa:	0402                	c.slli64	x8
     1ac:	0301                	addi	x6,x6,0
     1ae:	0900                	addi	x8,x2,144
     1b0:	0004                	0x4
     1b2:	0001                	nop
     1b4:	0402                	c.slli64	x8
     1b6:	0301                	addi	x6,x6,0
     1b8:	0900                	addi	x8,x2,144
     1ba:	0000                	unimp
     1bc:	0001                	nop
     1be:	0402                	c.slli64	x8
     1c0:	0329                	addi	x6,x6,10
     1c2:	0900                	addi	x8,x2,144
     1c4:	0000                	unimp
     1c6:	0001                	nop
     1c8:	0402                	c.slli64	x8
     1ca:	0329                	addi	x6,x6,10
     1cc:	0900                	addi	x8,x2,144
     1ce:	0000                	unimp
     1d0:	0001                	nop
     1d2:	0402                	c.slli64	x8
     1d4:	0308                	addi	x10,x2,384
     1d6:	0900                	addi	x8,x2,144
     1d8:	0004                	0x4
     1da:	0001                	nop
     1dc:	0402                	c.slli64	x8
     1de:	0308                	addi	x10,x2,384
     1e0:	0900                	addi	x8,x2,144
     1e2:	0000                	unimp
     1e4:	0001                	nop
     1e6:	0402                	c.slli64	x8
     1e8:	0308                	addi	x10,x2,384
     1ea:	0901                	addi	x18,x18,0
     1ec:	0000                	unimp
     1ee:	0001                	nop
     1f0:	0402                	c.slli64	x8
     1f2:	0308                	addi	x10,x2,384
     1f4:	0900                	addi	x8,x2,144
     1f6:	0000                	unimp
     1f8:	0001                	nop
     1fa:	0402                	c.slli64	x8
     1fc:	0308                	addi	x10,x2,384
     1fe:	0900                	addi	x8,x2,144
     200:	0000                	unimp
     202:	0001                	nop
     204:	0402                	c.slli64	x8
     206:	0308                	addi	x10,x2,384
     208:	0900                	addi	x8,x2,144
     20a:	0000                	unimp
     20c:	0001                	nop
     20e:	0402                	c.slli64	x8
     210:	0308                	addi	x10,x2,384
     212:	0900                	addi	x8,x2,144
     214:	0000                	unimp
     216:	0001                	nop
     218:	0402                	c.slli64	x8
     21a:	0308                	addi	x10,x2,384
     21c:	0900                	addi	x8,x2,144
     21e:	0000                	unimp
     220:	0001                	nop
     222:	0402                	c.slli64	x8
     224:	0308                	addi	x10,x2,384
     226:	0900                	addi	x8,x2,144
     228:	0010                	0x10
     22a:	0001                	nop
     22c:	0402                	c.slli64	x8
     22e:	0308                	addi	x10,x2,384
     230:	0900                	addi	x8,x2,144
     232:	0000                	unimp
     234:	0001                	nop
     236:	0402                	c.slli64	x8
     238:	0308                	addi	x10,x2,384
     23a:	0900                	addi	x8,x2,144
     23c:	0004                	0x4
     23e:	0001                	nop
     240:	0402                	c.slli64	x8
     242:	0308                	addi	x10,x2,384
     244:	0900                	addi	x8,x2,144
     246:	0000                	unimp
     248:	0001                	nop
     24a:	0402                	c.slli64	x8
     24c:	0308                	addi	x10,x2,384
     24e:	0900                	addi	x8,x2,144
     250:	0000                	unimp
     252:	0601                	addi	x12,x12,0
     254:	04090003          	lb	x0,64(x18)
     258:	0100                	addi	x8,x2,128
     25a:	0200                	addi	x8,x2,256
     25c:	0104                	addi	x9,x2,128
     25e:	0306                	slli	x6,x6,0x1
     260:	0900                	addi	x8,x2,144
     262:	0008                	0x8
     264:	0001                	nop
     266:	0402                	c.slli64	x8
     268:	0301                	addi	x6,x6,0
     26a:	0900                	addi	x8,x2,144
     26c:	0000                	unimp
     26e:	0001                	nop
     270:	0402                	c.slli64	x8
     272:	0301                	addi	x6,x6,0
     274:	0900                	addi	x8,x2,144
     276:	0000                	unimp
     278:	0001                	nop
     27a:	0402                	c.slli64	x8
     27c:	0301                	addi	x6,x6,0
     27e:	0900                	addi	x8,x2,144
     280:	0000                	unimp
     282:	0001                	nop
     284:	0402                	c.slli64	x8
     286:	0301                	addi	x6,x6,0
     288:	0900                	addi	x8,x2,144
     28a:	0014                	0x14
     28c:	0001                	nop
     28e:	0402                	c.slli64	x8
     290:	0301                	addi	x6,x6,0
     292:	0900                	addi	x8,x2,144
     294:	0004                	0x4
     296:	0001                	nop
     298:	0402                	c.slli64	x8
     29a:	0301                	addi	x6,x6,0
     29c:	0900                	addi	x8,x2,144
     29e:	0000                	unimp
     2a0:	0001                	nop
     2a2:	0402                	c.slli64	x8
     2a4:	0301                	addi	x6,x6,0
     2a6:	0900                	addi	x8,x2,144
     2a8:	0004                	0x4
     2aa:	0001                	nop
     2ac:	0402                	c.slli64	x8
     2ae:	0301                	addi	x6,x6,0
     2b0:	0900                	addi	x8,x2,144
     2b2:	0000                	unimp
     2b4:	0001                	nop
     2b6:	0402                	c.slli64	x8
     2b8:	0329                	addi	x6,x6,10
     2ba:	0900                	addi	x8,x2,144
     2bc:	0000                	unimp
     2be:	0001                	nop
     2c0:	0402                	c.slli64	x8
     2c2:	0329                	addi	x6,x6,10
     2c4:	0900                	addi	x8,x2,144
     2c6:	0000                	unimp
     2c8:	0001                	nop
     2ca:	0402                	c.slli64	x8
     2cc:	0308                	addi	x10,x2,384
     2ce:	0900                	addi	x8,x2,144
     2d0:	0004                	0x4
     2d2:	0001                	nop
     2d4:	0402                	c.slli64	x8
     2d6:	0308                	addi	x10,x2,384
     2d8:	0900                	addi	x8,x2,144
     2da:	0000                	unimp
     2dc:	0001                	nop
     2de:	0402                	c.slli64	x8
     2e0:	0308                	addi	x10,x2,384
     2e2:	0901                	addi	x18,x18,0
     2e4:	0000                	unimp
     2e6:	0001                	nop
     2e8:	0402                	c.slli64	x8
     2ea:	0308                	addi	x10,x2,384
     2ec:	0900                	addi	x8,x2,144
     2ee:	0000                	unimp
     2f0:	0001                	nop
     2f2:	0402                	c.slli64	x8
     2f4:	0308                	addi	x10,x2,384
     2f6:	0900                	addi	x8,x2,144
     2f8:	0014                	0x14
     2fa:	0001                	nop
     2fc:	0402                	c.slli64	x8
     2fe:	0308                	addi	x10,x2,384
     300:	0900                	addi	x8,x2,144
     302:	0004                	0x4
     304:	0001                	nop
     306:	0402                	c.slli64	x8
     308:	0302                	c.slli64	x6
     30a:	097e                	slli	x18,x18,0x1f
     30c:	001c                	0x1c
     30e:	0001                	nop
     310:	0402                	c.slli64	x8
     312:	030d                	addi	x6,x6,3
     314:	0900                	addi	x8,x2,144
     316:	0008                	0x8
     318:	0001                	nop
     31a:	0402                	c.slli64	x8
     31c:	030d                	addi	x6,x6,3
     31e:	0900                	addi	x8,x2,144
     320:	0000                	unimp
     322:	0001                	nop
     324:	0402                	c.slli64	x8
     326:	030d                	addi	x6,x6,3
     328:	0900                	addi	x8,x2,144
     32a:	0000                	unimp
     32c:	0001                	nop
     32e:	0402                	c.slli64	x8
     330:	030d                	addi	x6,x6,3
     332:	0900                	addi	x8,x2,144
     334:	0000                	unimp
     336:	0001                	nop
     338:	0402                	c.slli64	x8
     33a:	0311                	addi	x6,x6,4
     33c:	0900                	addi	x8,x2,144
     33e:	0004                	0x4
     340:	0001                	nop
     342:	0402                	c.slli64	x8
     344:	0311                	addi	x6,x6,4
     346:	0900                	addi	x8,x2,144
     348:	0000                	unimp
     34a:	0001                	nop
     34c:	0402                	c.slli64	x8
     34e:	0311                	addi	x6,x6,4
     350:	0900                	addi	x8,x2,144
     352:	0000                	unimp
     354:	0001                	nop
     356:	0402                	c.slli64	x8
     358:	0311                	addi	x6,x6,4
     35a:	0900                	addi	x8,x2,144
     35c:	0000                	unimp
     35e:	0001                	nop
     360:	0402                	c.slli64	x8
     362:	0311                	addi	x6,x6,4
     364:	0900                	addi	x8,x2,144
     366:	0008                	0x8
     368:	0001                	nop
     36a:	0402                	c.slli64	x8
     36c:	031f 0900 0000      	0x900031f
     372:	0001                	nop
     374:	0402                	c.slli64	x8
     376:	031f 0900 0000      	0x900031f
     37c:	0001                	nop
     37e:	0402                	c.slli64	x8
     380:	031f 0900 0004      	0x40900031f
     386:	0001                	nop
     388:	0402                	c.slli64	x8
     38a:	0320                	addi	x8,x2,392
     38c:	0900                	addi	x8,x2,144
     38e:	0008                	0x8
     390:	0001                	nop
     392:	0402                	c.slli64	x8
     394:	0320                	addi	x8,x2,392
     396:	0900                	addi	x8,x2,144
     398:	0008                	0x8
     39a:	0001                	nop
     39c:	0402                	c.slli64	x8
     39e:	0320                	addi	x8,x2,392
     3a0:	0900                	addi	x8,x2,144
     3a2:	0010                	0x10
     3a4:	0001                	nop
     3a6:	0402                	c.slli64	x8
     3a8:	0320                	addi	x8,x2,392
     3aa:	0900                	addi	x8,x2,144
     3ac:	0004                	0x4
     3ae:	0001                	nop
     3b0:	0402                	c.slli64	x8
     3b2:	0329                	addi	x6,x6,10
     3b4:	0900                	addi	x8,x2,144
     3b6:	0000                	unimp
     3b8:	0001                	nop
     3ba:	0402                	c.slli64	x8
     3bc:	0318                	addi	x14,x2,384
     3be:	0900                	addi	x8,x2,144
     3c0:	000c                	0xc
     3c2:	0001                	nop
     3c4:	0402                	c.slli64	x8
     3c6:	0318                	addi	x14,x2,384
     3c8:	0900                	addi	x8,x2,144
     3ca:	0000                	unimp
     3cc:	0001                	nop
     3ce:	0402                	c.slli64	x8
     3d0:	0318                	addi	x14,x2,384
     3d2:	0900                	addi	x8,x2,144
     3d4:	0000                	unimp
     3d6:	0001                	nop
     3d8:	0402                	c.slli64	x8
     3da:	0318                	addi	x14,x2,384
     3dc:	0900                	addi	x8,x2,144
     3de:	0000                	unimp
     3e0:	0001                	nop
     3e2:	0402                	c.slli64	x8
     3e4:	0318                	addi	x14,x2,384
     3e6:	0900                	addi	x8,x2,144
     3e8:	0004                	0x4
     3ea:	0001                	nop
     3ec:	0402                	c.slli64	x8
     3ee:	0318                	addi	x14,x2,384
     3f0:	0900                	addi	x8,x2,144
     3f2:	0000                	unimp
     3f4:	0001                	nop
     3f6:	0402                	c.slli64	x8
     3f8:	0321                	addi	x6,x6,8
     3fa:	0900                	addi	x8,x2,144
     3fc:	0008                	0x8
     3fe:	0001                	nop
     400:	0402                	c.slli64	x8
     402:	0321                	addi	x6,x6,8
     404:	0900                	addi	x8,x2,144
     406:	0008                	0x8
     408:	0001                	nop
     40a:	0402                	c.slli64	x8
     40c:	09000303          	lb	x6,144(x0) # 90 <.LASF10+0x2>
     410:	0008                	0x8
     412:	0601                	addi	x12,x12,0
     414:	0c090003          	lb	x0,192(x18)
     418:	0100                	addi	x8,x2,128
     41a:	0200                	addi	x8,x2,256
     41c:	0204                	addi	x9,x2,256
     41e:	0306                	slli	x6,x6,0x1
     420:	0901                	addi	x18,x18,0
     422:	0030                	addi	x12,x2,8
     424:	0001                	nop
     426:	0402                	c.slli64	x8
     428:	030d                	addi	x6,x6,3
     42a:	0900                	addi	x8,x2,144
     42c:	0008                	0x8
     42e:	0001                	nop
     430:	0402                	c.slli64	x8
     432:	030d                	addi	x6,x6,3
     434:	0900                	addi	x8,x2,144
     436:	0000                	unimp
     438:	0001                	nop
     43a:	0402                	c.slli64	x8
     43c:	030d                	addi	x6,x6,3
     43e:	0900                	addi	x8,x2,144
     440:	0000                	unimp
     442:	0001                	nop
     444:	0402                	c.slli64	x8
     446:	030d                	addi	x6,x6,3
     448:	0900                	addi	x8,x2,144
     44a:	0000                	unimp
     44c:	0001                	nop
     44e:	0402                	c.slli64	x8
     450:	0311                	addi	x6,x6,4
     452:	0900                	addi	x8,x2,144
     454:	0004                	0x4
     456:	0001                	nop
     458:	0402                	c.slli64	x8
     45a:	0311                	addi	x6,x6,4
     45c:	0900                	addi	x8,x2,144
     45e:	0000                	unimp
     460:	0001                	nop
     462:	0402                	c.slli64	x8
     464:	0311                	addi	x6,x6,4
     466:	0900                	addi	x8,x2,144
     468:	0000                	unimp
     46a:	0001                	nop
     46c:	0402                	c.slli64	x8
     46e:	0311                	addi	x6,x6,4
     470:	0900                	addi	x8,x2,144
     472:	0000                	unimp
     474:	0001                	nop
     476:	0402                	c.slli64	x8
     478:	0311                	addi	x6,x6,4
     47a:	0900                	addi	x8,x2,144
     47c:	0008                	0x8
     47e:	0001                	nop
     480:	0402                	c.slli64	x8
     482:	031f 0900 0000      	0x900031f
     488:	0001                	nop
     48a:	0402                	c.slli64	x8
     48c:	031f 0900 0000      	0x900031f
     492:	0001                	nop
     494:	0402                	c.slli64	x8
     496:	031f 0900 0004      	0x40900031f
     49c:	0001                	nop
     49e:	0402                	c.slli64	x8
     4a0:	0320                	addi	x8,x2,392
     4a2:	0900                	addi	x8,x2,144
     4a4:	0008                	0x8
     4a6:	0001                	nop
     4a8:	0402                	c.slli64	x8
     4aa:	0320                	addi	x8,x2,392
     4ac:	0900                	addi	x8,x2,144
     4ae:	0008                	0x8
     4b0:	0001                	nop
     4b2:	0402                	c.slli64	x8
     4b4:	0320                	addi	x8,x2,392
     4b6:	0900                	addi	x8,x2,144
     4b8:	0010                	0x10
     4ba:	0001                	nop
     4bc:	0402                	c.slli64	x8
     4be:	0320                	addi	x8,x2,392
     4c0:	0900                	addi	x8,x2,144
     4c2:	0004                	0x4
     4c4:	0001                	nop
     4c6:	0402                	c.slli64	x8
     4c8:	0329                	addi	x6,x6,10
     4ca:	0900                	addi	x8,x2,144
     4cc:	0000                	unimp
     4ce:	0001                	nop
     4d0:	0402                	c.slli64	x8
     4d2:	0318                	addi	x14,x2,384
     4d4:	0900                	addi	x8,x2,144
     4d6:	000c                	0xc
     4d8:	0001                	nop
     4da:	0402                	c.slli64	x8
     4dc:	0318                	addi	x14,x2,384
     4de:	0900                	addi	x8,x2,144
     4e0:	0000                	unimp
     4e2:	0001                	nop
     4e4:	0402                	c.slli64	x8
     4e6:	0318                	addi	x14,x2,384
     4e8:	0900                	addi	x8,x2,144
     4ea:	0000                	unimp
     4ec:	0001                	nop
     4ee:	0402                	c.slli64	x8
     4f0:	0318                	addi	x14,x2,384
     4f2:	0900                	addi	x8,x2,144
     4f4:	0000                	unimp
     4f6:	0001                	nop
     4f8:	0402                	c.slli64	x8
     4fa:	0318                	addi	x14,x2,384
     4fc:	0900                	addi	x8,x2,144
     4fe:	0008                	0x8
     500:	0001                	nop
     502:	0402                	c.slli64	x8
     504:	0318                	addi	x14,x2,384
     506:	0900                	addi	x8,x2,144
     508:	0000                	unimp
     50a:	0001                	nop
     50c:	0402                	c.slli64	x8
     50e:	0321                	addi	x6,x6,8
     510:	0900                	addi	x8,x2,144
     512:	0008                	0x8
     514:	0001                	nop
     516:	0402                	c.slli64	x8
     518:	0321                	addi	x6,x6,8
     51a:	0900                	addi	x8,x2,144
     51c:	0008                	0x8
     51e:	0001                	nop
     520:	0402                	c.slli64	x8
     522:	09000303          	lb	x6,144(x0) # 90 <.LASF10+0x2>
     526:	0008                	0x8
     528:	0601                	addi	x12,x12,0
     52a:	08090003          	lb	x0,128(x18)
     52e:	0100                	addi	x8,x2,128
     530:	0200                	addi	x8,x2,256
     532:	0204                	addi	x9,x2,256
     534:	0306                	slli	x6,x6,0x1
     536:	0901                	addi	x18,x18,0
     538:	0030                	addi	x12,x2,8
     53a:	0001                	nop
     53c:	0402                	c.slli64	x8
     53e:	0302                	c.slli64	x6
     540:	0900                	addi	x8,x2,144
     542:	0000                	unimp
     544:	0001                	nop
     546:	0402                	c.slli64	x8
     548:	0302                	c.slli64	x6
     54a:	0900                	addi	x8,x2,144
     54c:	0000                	unimp
     54e:	0001                	nop
     550:	0402                	c.slli64	x8
     552:	0302                	c.slli64	x6
     554:	0900                	addi	x8,x2,144
     556:	0000                	unimp
     558:	0001                	nop
     55a:	0402                	c.slli64	x8
     55c:	0302                	c.slli64	x6
     55e:	0900                	addi	x8,x2,144
     560:	0000                	unimp
     562:	0001                	nop
     564:	0402                	c.slli64	x8
     566:	0302                	c.slli64	x6
     568:	0900                	addi	x8,x2,144
     56a:	0000                	unimp
     56c:	0001                	nop
     56e:	0402                	c.slli64	x8
     570:	0302                	c.slli64	x6
     572:	0900                	addi	x8,x2,144
     574:	0000                	unimp
     576:	0001                	nop
     578:	0402                	c.slli64	x8
     57a:	0302                	c.slli64	x6
     57c:	0900                	addi	x8,x2,144
     57e:	0000                	unimp
     580:	0001                	nop
     582:	0402                	c.slli64	x8
     584:	0302                	c.slli64	x6
     586:	0900                	addi	x8,x2,144
     588:	0000                	unimp
     58a:	0001                	nop
     58c:	0402                	c.slli64	x8
     58e:	0302                	c.slli64	x6
     590:	0900                	addi	x8,x2,144
     592:	0000                	unimp
     594:	0001                	nop
     596:	0402                	c.slli64	x8
     598:	0003060b          	0x3060b
     59c:	0409                	addi	x8,x8,2
     59e:	0100                	addi	x8,x2,128
     5a0:	0200                	addi	x8,x2,256
     5a2:	0c04                	addi	x9,x2,528
     5a4:	04090003          	lb	x0,64(x18)
     5a8:	0100                	addi	x8,x2,128
     5aa:	0200                	addi	x8,x2,256
     5ac:	0e04                	addi	x9,x2,784
     5ae:	0306                	slli	x6,x6,0x1
     5b0:	0900                	addi	x8,x2,144
     5b2:	0004                	0x4
     5b4:	0001                	nop
     5b6:	0402                	c.slli64	x8
     5b8:	030e                	slli	x6,x6,0x3
     5ba:	0900                	addi	x8,x2,144
     5bc:	0000                	unimp
     5be:	0001                	nop
     5c0:	0402                	c.slli64	x8
     5c2:	030e                	slli	x6,x6,0x3
     5c4:	0900                	addi	x8,x2,144
     5c6:	0008                	0x8
     5c8:	0001                	nop
     5ca:	0402                	c.slli64	x8
     5cc:	09000313          	li	x6,144
     5d0:	000c                	0xc
     5d2:	0001                	nop
     5d4:	0402                	c.slli64	x8
     5d6:	09000313          	li	x6,144
     5da:	0000                	unimp
     5dc:	0001                	nop
     5de:	0402                	c.slli64	x8
     5e0:	09000313          	li	x6,144
     5e4:	0000                	unimp
     5e6:	0001                	nop
     5e8:	0402                	c.slli64	x8
     5ea:	09000313          	li	x6,144
     5ee:	000c                	0xc
     5f0:	0001                	nop
     5f2:	0402                	c.slli64	x8
     5f4:	09000313          	li	x6,144
     5f8:	0014                	0x14
     5fa:	0001                	nop
     5fc:	0402                	c.slli64	x8
     5fe:	09000313          	li	x6,144
     602:	0000                	unimp
     604:	0001                	nop
     606:	0402                	c.slli64	x8
     608:	09000313          	li	x6,144
     60c:	0000                	unimp
     60e:	0001                	nop
     610:	0402                	c.slli64	x8
     612:	09000313          	li	x6,144
     616:	0000                	unimp
     618:	0001                	nop
     61a:	0402                	c.slli64	x8
     61c:	09000313          	li	x6,144
     620:	0000                	unimp
     622:	0001                	nop
     624:	0402                	c.slli64	x8
     626:	09000313          	li	x6,144
     62a:	0000                	unimp
     62c:	0001                	nop
     62e:	0402                	c.slli64	x8
     630:	09000313          	li	x6,144
     634:	0004                	0x4
     636:	0001                	nop
     638:	0402                	c.slli64	x8
     63a:	09000313          	li	x6,144
     63e:	0000                	unimp
     640:	0001                	nop
     642:	0402                	c.slli64	x8
     644:	09000313          	li	x6,144
     648:	000c                	0xc
     64a:	0001                	nop
     64c:	0402                	c.slli64	x8
     64e:	09000313          	li	x6,144
     652:	000c                	0xc
     654:	0001                	nop
     656:	0402                	c.slli64	x8
     658:	09000313          	li	x6,144
     65c:	0018                	0x18
     65e:	0001                	nop
     660:	0402                	c.slli64	x8
     662:	0316                	slli	x6,x6,0x5
     664:	0900                	addi	x8,x2,144
     666:	0008                	0x8
     668:	0001                	nop
     66a:	0402                	c.slli64	x8
     66c:	0316                	slli	x6,x6,0x5
     66e:	0900                	addi	x8,x2,144
     670:	0008                	0x8
     672:	0001                	nop
     674:	0402                	c.slli64	x8
     676:	0318                	addi	x14,x2,384
     678:	0900                	addi	x8,x2,144
     67a:	0004                	0x4
     67c:	0001                	nop
     67e:	0402                	c.slli64	x8
     680:	031a                	slli	x6,x6,0x6
     682:	0900                	addi	x8,x2,144
     684:	0004                	0x4
     686:	0001                	nop
     688:	0402                	c.slli64	x8
     68a:	031c                	addi	x15,x2,384
     68c:	0900                	addi	x8,x2,144
     68e:	0008                	0x8
     690:	0001                	nop
     692:	0402                	c.slli64	x8
     694:	031c                	addi	x15,x2,384
     696:	0900                	addi	x8,x2,144
     698:	0004                	0x4
     69a:	0001                	nop
     69c:	0402                	c.slli64	x8
     69e:	031c                	addi	x15,x2,384
     6a0:	0900                	addi	x8,x2,144
     6a2:	0000                	unimp
     6a4:	0001                	nop
     6a6:	0402                	c.slli64	x8
     6a8:	031c                	addi	x15,x2,384
     6aa:	0900                	addi	x8,x2,144
     6ac:	0014                	0x14
     6ae:	0001                	nop
     6b0:	0402                	c.slli64	x8
     6b2:	031c                	addi	x15,x2,384
     6b4:	0900                	addi	x8,x2,144
     6b6:	000c                	0xc
     6b8:	0001                	nop
     6ba:	0402                	c.slli64	x8
     6bc:	031c                	addi	x15,x2,384
     6be:	0900                	addi	x8,x2,144
     6c0:	001c                	0x1c
     6c2:	0001                	nop
     6c4:	0402                	c.slli64	x8
     6c6:	031d                	addi	x6,x6,7
     6c8:	0900                	addi	x8,x2,144
     6ca:	0008                	0x8
     6cc:	0001                	nop
     6ce:	0402                	c.slli64	x8
     6d0:	031d                	addi	x6,x6,7
     6d2:	0900                	addi	x8,x2,144
     6d4:	0008                	0x8
     6d6:	0001                	nop
     6d8:	0402                	c.slli64	x8
     6da:	031f 0900 0004      	0x40900031f
     6e0:	0001                	nop
     6e2:	0402                	c.slli64	x8
     6e4:	0321                	addi	x6,x6,8
     6e6:	0900                	addi	x8,x2,144
     6e8:	0004                	0x4
     6ea:	0001                	nop
     6ec:	0402                	c.slli64	x8
     6ee:	09000323          	sb	x16,134(x0) # 86 <.LASF45+0x4>
     6f2:	0008                	0x8
     6f4:	0001                	nop
     6f6:	0402                	c.slli64	x8
     6f8:	09000323          	sb	x16,134(x0) # 86 <.LASF45+0x4>
     6fc:	0010                	0x10
     6fe:	0001                	nop
     700:	0402                	c.slli64	x8
     702:	09000323          	sb	x16,134(x0) # 86 <.LASF45+0x4>
     706:	0000                	unimp
     708:	0001                	nop
     70a:	0402                	c.slli64	x8
     70c:	09000323          	sb	x16,134(x0) # 86 <.LASF45+0x4>
     710:	0000                	unimp
     712:	0001                	nop
     714:	0402                	c.slli64	x8
     716:	09000323          	sb	x16,134(x0) # 86 <.LASF45+0x4>
     71a:	0000                	unimp
     71c:	0001                	nop
     71e:	0402                	c.slli64	x8
     720:	09000323          	sb	x16,134(x0) # 86 <.LASF45+0x4>
     724:	0000                	unimp
     726:	0001                	nop
     728:	0402                	c.slli64	x8
     72a:	09000323          	sb	x16,134(x0) # 86 <.LASF45+0x4>
     72e:	0000                	unimp
     730:	0001                	nop
     732:	0402                	c.slli64	x8
     734:	09000323          	sb	x16,134(x0) # 86 <.LASF45+0x4>
     738:	0000                	unimp
     73a:	0001                	nop
     73c:	0402                	c.slli64	x8
     73e:	09000323          	sb	x16,134(x0) # 86 <.LASF45+0x4>
     742:	0000                	unimp
     744:	0001                	nop
     746:	0402                	c.slli64	x8
     748:	09000323          	sb	x16,134(x0) # 86 <.LASF45+0x4>
     74c:	0010                	0x10
     74e:	0001                	nop
     750:	0402                	c.slli64	x8
     752:	09000323          	sb	x16,134(x0) # 86 <.LASF45+0x4>
     756:	0000                	unimp
     758:	0001                	nop
     75a:	0402                	c.slli64	x8
     75c:	09000323          	sb	x16,134(x0) # 86 <.LASF45+0x4>
     760:	0004                	0x4
     762:	0001                	nop
     764:	0402                	c.slli64	x8
     766:	09000323          	sb	x16,134(x0) # 86 <.LASF45+0x4>
     76a:	0000                	unimp
     76c:	0001                	nop
     76e:	0402                	c.slli64	x8
     770:	09000323          	sb	x16,134(x0) # 86 <.LASF45+0x4>
     774:	0004                	0x4
     776:	0001                	nop
     778:	0402                	c.slli64	x8
     77a:	09000323          	sb	x16,134(x0) # 86 <.LASF45+0x4>
     77e:	0004                	0x4
     780:	0001                	nop
     782:	0402                	c.slli64	x8
     784:	09000323          	sb	x16,134(x0) # 86 <.LASF45+0x4>
     788:	0004                	0x4
     78a:	0001                	nop
     78c:	0402                	c.slli64	x8
     78e:	09000323          	sb	x16,134(x0) # 86 <.LASF45+0x4>
     792:	0004                	0x4
     794:	0001                	nop
     796:	0402                	c.slli64	x8
     798:	09000323          	sb	x16,134(x0) # 86 <.LASF45+0x4>
     79c:	0000                	unimp
     79e:	0001                	nop
     7a0:	0402                	c.slli64	x8
     7a2:	09000323          	sb	x16,134(x0) # 86 <.LASF45+0x4>
     7a6:	0008                	0x8
     7a8:	0001                	nop
     7aa:	0402                	c.slli64	x8
     7ac:	09000323          	sb	x16,134(x0) # 86 <.LASF45+0x4>
     7b0:	0000                	unimp
     7b2:	0001                	nop
     7b4:	0402                	c.slli64	x8
     7b6:	09000323          	sb	x16,134(x0) # 86 <.LASF45+0x4>
     7ba:	0004                	0x4
     7bc:	0001                	nop
     7be:	0402                	c.slli64	x8
     7c0:	09000323          	sb	x16,134(x0) # 86 <.LASF45+0x4>
     7c4:	0004                	0x4
     7c6:	0001                	nop
     7c8:	0402                	c.slli64	x8
     7ca:	09000323          	sb	x16,134(x0) # 86 <.LASF45+0x4>
     7ce:	0000                	unimp
     7d0:	0001                	nop
     7d2:	0402                	c.slli64	x8
     7d4:	09000323          	sb	x16,134(x0) # 86 <.LASF45+0x4>
     7d8:	0008                	0x8
     7da:	0001                	nop
     7dc:	0402                	c.slli64	x8
     7de:	09000323          	sb	x16,134(x0) # 86 <.LASF45+0x4>
     7e2:	0000                	unimp
     7e4:	0001                	nop
     7e6:	0402                	c.slli64	x8
     7e8:	09000323          	sb	x16,134(x0) # 86 <.LASF45+0x4>
     7ec:	0004                	0x4
     7ee:	0001                	nop
     7f0:	0402                	c.slli64	x8
     7f2:	09000323          	sb	x16,134(x0) # 86 <.LASF45+0x4>
     7f6:	0004                	0x4
     7f8:	0001                	nop
     7fa:	0402                	c.slli64	x8
     7fc:	09000323          	sb	x16,134(x0) # 86 <.LASF45+0x4>
     800:	0000                	unimp
     802:	0001                	nop
     804:	0402                	c.slli64	x8
     806:	09000323          	sb	x16,134(x0) # 86 <.LASF45+0x4>
     80a:	0008                	0x8
     80c:	0001                	nop
     80e:	0402                	c.slli64	x8
     810:	09000323          	sb	x16,134(x0) # 86 <.LASF45+0x4>
     814:	0000                	unimp
     816:	0001                	nop
     818:	0402                	c.slli64	x8
     81a:	09000323          	sb	x16,134(x0) # 86 <.LASF45+0x4>
     81e:	0004                	0x4
     820:	0001                	nop
     822:	0402                	c.slli64	x8
     824:	09000323          	sb	x16,134(x0) # 86 <.LASF45+0x4>
     828:	0010                	0x10
     82a:	0001                	nop
     82c:	0402                	c.slli64	x8
     82e:	09000323          	sb	x16,134(x0) # 86 <.LASF45+0x4>
     832:	0000                	unimp
     834:	0001                	nop
     836:	0402                	c.slli64	x8
     838:	09000323          	sb	x16,134(x0) # 86 <.LASF45+0x4>
     83c:	0000                	unimp
     83e:	0001                	nop
     840:	0402                	c.slli64	x8
     842:	0324                	addi	x9,x2,392
     844:	0900                	addi	x8,x2,144
     846:	0004                	0x4
     848:	0001                	nop
     84a:	0402                	c.slli64	x8
     84c:	0326                	slli	x6,x6,0x9
     84e:	0900                	addi	x8,x2,144
     850:	0004                	0x4
     852:	0001                	nop
     854:	0402                	c.slli64	x8
     856:	0326                	slli	x6,x6,0x9
     858:	0900                	addi	x8,x2,144
     85a:	001c                	0x1c
     85c:	0001                	nop
     85e:	0402                	c.slli64	x8
     860:	0326                	slli	x6,x6,0x9
     862:	0900                	addi	x8,x2,144
     864:	0004                	0x4
     866:	0001                	nop
     868:	0402                	c.slli64	x8
     86a:	0326                	slli	x6,x6,0x9
     86c:	0900                	addi	x8,x2,144
     86e:	0000                	unimp
     870:	0001                	nop
     872:	0402                	c.slli64	x8
     874:	0326                	slli	x6,x6,0x9
     876:	0900                	addi	x8,x2,144
     878:	0000                	unimp
     87a:	0001                	nop
     87c:	0402                	c.slli64	x8
     87e:	0628                	addi	x10,x2,776
     880:	04090003          	lb	x0,64(x18)
     884:	0100                	addi	x8,x2,128
     886:	0200                	addi	x8,x2,256
     888:	2904                	fld	f9,16(x10)
     88a:	08090003          	lb	x0,128(x18)
     88e:	0100                	addi	x8,x2,128
     890:	0200                	addi	x8,x2,256
     892:	2b04                	fld	f9,16(x14)
     894:	0306                	slli	x6,x6,0x1
     896:	0900                	addi	x8,x2,144
     898:	0004                	0x4
     89a:	0001                	nop
     89c:	0402                	c.slli64	x8
     89e:	0900032b          	0x900032b
     8a2:	0014                	0x14
     8a4:	0001                	nop
     8a6:	0402                	c.slli64	x8
     8a8:	0900032b          	0x900032b
     8ac:	0000                	unimp
     8ae:	0001                	nop
     8b0:	0402                	c.slli64	x8
     8b2:	0900032b          	0x900032b
     8b6:	0000                	unimp
     8b8:	0001                	nop
     8ba:	0402                	c.slli64	x8
     8bc:	0900032b          	0x900032b
     8c0:	0000                	unimp
     8c2:	0001                	nop
     8c4:	0402                	c.slli64	x8
     8c6:	0900032b          	0x900032b
     8ca:	0000                	unimp
     8cc:	0001                	nop
     8ce:	0402                	c.slli64	x8
     8d0:	0900032b          	0x900032b
     8d4:	0000                	unimp
     8d6:	0001                	nop
     8d8:	0402                	c.slli64	x8
     8da:	0900032b          	0x900032b
     8de:	0000                	unimp
     8e0:	0001                	nop
     8e2:	0402                	c.slli64	x8
     8e4:	062e                	slli	x12,x12,0xb
     8e6:	04090003          	lb	x0,64(x18)
     8ea:	0100                	addi	x8,x2,128
     8ec:	0200                	addi	x8,x2,256
     8ee:	2f04                	fld	f9,24(x14)
     8f0:	04090003          	lb	x0,64(x18)
     8f4:	0100                	addi	x8,x2,128
     8f6:	0200                	addi	x8,x2,256
     8f8:	3104                	fld	f9,32(x10)
     8fa:	04090003          	lb	x0,64(x18)
     8fe:	0100                	addi	x8,x2,128
     900:	0200                	addi	x8,x2,256
     902:	3404                	fld	f9,40(x8)
     904:	04090003          	lb	x0,64(x18)
     908:	0100                	addi	x8,x2,128
     90a:	0200                	addi	x8,x2,256
     90c:	3504                	fld	f9,40(x10)
     90e:	04090003          	lb	x0,64(x18)
     912:	0100                	addi	x8,x2,128
     914:	0200                	addi	x8,x2,256
     916:	3704                	fld	f9,40(x14)
     918:	0306                	slli	x6,x6,0x1
     91a:	0900                	addi	x8,x2,144
     91c:	0004                	0x4
     91e:	0001                	nop
     920:	0402                	c.slli64	x8
     922:	09000337          	lui	x6,0x9000
     926:	0010                	0x10
     928:	0001                	nop
     92a:	0402                	c.slli64	x8
     92c:	09000337          	lui	x6,0x9000
     930:	0000                	unimp
     932:	0001                	nop
     934:	0402                	c.slli64	x8
     936:	09000337          	lui	x6,0x9000
     93a:	0000                	unimp
     93c:	0001                	nop
     93e:	0402                	c.slli64	x8
     940:	09000337          	lui	x6,0x9000
     944:	0000                	unimp
     946:	0001                	nop
     948:	0402                	c.slli64	x8
     94a:	09000337          	lui	x6,0x9000
     94e:	0004                	0x4
     950:	0001                	nop
     952:	0402                	c.slli64	x8
     954:	0339                	addi	x6,x6,14
     956:	0900                	addi	x8,x2,144
     958:	0000                	unimp
     95a:	0001                	nop
     95c:	0402                	c.slli64	x8
     95e:	0339                	addi	x6,x6,14
     960:	0900                	addi	x8,x2,144
     962:	0000                	unimp
     964:	0001                	nop
     966:	0402                	c.slli64	x8
     968:	0339                	addi	x6,x6,14
     96a:	0900                	addi	x8,x2,144
     96c:	0000                	unimp
     96e:	0001                	nop
     970:	0402                	c.slli64	x8
     972:	0339                	addi	x6,x6,14
     974:	0900                	addi	x8,x2,144
     976:	0000                	unimp
     978:	0001                	nop
     97a:	0402                	c.slli64	x8
     97c:	0339                	addi	x6,x6,14
     97e:	0900                	addi	x8,x2,144
     980:	0004                	0x4
     982:	0001                	nop
     984:	0402                	c.slli64	x8
     986:	0339                	addi	x6,x6,14
     988:	0900                	addi	x8,x2,144
     98a:	000c                	0xc
     98c:	0001                	nop
     98e:	0402                	c.slli64	x8
     990:	0339                	addi	x6,x6,14
     992:	0900                	addi	x8,x2,144
     994:	0000                	unimp
     996:	0001                	nop
     998:	0402                	c.slli64	x8
     99a:	0339                	addi	x6,x6,14
     99c:	0900                	addi	x8,x2,144
     99e:	0000                	unimp
     9a0:	0001                	nop
     9a2:	0402                	c.slli64	x8
     9a4:	0900033b          	0x900033b
     9a8:	0008                	0x8
     9aa:	0001                	nop
     9ac:	0402                	c.slli64	x8
     9ae:	0900033b          	0x900033b
     9b2:	0000                	unimp
     9b4:	0001                	nop
     9b6:	0402                	c.slli64	x8
     9b8:	0900033b          	0x900033b
     9bc:	0000                	unimp
     9be:	0001                	nop
     9c0:	0402                	c.slli64	x8
     9c2:	0900033b          	0x900033b
     9c6:	0000                	unimp
     9c8:	0001                	nop
     9ca:	0402                	c.slli64	x8
     9cc:	0900033b          	0x900033b
     9d0:	0000                	unimp
     9d2:	0001                	nop
     9d4:	0402                	c.slli64	x8
     9d6:	0900033b          	0x900033b
     9da:	0000                	unimp
     9dc:	0001                	nop
     9de:	0402                	c.slli64	x8
     9e0:	0900033b          	0x900033b
     9e4:	0000                	unimp
     9e6:	0001                	nop
     9e8:	0402                	c.slli64	x8
     9ea:	0900033b          	0x900033b
     9ee:	000c                	0xc
     9f0:	0001                	nop
     9f2:	0402                	c.slli64	x8
     9f4:	0900033b          	0x900033b
     9f8:	0014                	0x14
     9fa:	0001                	nop
     9fc:	0402                	c.slli64	x8
     9fe:	0900033b          	0x900033b
     a02:	0020                	addi	x8,x2,8
     a04:	0001                	nop
     a06:	0402                	c.slli64	x8
     a08:	033d                	addi	x6,x6,15
     a0a:	0900                	addi	x8,x2,144
     a0c:	0008                	0x8
     a0e:	0001                	nop
     a10:	0402                	c.slli64	x8
     a12:	033d                	addi	x6,x6,15
     a14:	0900                	addi	x8,x2,144
     a16:	0008                	0x8
     a18:	0001                	nop
     a1a:	0402                	c.slli64	x8
     a1c:	0900033f 00010004 	0x100040900033f
     a24:	0402                	c.slli64	x8
     a26:	0341                	addi	x6,x6,16
     a28:	0900                	addi	x8,x2,144
     a2a:	0004                	0x4
     a2c:	0001                	nop
     a2e:	0402                	c.slli64	x8
     a30:	09000343          	fmadd.s	f6,f0,f16,f1,rne
     a34:	0008                	0x8
     a36:	0001                	nop
     a38:	0402                	c.slli64	x8
     a3a:	09000343          	fmadd.s	f6,f0,f16,f1,rne
     a3e:	0004                	0x4
     a40:	0001                	nop
     a42:	0402                	c.slli64	x8
     a44:	09000343          	fmadd.s	f6,f0,f16,f1,rne
     a48:	0000                	unimp
     a4a:	0001                	nop
     a4c:	0402                	c.slli64	x8
     a4e:	09000343          	fmadd.s	f6,f0,f16,f1,rne
     a52:	000c                	0xc
     a54:	0001                	nop
     a56:	0402                	c.slli64	x8
     a58:	09000343          	fmadd.s	f6,f0,f16,f1,rne
     a5c:	0014                	0x14
     a5e:	0001                	nop
     a60:	0402                	c.slli64	x8
     a62:	09000343          	fmadd.s	f6,f0,f16,f1,rne
     a66:	0020                	addi	x8,x2,8
     a68:	0001                	nop
     a6a:	0402                	c.slli64	x8
     a6c:	0344                	addi	x9,x2,388
     a6e:	0900                	addi	x8,x2,144
     a70:	0008                	0x8
     a72:	0001                	nop
     a74:	0402                	c.slli64	x8
     a76:	0344                	addi	x9,x2,388
     a78:	0900                	addi	x8,x2,144
     a7a:	0008                	0x8
     a7c:	0001                	nop
     a7e:	0402                	c.slli64	x8
     a80:	0346                	slli	x6,x6,0x11
     a82:	0900                	addi	x8,x2,144
     a84:	0004                	0x4
     a86:	0001                	nop
     a88:	0402                	c.slli64	x8
     a8a:	0348                	addi	x10,x2,388
     a8c:	0900                	addi	x8,x2,144
     a8e:	0004                	0x4
     a90:	0001                	nop
     a92:	0402                	c.slli64	x8
     a94:	034a                	slli	x6,x6,0x12
     a96:	0900                	addi	x8,x2,144
     a98:	0008                	0x8
     a9a:	0001                	nop
     a9c:	0402                	c.slli64	x8
     a9e:	034a                	slli	x6,x6,0x12
     aa0:	0900                	addi	x8,x2,144
     aa2:	0014                	0x14
     aa4:	0001                	nop
     aa6:	0402                	c.slli64	x8
     aa8:	034a                	slli	x6,x6,0x12
     aaa:	0900                	addi	x8,x2,144
     aac:	0000                	unimp
     aae:	0001                	nop
     ab0:	0402                	c.slli64	x8
     ab2:	034a                	slli	x6,x6,0x12
     ab4:	0900                	addi	x8,x2,144
     ab6:	0000                	unimp
     ab8:	0001                	nop
     aba:	0402                	c.slli64	x8
     abc:	034a                	slli	x6,x6,0x12
     abe:	0900                	addi	x8,x2,144
     ac0:	0000                	unimp
     ac2:	0001                	nop
     ac4:	0402                	c.slli64	x8
     ac6:	034a                	slli	x6,x6,0x12
     ac8:	0900                	addi	x8,x2,144
     aca:	0000                	unimp
     acc:	0001                	nop
     ace:	0402                	c.slli64	x8
     ad0:	034a                	slli	x6,x6,0x12
     ad2:	0900                	addi	x8,x2,144
     ad4:	0000                	unimp
     ad6:	0001                	nop
     ad8:	0402                	c.slli64	x8
     ada:	034a                	slli	x6,x6,0x12
     adc:	0900                	addi	x8,x2,144
     ade:	0000                	unimp
     ae0:	0001                	nop
     ae2:	0402                	c.slli64	x8
     ae4:	034a                	slli	x6,x6,0x12
     ae6:	0900                	addi	x8,x2,144
     ae8:	0000                	unimp
     aea:	0001                	nop
     aec:	0402                	c.slli64	x8
     aee:	034a                	slli	x6,x6,0x12
     af0:	0900                	addi	x8,x2,144
     af2:	0004                	0x4
     af4:	0001                	nop
     af6:	0402                	c.slli64	x8
     af8:	034a                	slli	x6,x6,0x12
     afa:	0900                	addi	x8,x2,144
     afc:	0000                	unimp
     afe:	0001                	nop
     b00:	0402                	c.slli64	x8
     b02:	034a                	slli	x6,x6,0x12
     b04:	0900                	addi	x8,x2,144
     b06:	0000                	unimp
     b08:	0001                	nop
     b0a:	0402                	c.slli64	x8
     b0c:	034a                	slli	x6,x6,0x12
     b0e:	0900                	addi	x8,x2,144
     b10:	0000                	unimp
     b12:	0001                	nop
     b14:	0402                	c.slli64	x8
     b16:	034a                	slli	x6,x6,0x12
     b18:	0900                	addi	x8,x2,144
     b1a:	0004                	0x4
     b1c:	0001                	nop
     b1e:	0402                	c.slli64	x8
     b20:	034a                	slli	x6,x6,0x12
     b22:	0900                	addi	x8,x2,144
     b24:	0004                	0x4
     b26:	0001                	nop
     b28:	0402                	c.slli64	x8
     b2a:	034a                	slli	x6,x6,0x12
     b2c:	0900                	addi	x8,x2,144
     b2e:	0004                	0x4
     b30:	0001                	nop
     b32:	0402                	c.slli64	x8
     b34:	034a                	slli	x6,x6,0x12
     b36:	0900                	addi	x8,x2,144
     b38:	0004                	0x4
     b3a:	0001                	nop
     b3c:	0402                	c.slli64	x8
     b3e:	034a                	slli	x6,x6,0x12
     b40:	0900                	addi	x8,x2,144
     b42:	0000                	unimp
     b44:	0001                	nop
     b46:	0402                	c.slli64	x8
     b48:	034a                	slli	x6,x6,0x12
     b4a:	0900                	addi	x8,x2,144
     b4c:	0008                	0x8
     b4e:	0001                	nop
     b50:	0402                	c.slli64	x8
     b52:	034a                	slli	x6,x6,0x12
     b54:	0900                	addi	x8,x2,144
     b56:	0000                	unimp
     b58:	0001                	nop
     b5a:	0402                	c.slli64	x8
     b5c:	034a                	slli	x6,x6,0x12
     b5e:	0900                	addi	x8,x2,144
     b60:	0004                	0x4
     b62:	0001                	nop
     b64:	0402                	c.slli64	x8
     b66:	034a                	slli	x6,x6,0x12
     b68:	0900                	addi	x8,x2,144
     b6a:	0004                	0x4
     b6c:	0001                	nop
     b6e:	0402                	c.slli64	x8
     b70:	034a                	slli	x6,x6,0x12
     b72:	0900                	addi	x8,x2,144
     b74:	0000                	unimp
     b76:	0001                	nop
     b78:	0402                	c.slli64	x8
     b7a:	034a                	slli	x6,x6,0x12
     b7c:	0900                	addi	x8,x2,144
     b7e:	0008                	0x8
     b80:	0001                	nop
     b82:	0402                	c.slli64	x8
     b84:	034a                	slli	x6,x6,0x12
     b86:	0900                	addi	x8,x2,144
     b88:	0000                	unimp
     b8a:	0001                	nop
     b8c:	0402                	c.slli64	x8
     b8e:	034a                	slli	x6,x6,0x12
     b90:	0900                	addi	x8,x2,144
     b92:	0004                	0x4
     b94:	0001                	nop
     b96:	0402                	c.slli64	x8
     b98:	034a                	slli	x6,x6,0x12
     b9a:	0900                	addi	x8,x2,144
     b9c:	0004                	0x4
     b9e:	0001                	nop
     ba0:	0402                	c.slli64	x8
     ba2:	034a                	slli	x6,x6,0x12
     ba4:	0900                	addi	x8,x2,144
     ba6:	0000                	unimp
     ba8:	0001                	nop
     baa:	0402                	c.slli64	x8
     bac:	034a                	slli	x6,x6,0x12
     bae:	0900                	addi	x8,x2,144
     bb0:	0008                	0x8
     bb2:	0001                	nop
     bb4:	0402                	c.slli64	x8
     bb6:	034a                	slli	x6,x6,0x12
     bb8:	0900                	addi	x8,x2,144
     bba:	0000                	unimp
     bbc:	0001                	nop
     bbe:	0402                	c.slli64	x8
     bc0:	034a                	slli	x6,x6,0x12
     bc2:	0900                	addi	x8,x2,144
     bc4:	0004                	0x4
     bc6:	0001                	nop
     bc8:	0402                	c.slli64	x8
     bca:	034a                	slli	x6,x6,0x12
     bcc:	0900                	addi	x8,x2,144
     bce:	0010                	0x10
     bd0:	0001                	nop
     bd2:	0402                	c.slli64	x8
     bd4:	034a                	slli	x6,x6,0x12
     bd6:	0900                	addi	x8,x2,144
     bd8:	0000                	unimp
     bda:	0001                	nop
     bdc:	0402                	c.slli64	x8
     bde:	034a                	slli	x6,x6,0x12
     be0:	0900                	addi	x8,x2,144
     be2:	0000                	unimp
     be4:	0001                	nop
     be6:	0402                	c.slli64	x8
     be8:	0900034b          	fnmsub.s	f6,f0,f16,f1,rne
     bec:	0004                	0x4
     bee:	0001                	nop
     bf0:	0402                	c.slli64	x8
     bf2:	034d                	addi	x6,x6,19
     bf4:	0900                	addi	x8,x2,144
     bf6:	0008                	0x8
     bf8:	0001                	nop
     bfa:	0402                	c.slli64	x8
     bfc:	034d                	addi	x6,x6,19
     bfe:	0900                	addi	x8,x2,144
     c00:	001c                	0x1c
     c02:	0001                	nop
     c04:	0402                	c.slli64	x8
     c06:	034d                	addi	x6,x6,19
     c08:	0900                	addi	x8,x2,144
     c0a:	0004                	0x4
     c0c:	0001                	nop
     c0e:	0402                	c.slli64	x8
     c10:	034d                	addi	x6,x6,19
     c12:	0900                	addi	x8,x2,144
     c14:	0000                	unimp
     c16:	0001                	nop
     c18:	0402                	c.slli64	x8
     c1a:	034d                	addi	x6,x6,19
     c1c:	0900                	addi	x8,x2,144
     c1e:	0000                	unimp
     c20:	0001                	nop
     c22:	0402                	c.slli64	x8
     c24:	0003064f          	fnmadd.s	f12,f6,f0,f0,rne
     c28:	0409                	addi	x8,x8,2
     c2a:	0100                	addi	x8,x2,128
     c2c:	0200                	addi	x8,x2,256
     c2e:	5004                	lw	x9,32(x8)
     c30:	04090003          	lb	x0,64(x18)
     c34:	0100                	addi	x8,x2,128
     c36:	0200                	addi	x8,x2,256
     c38:	5204                	lw	x9,32(x12)
     c3a:	0306                	slli	x6,x6,0x1
     c3c:	0900                	addi	x8,x2,144
     c3e:	0008                	0x8
     c40:	0001                	nop
     c42:	0402                	c.slli64	x8
     c44:	0352                	slli	x6,x6,0x14
     c46:	0900                	addi	x8,x2,144
     c48:	0008                	0x8
     c4a:	0001                	nop
     c4c:	0402                	c.slli64	x8
     c4e:	0352                	slli	x6,x6,0x14
     c50:	0900                	addi	x8,x2,144
     c52:	0000                	unimp
     c54:	0001                	nop
     c56:	0402                	c.slli64	x8
     c58:	0352                	slli	x6,x6,0x14
     c5a:	0900                	addi	x8,x2,144
     c5c:	0000                	unimp
     c5e:	0001                	nop
     c60:	0402                	c.slli64	x8
     c62:	0352                	slli	x6,x6,0x14
     c64:	0900                	addi	x8,x2,144
     c66:	0000                	unimp
     c68:	0001                	nop
     c6a:	0402                	c.slli64	x8
     c6c:	0352                	slli	x6,x6,0x14
     c6e:	0900                	addi	x8,x2,144
     c70:	0000                	unimp
     c72:	0001                	nop
     c74:	0402                	c.slli64	x8
     c76:	0352                	slli	x6,x6,0x14
     c78:	0900                	addi	x8,x2,144
     c7a:	0000                	unimp
     c7c:	0001                	nop
     c7e:	0402                	c.slli64	x8
     c80:	0352                	slli	x6,x6,0x14
     c82:	0900                	addi	x8,x2,144
     c84:	0000                	unimp
     c86:	0001                	nop
     c88:	0402                	c.slli64	x8
     c8a:	0658                	addi	x14,x2,772
     c8c:	04090003          	lb	x0,64(x18)
     c90:	0100                	addi	x8,x2,128
     c92:	0200                	addi	x8,x2,256
     c94:	5b04                	lw	x9,48(x14)
     c96:	04090003          	lb	x0,64(x18)
     c9a:	0100                	addi	x8,x2,128
     c9c:	0200                	addi	x8,x2,256
     c9e:	5c04                	lw	x9,56(x8)
     ca0:	04090003          	lb	x0,64(x18)
     ca4:	0100                	addi	x8,x2,128
     ca6:	0200                	addi	x8,x2,256
     ca8:	5e04                	lw	x9,56(x12)
     caa:	0306                	slli	x6,x6,0x1
     cac:	0900                	addi	x8,x2,144
     cae:	0004                	0x4
     cb0:	0001                	nop
     cb2:	0402                	c.slli64	x8
     cb4:	035e                	slli	x6,x6,0x17
     cb6:	0900                	addi	x8,x2,144
     cb8:	0010                	0x10
     cba:	0001                	nop
     cbc:	0402                	c.slli64	x8
     cbe:	035e                	slli	x6,x6,0x17
     cc0:	0900                	addi	x8,x2,144
     cc2:	0000                	unimp
     cc4:	0001                	nop
     cc6:	0402                	c.slli64	x8
     cc8:	035e                	slli	x6,x6,0x17
     cca:	0900                	addi	x8,x2,144
     ccc:	0000                	unimp
     cce:	0001                	nop
     cd0:	0402                	c.slli64	x8
     cd2:	035e                	slli	x6,x6,0x17
     cd4:	0900                	addi	x8,x2,144
     cd6:	0000                	unimp
     cd8:	0001                	nop
     cda:	0402                	c.slli64	x8
     cdc:	035e                	slli	x6,x6,0x17
     cde:	0900                	addi	x8,x2,144
     ce0:	0004                	0x4
     ce2:	0001                	nop
     ce4:	0402                	c.slli64	x8
     ce6:	0360                	addi	x8,x2,396
     ce8:	0900                	addi	x8,x2,144
     cea:	0004                	0x4
     cec:	0001                	nop
     cee:	0402                	c.slli64	x8
     cf0:	0360                	addi	x8,x2,396
     cf2:	0900                	addi	x8,x2,144
     cf4:	0000                	unimp
     cf6:	0001                	nop
     cf8:	0402                	c.slli64	x8
     cfa:	0662                	slli	x12,x12,0x18
     cfc:	04090003          	lb	x0,64(x18)
     d00:	0100                	addi	x8,x2,128
     d02:	0200                	addi	x8,x2,256
     d04:	6304                	flw	f9,0(x14)
     d06:	0306                	slli	x6,x6,0x1
     d08:	0900                	addi	x8,x2,144
     d0a:	0004                	0x4
     d0c:	0001                	nop
     d0e:	0402                	c.slli64	x8
     d10:	0302                	c.slli64	x6
     d12:	0901                	addi	x18,x18,0
     d14:	0004                	0x4
     d16:	0001                	nop
     d18:	0402                	c.slli64	x8
     d1a:	0302                	c.slli64	x6
     d1c:	0900                	addi	x8,x2,144
     d1e:	0004                	0x4
     d20:	0001                	nop
     d22:	0402                	c.slli64	x8
     d24:	0306                	slli	x6,x6,0x1
     d26:	0900                	addi	x8,x2,144
     d28:	0004                	0x4
     d2a:	0001                	nop
     d2c:	0402                	c.slli64	x8
     d2e:	0306                	slli	x6,x6,0x1
     d30:	0900                	addi	x8,x2,144
     d32:	0000                	unimp
     d34:	0001                	nop
     d36:	0402                	c.slli64	x8
     d38:	0308                	addi	x10,x2,384
     d3a:	0900                	addi	x8,x2,144
     d3c:	0008                	0x8
     d3e:	0001                	nop
     d40:	0402                	c.slli64	x8
     d42:	0308                	addi	x10,x2,384
     d44:	0900                	addi	x8,x2,144
     d46:	0000                	unimp
     d48:	0001                	nop
     d4a:	0402                	c.slli64	x8
     d4c:	0308                	addi	x10,x2,384
     d4e:	0900                	addi	x8,x2,144
     d50:	0000                	unimp
     d52:	0001                	nop
     d54:	0402                	c.slli64	x8
     d56:	0308                	addi	x10,x2,384
     d58:	0900                	addi	x8,x2,144
     d5a:	0000                	unimp
     d5c:	0001                	nop
     d5e:	0402                	c.slli64	x8
     d60:	030a                	slli	x6,x6,0x2
     d62:	0900                	addi	x8,x2,144
     d64:	000c                	0xc
     d66:	0001                	nop
     d68:	0402                	c.slli64	x8
     d6a:	030a                	slli	x6,x6,0x2
     d6c:	0900                	addi	x8,x2,144
     d6e:	0000                	unimp
     d70:	0001                	nop
     d72:	0402                	c.slli64	x8
     d74:	030a                	slli	x6,x6,0x2
     d76:	0900                	addi	x8,x2,144
     d78:	0000                	unimp
     d7a:	0001                	nop
     d7c:	0402                	c.slli64	x8
     d7e:	030a                	slli	x6,x6,0x2
     d80:	0900                	addi	x8,x2,144
     d82:	0004                	0x4
     d84:	0001                	nop
     d86:	0402                	c.slli64	x8
     d88:	030a                	slli	x6,x6,0x2
     d8a:	0900                	addi	x8,x2,144
     d8c:	0008                	0x8
     d8e:	0001                	nop
     d90:	0402                	c.slli64	x8
     d92:	0309                	addi	x6,x6,2
     d94:	0900                	addi	x8,x2,144
     d96:	0004                	0x4
     d98:	0001                	nop
     d9a:	0402                	c.slli64	x8
     d9c:	0309                	addi	x6,x6,2
     d9e:	0900                	addi	x8,x2,144
     da0:	0000                	unimp
     da2:	0001                	nop
     da4:	0402                	c.slli64	x8
     da6:	0318                	addi	x14,x2,384
     da8:	0900                	addi	x8,x2,144
     daa:	000c                	0xc
     dac:	0001                	nop
     dae:	0402                	c.slli64	x8
     db0:	0318                	addi	x14,x2,384
     db2:	0900                	addi	x8,x2,144
     db4:	000c                	0xc
     db6:	0001                	nop
     db8:	0402                	c.slli64	x8
     dba:	031a                	slli	x6,x6,0x6
     dbc:	0900                	addi	x8,x2,144
     dbe:	0004                	0x4
     dc0:	0001                	nop
     dc2:	0402                	c.slli64	x8
     dc4:	031a                	slli	x6,x6,0x6
     dc6:	0900                	addi	x8,x2,144
     dc8:	0000                	unimp
     dca:	0001                	nop
     dcc:	0402                	c.slli64	x8
     dce:	031a                	slli	x6,x6,0x6
     dd0:	0900                	addi	x8,x2,144
     dd2:	0000                	unimp
     dd4:	0001                	nop
     dd6:	0402                	c.slli64	x8
     dd8:	031a                	slli	x6,x6,0x6
     dda:	0900                	addi	x8,x2,144
     ddc:	0000                	unimp
     dde:	0601                	addi	x12,x12,0
     de0:	08090003          	lb	x0,128(x18)
     de4:	0100                	addi	x8,x2,128
     de6:	0200                	addi	x8,x2,256
     de8:	7704                	flw	f9,40(x14)
     dea:	0306                	slli	x6,x6,0x1
     dec:	0900                	addi	x8,x2,144
     dee:	0010                	0x10
     df0:	0001                	nop
     df2:	0402                	c.slli64	x8
     df4:	09000377          	0x9000377
     df8:	0000                	unimp
     dfa:	0001                	nop
     dfc:	0402                	c.slli64	x8
     dfe:	09000377          	0x9000377
     e02:	0000                	unimp
     e04:	0001                	nop
     e06:	0402                	c.slli64	x8
     e08:	09000377          	0x9000377
     e0c:	0000                	unimp
     e0e:	0001                	nop
     e10:	0402                	c.slli64	x8
     e12:	09000377          	0x9000377
     e16:	0000                	unimp
     e18:	0001                	nop
     e1a:	0402                	c.slli64	x8
     e1c:	09000377          	0x9000377
     e20:	0000                	unimp
     e22:	0001                	nop
     e24:	0402                	c.slli64	x8
     e26:	09000377          	0x9000377
     e2a:	0000                	unimp
     e2c:	0001                	nop
     e2e:	0402                	c.slli64	x8
     e30:	09000377          	0x9000377
     e34:	0000                	unimp
     e36:	0501                	addi	x10,x10,0
     e38:	0001                	nop
     e3a:	0402                	c.slli64	x8
     e3c:	04030677          	0x4030677
     e40:	0c09                	addi	x24,x24,2
     e42:	0100                	addi	x8,x2,128
     e44:	0305                	addi	x6,x6,1
     e46:	0200                	addi	x8,x2,256
     e48:	7704                	flw	f9,40(x14)
     e4a:	08097c03          	0x8097c03
     e4e:	0100                	addi	x8,x2,128
     e50:	0200                	addi	x8,x2,256
     e52:	7704                	flw	f9,40(x14)
     e54:	0306                	slli	x6,x6,0x1
     e56:	0900                	addi	x8,x2,144
     e58:	0014                	0x14
     e5a:	0001                	nop
     e5c:	0402                	c.slli64	x8
     e5e:	09000377          	0x9000377
     e62:	0000                	unimp
     e64:	0001                	nop
     e66:	0402                	c.slli64	x8
     e68:	09010377          	0x9010377
     e6c:	0000                	unimp
     e6e:	0001                	nop
     e70:	0402                	c.slli64	x8
     e72:	09000377          	0x9000377
     e76:	0000                	unimp
     e78:	0001                	nop
     e7a:	0402                	c.slli64	x8
     e7c:	09000377          	0x9000377
     e80:	0000                	unimp
     e82:	0001                	nop
     e84:	0402                	c.slli64	x8
     e86:	09020377          	0x9020377
     e8a:	0000                	unimp
     e8c:	0501                	addi	x10,x10,0
     e8e:	0001                	nop
     e90:	0402                	c.slli64	x8
     e92:	01030677          	0x1030677
     e96:	0009                	c.nop	2
     e98:	0100                	addi	x8,x2,128
     e9a:	0305                	addi	x6,x6,1
     e9c:	0200                	addi	x8,x2,256
     e9e:	0f04                	addi	x9,x2,912
     ea0:	0306                	slli	x6,x6,0x1
     ea2:	003c097b          	0x3c097b
     ea6:	0001                	nop
     ea8:	0402                	c.slli64	x8
     eaa:	0900030f          	0x900030f
     eae:	0004                	0x4
     eb0:	0001                	nop
     eb2:	0402                	c.slli64	x8
     eb4:	0900030f          	0x900030f
     eb8:	0000                	unimp
     eba:	0001                	nop
     ebc:	0402                	c.slli64	x8
     ebe:	0900030f          	0x900030f
     ec2:	0000                	unimp
     ec4:	0001                	nop
     ec6:	0402                	c.slli64	x8
     ec8:	0608                	addi	x10,x2,768
     eca:	08097e03          	0x8097e03
     ece:	0100                	addi	x8,x2,128
     ed0:	0200                	addi	x8,x2,256
     ed2:	0804                	addi	x9,x2,16
     ed4:	0306                	slli	x6,x6,0x1
     ed6:	0902                	c.slli64	x18
     ed8:	0004                	0x4
     eda:	0001                	nop
     edc:	0402                	c.slli64	x8
     ede:	0308                	addi	x10,x2,384
     ee0:	0900                	addi	x8,x2,144
     ee2:	0000                	unimp
     ee4:	0001                	nop
     ee6:	0402                	c.slli64	x8
     ee8:	0308                	addi	x10,x2,384
     eea:	0900                	addi	x8,x2,144
     eec:	0000                	unimp
     eee:	0001                	nop
     ef0:	0402                	c.slli64	x8
     ef2:	0308                	addi	x10,x2,384
     ef4:	0900                	addi	x8,x2,144
     ef6:	0000                	unimp
     ef8:	0001                	nop
     efa:	0402                	c.slli64	x8
     efc:	036c                	addi	x11,x2,396
     efe:	0900                	addi	x8,x2,144
     f00:	000c                	0xc
     f02:	0001                	nop
     f04:	0402                	c.slli64	x8
     f06:	036c                	addi	x11,x2,396
     f08:	0901                	addi	x18,x18,0
     f0a:	0000                	unimp
     f0c:	0001                	nop
     f0e:	0402                	c.slli64	x8
     f10:	036c                	addi	x11,x2,396
     f12:	0900                	addi	x8,x2,144
     f14:	0000                	unimp
     f16:	0001                	nop
     f18:	0402                	c.slli64	x8
     f1a:	036c                	addi	x11,x2,396
     f1c:	0900                	addi	x8,x2,144
     f1e:	0000                	unimp
     f20:	0601                	addi	x12,x12,0
     f22:	08090003          	lb	x0,128(x18)
     f26:	0100                	addi	x8,x2,128
     f28:	0200                	addi	x8,x2,256
     f2a:	0504                	addi	x9,x2,640
     f2c:	20097e03          	0x20097e03
     f30:	0100                	addi	x8,x2,128
     f32:	0200                	addi	x8,x2,256
     f34:	0504                	addi	x9,x2,640
     f36:	0306                	slli	x6,x6,0x1
     f38:	0901                	addi	x18,x18,0
     f3a:	0004                	0x4
     f3c:	0001                	nop
     f3e:	0402                	c.slli64	x8
     f40:	0305                	addi	x6,x6,1
     f42:	0900                	addi	x8,x2,144
     f44:	0000                	unimp
     f46:	0001                	nop
     f48:	0402                	c.slli64	x8
     f4a:	0305                	addi	x6,x6,1
     f4c:	0900                	addi	x8,x2,144
     f4e:	0000                	unimp
     f50:	0001                	nop
     f52:	0402                	c.slli64	x8
     f54:	0305                	addi	x6,x6,1
     f56:	0900                	addi	x8,x2,144
     f58:	0000                	unimp
     f5a:	0601                	addi	x12,x12,0
     f5c:	04090003          	lb	x0,64(x18)
     f60:	0100                	addi	x8,x2,128
     f62:	0200                	addi	x8,x2,256
     f64:	3b04                	fld	f9,48(x14)
     f66:	0306                	slli	x6,x6,0x1
     f68:	0901                	addi	x18,x18,0
     f6a:	0014                	0x14
     f6c:	0001                	nop
     f6e:	0402                	c.slli64	x8
     f70:	0900033b          	0x900033b
     f74:	0000                	unimp
     f76:	0001                	nop
     f78:	0402                	c.slli64	x8
     f7a:	0900033b          	0x900033b
     f7e:	0000                	unimp
     f80:	0001                	nop
     f82:	0402                	c.slli64	x8
     f84:	0900033b          	0x900033b
     f88:	0008                	0x8
     f8a:	0001                	nop
     f8c:	0402                	c.slli64	x8
     f8e:	033c                	addi	x15,x2,392
     f90:	0900                	addi	x8,x2,144
     f92:	0008                	0x8
     f94:	0001                	nop
     f96:	0402                	c.slli64	x8
     f98:	033e                	slli	x6,x6,0xf
     f9a:	0900                	addi	x8,x2,144
     f9c:	0008                	0x8
     f9e:	0001                	nop
     fa0:	0402                	c.slli64	x8
     fa2:	033e                	slli	x6,x6,0xf
     fa4:	0900                	addi	x8,x2,144
     fa6:	001c                	0x1c
     fa8:	0001                	nop
     faa:	0402                	c.slli64	x8
     fac:	0900034b          	fnmsub.s	f6,f0,f16,f1,rne
     fb0:	0004                	0x4
     fb2:	0001                	nop
     fb4:	0402                	c.slli64	x8
     fb6:	0900034b          	fnmsub.s	f6,f0,f16,f1,rne
     fba:	0000                	unimp
     fbc:	0001                	nop
     fbe:	0402                	c.slli64	x8
     fc0:	034c                	addi	x11,x2,388
     fc2:	0900                	addi	x8,x2,144
     fc4:	0008                	0x8
     fc6:	0001                	nop
     fc8:	0402                	c.slli64	x8
     fca:	034c                	addi	x11,x2,388
     fcc:	0900                	addi	x8,x2,144
     fce:	0000                	unimp
     fd0:	0001                	nop
     fd2:	0402                	c.slli64	x8
     fd4:	034c                	addi	x11,x2,388
     fd6:	0900                	addi	x8,x2,144
     fd8:	0000                	unimp
     fda:	0001                	nop
     fdc:	0402                	c.slli64	x8
     fde:	034c                	addi	x11,x2,388
     fe0:	0900                	addi	x8,x2,144
     fe2:	0000                	unimp
     fe4:	0001                	nop
     fe6:	0402                	c.slli64	x8
     fe8:	034e                	slli	x6,x6,0x13
     fea:	0900                	addi	x8,x2,144
     fec:	000c                	0xc
     fee:	0001                	nop
     ff0:	0402                	c.slli64	x8
     ff2:	034e                	slli	x6,x6,0x13
     ff4:	0900                	addi	x8,x2,144
     ff6:	0000                	unimp
     ff8:	0001                	nop
     ffa:	0402                	c.slli64	x8
     ffc:	034e                	slli	x6,x6,0x13
     ffe:	0900                	addi	x8,x2,144
    1000:	0000                	unimp
    1002:	0001                	nop
    1004:	0402                	c.slli64	x8
    1006:	034e                	slli	x6,x6,0x13
    1008:	0900                	addi	x8,x2,144
    100a:	0004                	0x4
    100c:	0001                	nop
    100e:	0402                	c.slli64	x8
    1010:	034e                	slli	x6,x6,0x13
    1012:	0900                	addi	x8,x2,144
    1014:	0008                	0x8
    1016:	0001                	nop
    1018:	0402                	c.slli64	x8
    101a:	034d                	addi	x6,x6,19
    101c:	0900                	addi	x8,x2,144
    101e:	0004                	0x4
    1020:	0001                	nop
    1022:	0402                	c.slli64	x8
    1024:	034d                	addi	x6,x6,19
    1026:	0900                	addi	x8,x2,144
    1028:	0000                	unimp
    102a:	0001                	nop
    102c:	0402                	c.slli64	x8
    102e:	035d                	addi	x6,x6,23
    1030:	0900                	addi	x8,x2,144
    1032:	000c                	0xc
    1034:	0001                	nop
    1036:	0402                	c.slli64	x8
    1038:	035d                	addi	x6,x6,23
    103a:	0900                	addi	x8,x2,144
    103c:	0000                	unimp
    103e:	0001                	nop
    1040:	0402                	c.slli64	x8
    1042:	035d                	addi	x6,x6,23
    1044:	0900                	addi	x8,x2,144
    1046:	0000                	unimp
    1048:	0001                	nop
    104a:	0402                	c.slli64	x8
    104c:	035d                	addi	x6,x6,23
    104e:	0900                	addi	x8,x2,144
    1050:	000c                	0xc
    1052:	0601                	addi	x12,x12,0
    1054:	04090003          	lb	x0,64(x18)
    1058:	0100                	addi	x8,x2,128
    105a:	0200                	addi	x8,x2,256
    105c:	3f04                	fld	f9,56(x14)
    105e:	0306                	slli	x6,x6,0x1
    1060:	0900                	addi	x8,x2,144
    1062:	0008                	0x8
    1064:	0001                	nop
    1066:	0402                	c.slli64	x8
    1068:	00030647          	fmsub.s	f12,f6,f0,f0,rne
    106c:	1809                	addi	x16,x16,-30
    106e:	0100                	addi	x8,x2,128
    1070:	0200                	addi	x8,x2,256
    1072:	4a04                	lw	x9,16(x12)
    1074:	08090003          	lb	x0,128(x18)
    1078:	0100                	addi	x8,x2,128
    107a:	0200                	addi	x8,x2,256
    107c:	4a04                	lw	x9,16(x12)
    107e:	0306                	slli	x6,x6,0x1
    1080:	0900                	addi	x8,x2,144
    1082:	000c                	0xc
    1084:	0601                	addi	x12,x12,0
    1086:	08090003          	lb	x0,128(x18)
    108a:	0100                	addi	x8,x2,128
    108c:	30097f03          	0x30097f03
    1090:	0100                	addi	x8,x2,128
    1092:	0306                	slli	x6,x6,0x1
    1094:	0900                	addi	x8,x2,144
    1096:	0004                	0x4
    1098:	0301                	addi	x6,x6,0
    109a:	0900                	addi	x8,x2,144
    109c:	0000                	unimp
    109e:	0901                	addi	x18,x18,0
    10a0:	0008                	0x8
    10a2:	0100                	addi	x8,x2,128
    10a4:	                	beqz	x8,fbc <.L49+0x4>

000010a5 <.Ldebug_line0>:
    10a5:	02dc                	addi	x15,x2,324
    10a7:	0000                	unimp
    10a9:	00620003          	lb	x0,6(x4) # 1d006 <.L119+0x18362>
    10ad:	0000                	unimp
    10af:	0101                	addi	x2,x2,0
    10b1:	000d0efb          	0xd0efb
    10b5:	0101                	addi	x2,x2,0
    10b7:	0101                	addi	x2,x2,0
    10b9:	0000                	unimp
    10bb:	0100                	addi	x8,x2,128
    10bd:	0000                	unimp
    10bf:	2e01                	jal	13cf <.LLST0+0x28>
    10c1:	2f2e                	fld	f30,200(x2)
    10c3:	2e2e                	fld	f28,200(x2)
    10c5:	2f2e2e2f          	0x2f2e2e2f
    10c9:	2e2e                	fld	f28,200(x2)
    10cb:	7369722f          	0x7369722f
    10cf:	672d7663          	bgeu	x26,x18,173b <.L103+0x7>
    10d3:	6c2f6363          	bltu	x30,x2,1799 <.L81+0x5>
    10d7:	6269                	lui	x4,0x1a
    10d9:	2f636367          	0x2f636367
    10dd:	74666f73          	csrrsi	x30,0x746,12
    10e1:	662d                	lui	x12,0xb
    10e3:	0070                	addi	x12,x2,12
    10e5:	002e                	c.slli	x0,0xb
    10e7:	6700                	flw	f8,8(x14)
    10e9:	6465                	lui	x8,0x19
    10eb:	3266                	fld	f4,120(x2)
    10ed:	632e                	flw	f6,200(x2)
    10ef:	0100                	addi	x8,x2,128
    10f1:	0000                	unimp
    10f3:	2d706673          	csrrsi	x12,0x2d7,0
    10f7:	616d                	addi	x2,x2,240
    10f9:	6e696863          	bltu	x18,x6,17e9 <core_bench_state+0x49>
    10fd:	2e65                	jal	14b5 <.LLST0+0x27>
    10ff:	0068                	addi	x10,x2,12
    1101:	0002                	c.slli64	x0
    1103:	6400                	flw	f8,8(x8)
    1105:	6c62756f          	jal	x10,287cb <.L119+0x23b27>
    1109:	2e65                	jal	14c1 <.LLST0+0x33>
    110b:	0068                	addi	x10,x2,12
    110d:	0001                	nop
    110f:	0000                	unimp
    1111:	0105                	addi	x2,x2,1
    1113:	0500                	addi	x8,x2,640
    1115:	9402                	jalr	x8
    1117:	003d                	c.nop	15
    1119:	0300                	addi	x8,x2,384
    111b:	03050123          	sb	x16,34(x10)
    111f:	00090103          	lb	x2,0(x18)
    1123:	0100                	addi	x8,x2,128
    1125:	00090003          	lb	x0,0(x18)
    1129:	0100                	addi	x8,x2,128
    112b:	0d05                	addi	x26,x26,1
    112d:	00090003          	lb	x0,0(x18)
    1131:	0100                	addi	x8,x2,128
    1133:	0305                	addi	x6,x6,1
    1135:	00090103          	lb	x2,0(x18)
    1139:	0100                	addi	x8,x2,128
    113b:	00090003          	lb	x0,0(x18)
    113f:	0100                	addi	x8,x2,128
    1141:	00090003          	lb	x0,0(x18)
    1145:	0100                	addi	x8,x2,128
    1147:	00090003          	lb	x0,0(x18)
    114b:	0100                	addi	x8,x2,128
    114d:	00090103          	lb	x2,0(x18)
    1151:	0100                	addi	x8,x2,128
    1153:	00090003          	lb	x0,0(x18)
    1157:	0100                	addi	x8,x2,128
    1159:	00090003          	lb	x0,0(x18)
    115d:	0100                	addi	x8,x2,128
    115f:	00090003          	lb	x0,0(x18)
    1163:	0100                	addi	x8,x2,128
    1165:	00090103          	lb	x2,0(x18)
    1169:	0100                	addi	x8,x2,128
    116b:	00090203          	lb	x4,0(x18)
    116f:	0100                	addi	x8,x2,128
    1171:	00090103          	lb	x2,0(x18)
    1175:	0100                	addi	x8,x2,128
    1177:	00090003          	lb	x0,0(x18)
    117b:	0100                	addi	x8,x2,128
    117d:	00090003          	lb	x0,0(x18)
    1181:	0100                	addi	x8,x2,128
    1183:	00090003          	lb	x0,0(x18)
    1187:	0100                	addi	x8,x2,128
    1189:	0105                	addi	x2,x2,1
    118b:	0306                	slli	x6,x6,0x1
    118d:	0979                	addi	x18,x18,30
    118f:	0010                	0x10
    1191:	0501                	addi	x10,x10,0
    1193:	07030603          	lb	x12,112(x6) # 9000070 <seed1_volatile+0x8fbf9b0>
    1197:	0809                	addi	x16,x16,2
    1199:	0100                	addi	x8,x2,128
    119b:	00090003          	lb	x0,0(x18)
    119f:	0100                	addi	x8,x2,128
    11a1:	04090003          	lb	x0,64(x18)
    11a5:	0100                	addi	x8,x2,128
    11a7:	04090003          	lb	x0,64(x18)
    11ab:	0100                	addi	x8,x2,128
    11ad:	00090103          	lb	x2,0(x18)
    11b1:	0100                	addi	x8,x2,128
    11b3:	00090003          	lb	x0,0(x18)
    11b7:	0100                	addi	x8,x2,128
    11b9:	00090003          	lb	x0,0(x18)
    11bd:	0100                	addi	x8,x2,128
    11bf:	00090003          	lb	x0,0(x18)
    11c3:	0100                	addi	x8,x2,128
    11c5:	0306                	slli	x6,x6,0x1
    11c7:	0901                	addi	x18,x18,0
    11c9:	0000                	unimp
    11cb:	0301                	addi	x6,x6,0
    11cd:	097f                	0x97f
    11cf:	0004                	0x4
    11d1:	0601                	addi	x12,x12,0
    11d3:	0c090003          	lb	x0,192(x18)
    11d7:	0100                	addi	x8,x2,128
    11d9:	00090003          	lb	x0,0(x18)
    11dd:	0100                	addi	x8,x2,128
    11df:	04090003          	lb	x0,64(x18)
    11e3:	0100                	addi	x8,x2,128
    11e5:	04090003          	lb	x0,64(x18)
    11e9:	0100                	addi	x8,x2,128
    11eb:	00090103          	lb	x2,0(x18)
    11ef:	0100                	addi	x8,x2,128
    11f1:	00090003          	lb	x0,0(x18)
    11f5:	0100                	addi	x8,x2,128
    11f7:	00090003          	lb	x0,0(x18)
    11fb:	0100                	addi	x8,x2,128
    11fd:	00090003          	lb	x0,0(x18)
    1201:	0100                	addi	x8,x2,128
    1203:	00090003          	lb	x0,0(x18)
    1207:	0100                	addi	x8,x2,128
    1209:	0200                	addi	x8,x2,256
    120b:	1404                	addi	x9,x2,544
    120d:	0306                	slli	x6,x6,0x1
    120f:	0900                	addi	x8,x2,144
    1211:	0004                	0x4
    1213:	0301                	addi	x6,x6,0
    1215:	0900                	addi	x8,x2,144
    1217:	0008                	0x8
    1219:	0001                	nop
    121b:	0402                	c.slli64	x8
    121d:	09000317          	auipc	x6,0x9000
    1221:	0008                	0x8
    1223:	0001                	nop
    1225:	0402                	c.slli64	x8
    1227:	0318                	addi	x14,x2,384
    1229:	0900                	addi	x8,x2,144
    122b:	0004                	0x4
    122d:	0001                	nop
    122f:	0402                	c.slli64	x8
    1231:	063e                	slli	x12,x12,0xf
    1233:	08090003          	lb	x0,128(x18)
    1237:	0100                	addi	x8,x2,128
    1239:	0200                	addi	x8,x2,256
    123b:	3e04                	fld	f9,56(x12)
    123d:	00090003          	lb	x0,0(x18)
    1241:	0100                	addi	x8,x2,128
    1243:	0200                	addi	x8,x2,256
    1245:	3e04                	fld	f9,56(x12)
    1247:	00090003          	lb	x0,0(x18)
    124b:	0100                	addi	x8,x2,128
    124d:	0200                	addi	x8,x2,256
    124f:	3e04                	fld	f9,56(x12)
    1251:	00090003          	lb	x0,0(x18)
    1255:	0100                	addi	x8,x2,128
    1257:	0200                	addi	x8,x2,256
    1259:	3e04                	fld	f9,56(x12)
    125b:	00090003          	lb	x0,0(x18)
    125f:	0100                	addi	x8,x2,128
    1261:	0200                	addi	x8,x2,256
    1263:	3e04                	fld	f9,56(x12)
    1265:	00090003          	lb	x0,0(x18)
    1269:	0100                	addi	x8,x2,128
    126b:	0200                	addi	x8,x2,256
    126d:	3e04                	fld	f9,56(x12)
    126f:	00090003          	lb	x0,0(x18)
    1273:	0100                	addi	x8,x2,128
    1275:	0200                	addi	x8,x2,256
    1277:	3e04                	fld	f9,56(x12)
    1279:	00090003          	lb	x0,0(x18)
    127d:	0100                	addi	x8,x2,128
    127f:	0200                	addi	x8,x2,256
    1281:	3e04                	fld	f9,56(x12)
    1283:	00090003          	lb	x0,0(x18)
    1287:	0100                	addi	x8,x2,128
    1289:	0200                	addi	x8,x2,256
    128b:	3e04                	fld	f9,56(x12)
    128d:	00090003          	lb	x0,0(x18)
    1291:	0100                	addi	x8,x2,128
    1293:	0200                	addi	x8,x2,256
    1295:	3e04                	fld	f9,56(x12)
    1297:	00090003          	lb	x0,0(x18)
    129b:	0100                	addi	x8,x2,128
    129d:	0200                	addi	x8,x2,256
    129f:	3e04                	fld	f9,56(x12)
    12a1:	00090003          	lb	x0,0(x18)
    12a5:	0100                	addi	x8,x2,128
    12a7:	0200                	addi	x8,x2,256
    12a9:	3f04                	fld	f9,56(x14)
    12ab:	0306                	slli	x6,x6,0x1
    12ad:	0900                	addi	x8,x2,144
    12af:	0004                	0x4
    12b1:	0001                	nop
    12b3:	0402                	c.slli64	x8
    12b5:	0003063f 01000809 	0x10008090003063f
    12bd:	0200                	addi	x8,x2,256
    12bf:	4504                	lw	x9,8(x10)
    12c1:	0306                	slli	x6,x6,0x1
    12c3:	0900                	addi	x8,x2,144
    12c5:	0004                	0x4
    12c7:	0601                	addi	x12,x12,0
    12c9:	08090003          	lb	x0,128(x18)
    12cd:	0100                	addi	x8,x2,128
    12cf:	04090003          	lb	x0,64(x18)
    12d3:	0100                	addi	x8,x2,128
    12d5:	00090003          	lb	x0,0(x18)
    12d9:	0100                	addi	x8,x2,128
    12db:	00090003          	lb	x0,0(x18)
    12df:	0100                	addi	x8,x2,128
    12e1:	0200                	addi	x8,x2,256
    12e3:	5f04                	lw	x9,56(x14)
    12e5:	04090003          	lb	x0,64(x18)
    12e9:	0100                	addi	x8,x2,128
    12eb:	0200                	addi	x8,x2,256
    12ed:	7704                	flw	f9,40(x14)
    12ef:	04090003          	lb	x0,64(x18)
    12f3:	0100                	addi	x8,x2,128
    12f5:	0306                	slli	x6,x6,0x1
    12f7:	0900                	addi	x8,x2,144
    12f9:	0004                	0x4
    12fb:	0001                	nop
    12fd:	0402                	c.slli64	x8
    12ff:	0650                	addi	x12,x2,772
    1301:	08090003          	lb	x0,128(x18)
    1305:	0100                	addi	x8,x2,128
    1307:	0200                	addi	x8,x2,256
    1309:	5004                	lw	x9,32(x8)
    130b:	00090003          	lb	x0,0(x18)
    130f:	0100                	addi	x8,x2,128
    1311:	0306                	slli	x6,x6,0x1
    1313:	0900                	addi	x8,x2,144
    1315:	0008                	0x8
    1317:	0001                	nop
    1319:	0402                	c.slli64	x8
    131b:	0666                	slli	x12,x12,0x19
    131d:	08090003          	lb	x0,128(x18)
    1321:	0100                	addi	x8,x2,128
    1323:	0300                	addi	x8,x2,384
    1325:	8204                	0x8204
    1327:	0301                	addi	x6,x6,0
    1329:	0900                	addi	x8,x2,144
    132b:	0004                	0x4
    132d:	0501                	addi	x10,x10,0
    132f:	0601                	addi	x12,x12,0
    1331:	04090403          	lb	x8,64(x18)
    1335:	0100                	addi	x8,x2,128
    1337:	0305                	addi	x6,x6,1
    1339:	0200                	addi	x8,x2,256
    133b:	6d04                	flw	f9,24(x10)
    133d:	0306                	slli	x6,x6,0x1
    133f:	097c                	addi	x15,x2,156
    1341:	0004                	0x4
    1343:	0001                	nop
    1345:	0402                	c.slli64	x8
    1347:	0674                	addi	x13,x2,780
    1349:	04090003          	lb	x0,64(x18)
    134d:	0100                	addi	x8,x2,128
    134f:	0200                	addi	x8,x2,256
    1351:	7504                	flw	f9,40(x10)
    1353:	04090003          	lb	x0,64(x18)
    1357:	0100                	addi	x8,x2,128
    1359:	0300                	addi	x8,x2,384
    135b:	8004                	0x8004
    135d:	0601                	addi	x12,x12,0
    135f:	04090003          	lb	x0,64(x18)
    1363:	0100                	addi	x8,x2,128
    1365:	0306                	slli	x6,x6,0x1
    1367:	0900                	addi	x8,x2,144
    1369:	0004                	0x4
    136b:	0601                	addi	x12,x12,0
    136d:	10090003          	lb	x0,256(x18)
    1371:	0100                	addi	x8,x2,128
    1373:	08090003          	lb	x0,128(x18)
    1377:	0100                	addi	x8,x2,128
    1379:	0c090003          	lb	x0,192(x18)
    137d:	0100                	addi	x8,x2,128
    137f:	0c09                	addi	x24,x24,2
    1381:	0000                	unimp
    1383:	0101                	addi	x2,x2,0

00001385 <.Ldebug_line0>:
    1385:	02dc                	addi	x15,x2,324
    1387:	0000                	unimp
    1389:	00620003          	lb	x0,6(x4) # 1a006 <.L119+0x15362>
    138d:	0000                	unimp
    138f:	0101                	addi	x2,x2,0
    1391:	000d0efb          	0xd0efb
    1395:	0101                	addi	x2,x2,0
    1397:	0101                	addi	x2,x2,0
    1399:	0000                	unimp
    139b:	0100                	addi	x8,x2,128
    139d:	0000                	unimp
    139f:	2e01                	jal	16af <.L105+0x37>
    13a1:	2f2e                	fld	f30,200(x2)
    13a3:	2e2e                	fld	f28,200(x2)
    13a5:	2f2e2e2f          	0x2f2e2e2f
    13a9:	2e2e                	fld	f28,200(x2)
    13ab:	7369722f          	0x7369722f
    13af:	672d7663          	bgeu	x26,x18,1a1b <.L2+0x37>
    13b3:	6c2f6363          	bltu	x30,x2,1a79 <.L7+0xd>
    13b7:	6269                	lui	x4,0x1a
    13b9:	2f636367          	0x2f636367
    13bd:	74666f73          	csrrsi	x30,0x746,12
    13c1:	662d                	lui	x12,0xb
    13c3:	0070                	addi	x12,x2,12
    13c5:	002e                	c.slli	x0,0xb
    13c7:	6c00                	flw	f8,24(x8)
    13c9:	6465                	lui	x8,0x19
    13cb:	3266                	fld	f4,120(x2)
    13cd:	632e                	flw	f6,200(x2)
    13cf:	0100                	addi	x8,x2,128
    13d1:	0000                	unimp
    13d3:	2d706673          	csrrsi	x12,0x2d7,0
    13d7:	616d                	addi	x2,x2,240
    13d9:	6e696863          	bltu	x18,x6,1ac9 <.L11+0x1>
    13dd:	2e65                	jal	1795 <.L81+0x1>
    13df:	0068                	addi	x10,x2,12
    13e1:	0002                	c.slli64	x0
    13e3:	6400                	flw	f8,8(x8)
    13e5:	6c62756f          	jal	x10,28aab <.L119+0x23e07>
    13e9:	2e65                	jal	17a1 <core_bench_state+0x1>
    13eb:	0068                	addi	x10,x2,12
    13ed:	0001                	nop
    13ef:	0000                	unimp
    13f1:	0105                	addi	x2,x2,1
    13f3:	0500                	addi	x8,x2,640
    13f5:	7802                	flw	f16,32(x2)
    13f7:	003e                	c.slli	x0,0xf
    13f9:	0300                	addi	x8,x2,384
    13fb:	03050123          	sb	x16,34(x10)
    13ff:	00090103          	lb	x2,0(x18)
    1403:	0100                	addi	x8,x2,128
    1405:	00090003          	lb	x0,0(x18)
    1409:	0100                	addi	x8,x2,128
    140b:	0d05                	addi	x26,x26,1
    140d:	00090003          	lb	x0,0(x18)
    1411:	0100                	addi	x8,x2,128
    1413:	0305                	addi	x6,x6,1
    1415:	00090103          	lb	x2,0(x18)
    1419:	0100                	addi	x8,x2,128
    141b:	00090003          	lb	x0,0(x18)
    141f:	0100                	addi	x8,x2,128
    1421:	00090003          	lb	x0,0(x18)
    1425:	0100                	addi	x8,x2,128
    1427:	00090003          	lb	x0,0(x18)
    142b:	0100                	addi	x8,x2,128
    142d:	00090103          	lb	x2,0(x18)
    1431:	0100                	addi	x8,x2,128
    1433:	00090003          	lb	x0,0(x18)
    1437:	0100                	addi	x8,x2,128
    1439:	00090003          	lb	x0,0(x18)
    143d:	0100                	addi	x8,x2,128
    143f:	00090003          	lb	x0,0(x18)
    1443:	0100                	addi	x8,x2,128
    1445:	00090103          	lb	x2,0(x18)
    1449:	0100                	addi	x8,x2,128
    144b:	00090203          	lb	x4,0(x18)
    144f:	0100                	addi	x8,x2,128
    1451:	00090103          	lb	x2,0(x18)
    1455:	0100                	addi	x8,x2,128
    1457:	00090003          	lb	x0,0(x18)
    145b:	0100                	addi	x8,x2,128
    145d:	00090003          	lb	x0,0(x18)
    1461:	0100                	addi	x8,x2,128
    1463:	00090003          	lb	x0,0(x18)
    1467:	0100                	addi	x8,x2,128
    1469:	0105                	addi	x2,x2,1
    146b:	0306                	slli	x6,x6,0x1
    146d:	0979                	addi	x18,x18,30
    146f:	0010                	0x10
    1471:	0501                	addi	x10,x10,0
    1473:	07030603          	lb	x12,112(x6) # 900128d <seed1_volatile+0x8fc0bcd>
    1477:	0809                	addi	x16,x16,2
    1479:	0100                	addi	x8,x2,128
    147b:	00090003          	lb	x0,0(x18)
    147f:	0100                	addi	x8,x2,128
    1481:	04090003          	lb	x0,64(x18)
    1485:	0100                	addi	x8,x2,128
    1487:	04090003          	lb	x0,64(x18)
    148b:	0100                	addi	x8,x2,128
    148d:	00090103          	lb	x2,0(x18)
    1491:	0100                	addi	x8,x2,128
    1493:	00090003          	lb	x0,0(x18)
    1497:	0100                	addi	x8,x2,128
    1499:	00090003          	lb	x0,0(x18)
    149d:	0100                	addi	x8,x2,128
    149f:	00090003          	lb	x0,0(x18)
    14a3:	0100                	addi	x8,x2,128
    14a5:	0306                	slli	x6,x6,0x1
    14a7:	0901                	addi	x18,x18,0
    14a9:	0000                	unimp
    14ab:	0301                	addi	x6,x6,0
    14ad:	097f                	0x97f
    14af:	0004                	0x4
    14b1:	0601                	addi	x12,x12,0
    14b3:	0c090003          	lb	x0,192(x18)
    14b7:	0100                	addi	x8,x2,128
    14b9:	00090003          	lb	x0,0(x18)
    14bd:	0100                	addi	x8,x2,128
    14bf:	04090003          	lb	x0,64(x18)
    14c3:	0100                	addi	x8,x2,128
    14c5:	04090003          	lb	x0,64(x18)
    14c9:	0100                	addi	x8,x2,128
    14cb:	00090103          	lb	x2,0(x18)
    14cf:	0100                	addi	x8,x2,128
    14d1:	00090003          	lb	x0,0(x18)
    14d5:	0100                	addi	x8,x2,128
    14d7:	00090003          	lb	x0,0(x18)
    14db:	0100                	addi	x8,x2,128
    14dd:	00090003          	lb	x0,0(x18)
    14e1:	0100                	addi	x8,x2,128
    14e3:	00090003          	lb	x0,0(x18)
    14e7:	0100                	addi	x8,x2,128
    14e9:	0200                	addi	x8,x2,256
    14eb:	1404                	addi	x9,x2,544
    14ed:	0306                	slli	x6,x6,0x1
    14ef:	0900                	addi	x8,x2,144
    14f1:	0004                	0x4
    14f3:	0301                	addi	x6,x6,0
    14f5:	0900                	addi	x8,x2,144
    14f7:	0008                	0x8
    14f9:	0001                	nop
    14fb:	0402                	c.slli64	x8
    14fd:	09000317          	auipc	x6,0x9000
    1501:	0008                	0x8
    1503:	0001                	nop
    1505:	0402                	c.slli64	x8
    1507:	0318                	addi	x14,x2,384
    1509:	0900                	addi	x8,x2,144
    150b:	0004                	0x4
    150d:	0001                	nop
    150f:	0402                	c.slli64	x8
    1511:	063e                	slli	x12,x12,0xf
    1513:	08090003          	lb	x0,128(x18)
    1517:	0100                	addi	x8,x2,128
    1519:	0200                	addi	x8,x2,256
    151b:	3e04                	fld	f9,56(x12)
    151d:	00090003          	lb	x0,0(x18)
    1521:	0100                	addi	x8,x2,128
    1523:	0200                	addi	x8,x2,256
    1525:	3e04                	fld	f9,56(x12)
    1527:	00090003          	lb	x0,0(x18)
    152b:	0100                	addi	x8,x2,128
    152d:	0200                	addi	x8,x2,256
    152f:	3e04                	fld	f9,56(x12)
    1531:	00090003          	lb	x0,0(x18)
    1535:	0100                	addi	x8,x2,128
    1537:	0200                	addi	x8,x2,256
    1539:	3e04                	fld	f9,56(x12)
    153b:	00090003          	lb	x0,0(x18)
    153f:	0100                	addi	x8,x2,128
    1541:	0200                	addi	x8,x2,256
    1543:	3e04                	fld	f9,56(x12)
    1545:	00090003          	lb	x0,0(x18)
    1549:	0100                	addi	x8,x2,128
    154b:	0200                	addi	x8,x2,256
    154d:	3e04                	fld	f9,56(x12)
    154f:	00090003          	lb	x0,0(x18)
    1553:	0100                	addi	x8,x2,128
    1555:	0200                	addi	x8,x2,256
    1557:	3e04                	fld	f9,56(x12)
    1559:	00090003          	lb	x0,0(x18)
    155d:	0100                	addi	x8,x2,128
    155f:	0200                	addi	x8,x2,256
    1561:	3e04                	fld	f9,56(x12)
    1563:	00090003          	lb	x0,0(x18)
    1567:	0100                	addi	x8,x2,128
    1569:	0200                	addi	x8,x2,256
    156b:	3e04                	fld	f9,56(x12)
    156d:	00090003          	lb	x0,0(x18)
    1571:	0100                	addi	x8,x2,128
    1573:	0200                	addi	x8,x2,256
    1575:	3e04                	fld	f9,56(x12)
    1577:	00090003          	lb	x0,0(x18)
    157b:	0100                	addi	x8,x2,128
    157d:	0200                	addi	x8,x2,256
    157f:	3e04                	fld	f9,56(x12)
    1581:	00090003          	lb	x0,0(x18)
    1585:	0100                	addi	x8,x2,128
    1587:	0200                	addi	x8,x2,256
    1589:	3f04                	fld	f9,56(x14)
    158b:	0306                	slli	x6,x6,0x1
    158d:	0900                	addi	x8,x2,144
    158f:	0004                	0x4
    1591:	0001                	nop
    1593:	0402                	c.slli64	x8
    1595:	0003063f 01000809 	0x10008090003063f
    159d:	0200                	addi	x8,x2,256
    159f:	4504                	lw	x9,8(x10)
    15a1:	0306                	slli	x6,x6,0x1
    15a3:	0900                	addi	x8,x2,144
    15a5:	0004                	0x4
    15a7:	0601                	addi	x12,x12,0
    15a9:	08090003          	lb	x0,128(x18)
    15ad:	0100                	addi	x8,x2,128
    15af:	04090003          	lb	x0,64(x18)
    15b3:	0100                	addi	x8,x2,128
    15b5:	00090003          	lb	x0,0(x18)
    15b9:	0100                	addi	x8,x2,128
    15bb:	00090003          	lb	x0,0(x18)
    15bf:	0100                	addi	x8,x2,128
    15c1:	0200                	addi	x8,x2,256
    15c3:	5f04                	lw	x9,56(x14)
    15c5:	04090003          	lb	x0,64(x18)
    15c9:	0100                	addi	x8,x2,128
    15cb:	0200                	addi	x8,x2,256
    15cd:	7704                	flw	f9,40(x14)
    15cf:	04090003          	lb	x0,64(x18)
    15d3:	0100                	addi	x8,x2,128
    15d5:	0306                	slli	x6,x6,0x1
    15d7:	0900                	addi	x8,x2,144
    15d9:	0004                	0x4
    15db:	0001                	nop
    15dd:	0402                	c.slli64	x8
    15df:	0650                	addi	x12,x2,772
    15e1:	08090003          	lb	x0,128(x18)
    15e5:	0100                	addi	x8,x2,128
    15e7:	0200                	addi	x8,x2,256
    15e9:	5004                	lw	x9,32(x8)
    15eb:	00090003          	lb	x0,0(x18)
    15ef:	0100                	addi	x8,x2,128
    15f1:	0306                	slli	x6,x6,0x1
    15f3:	0900                	addi	x8,x2,144
    15f5:	0008                	0x8
    15f7:	0001                	nop
    15f9:	0402                	c.slli64	x8
    15fb:	0666                	slli	x12,x12,0x19
    15fd:	08090003          	lb	x0,128(x18)
    1601:	0100                	addi	x8,x2,128
    1603:	0300                	addi	x8,x2,384
    1605:	8204                	0x8204
    1607:	0301                	addi	x6,x6,0
    1609:	0900                	addi	x8,x2,144
    160b:	0004                	0x4
    160d:	0501                	addi	x10,x10,0
    160f:	0601                	addi	x12,x12,0
    1611:	04090403          	lb	x8,64(x18)
    1615:	0100                	addi	x8,x2,128
    1617:	0305                	addi	x6,x6,1
    1619:	0200                	addi	x8,x2,256
    161b:	6d04                	flw	f9,24(x10)
    161d:	0306                	slli	x6,x6,0x1
    161f:	097c                	addi	x15,x2,156
    1621:	0004                	0x4
    1623:	0001                	nop
    1625:	0402                	c.slli64	x8
    1627:	0674                	addi	x13,x2,780
    1629:	04090003          	lb	x0,64(x18)
    162d:	0100                	addi	x8,x2,128
    162f:	0200                	addi	x8,x2,256
    1631:	7504                	flw	f9,40(x10)
    1633:	04090003          	lb	x0,64(x18)
    1637:	0100                	addi	x8,x2,128
    1639:	0300                	addi	x8,x2,384
    163b:	8004                	0x8004
    163d:	0601                	addi	x12,x12,0
    163f:	04090003          	lb	x0,64(x18)
    1643:	0100                	addi	x8,x2,128
    1645:	0306                	slli	x6,x6,0x1
    1647:	0900                	addi	x8,x2,144
    1649:	0004                	0x4
    164b:	0601                	addi	x12,x12,0
    164d:	10090003          	lb	x0,256(x18)
    1651:	0100                	addi	x8,x2,128
    1653:	08090003          	lb	x0,128(x18)
    1657:	0100                	addi	x8,x2,128
    1659:	0c090003          	lb	x0,192(x18)
    165d:	0100                	addi	x8,x2,128
    165f:	0c09                	addi	x24,x24,2
    1661:	0000                	unimp
    1663:	0101                	addi	x2,x2,0

00001665 <.Ldebug_line0>:
    1665:	019c                	addi	x15,x2,192
    1667:	0000                	unimp
    1669:	00610003          	lb	x0,6(x2)
    166d:	0000                	unimp
    166f:	0101                	addi	x2,x2,0
    1671:	000d0efb          	0xd0efb
    1675:	0101                	addi	x2,x2,0
    1677:	0101                	addi	x2,x2,0
    1679:	0000                	unimp
    167b:	0100                	addi	x8,x2,128
    167d:	0000                	unimp
    167f:	2e01                	jal	198f <.L107+0x7>
    1681:	2f2e                	fld	f30,200(x2)
    1683:	2e2e                	fld	f28,200(x2)
    1685:	2f2e2e2f          	0x2f2e2e2f
    1689:	2e2e                	fld	f28,200(x2)
    168b:	7369722f          	0x7369722f
    168f:	672d7663          	bgeu	x26,x18,1cfb <.L36+0x1b>
    1693:	6c2f6363          	bltu	x30,x2,1d59 <.Ldebug_line0+0xf>
    1697:	6269                	lui	x4,0x1a
    1699:	2f636367          	0x2f636367
    169d:	74666f73          	csrrsi	x30,0x746,12
    16a1:	662d                	lui	x12,0xb
    16a3:	0070                	addi	x12,x2,12
    16a5:	6600                	flw	f8,8(x12)
    16a7:	7869                	lui	x16,0xffffa
    16a9:	6e75                	lui	x28,0x1d
    16ab:	73666473          	csrrsi	x8,0x736,12
    16af:	2e69                	jal	1a49 <.L6+0x2d>
    16b1:	00010063          	beqz	x2,16b1 <.L105+0x39>
    16b5:	7300                	flw	f8,32(x14)
    16b7:	2d74666f          	jal	x12,4818d <seed1_volatile+0x7acd>
    16bb:	7066                	flw	f0,120(x2)
    16bd:	682e                	flw	f16,200(x2)
    16bf:	0100                	addi	x8,x2,128
    16c1:	0000                	unimp
    16c3:	6f64                	flw	f9,92(x14)
    16c5:	6275                	lui	x4,0x1d
    16c7:	656c                	flw	f11,76(x10)
    16c9:	682e                	flw	f16,200(x2)
    16cb:	0100                	addi	x8,x2,128
    16cd:	0000                	unimp
    16cf:	0500                	addi	x8,x2,640
    16d1:	0001                	nop
    16d3:	0205                	addi	x4,x4,1
    16d5:	3f5c                	fld	f15,184(x14)
    16d7:	0000                	unimp
    16d9:	05012303          	lw	x6,80(x2)
    16dd:	09010303          	lb	x6,144(x2)
    16e1:	0000                	unimp
    16e3:	0301                	addi	x6,x6,0
    16e5:	0900                	addi	x8,x2,144
    16e7:	0000                	unimp
    16e9:	0501                	addi	x10,x10,0
    16eb:	030d                	addi	x6,x6,3
    16ed:	0900                	addi	x8,x2,144
    16ef:	0000                	unimp
    16f1:	0501                	addi	x10,x10,0
    16f3:	09010303          	lb	x6,144(x2)
    16f7:	0000                	unimp
    16f9:	0301                	addi	x6,x6,0
    16fb:	0900                	addi	x8,x2,144
    16fd:	0000                	unimp
    16ff:	0301                	addi	x6,x6,0
    1701:	0900                	addi	x8,x2,144
    1703:	0000                	unimp
    1705:	0301                	addi	x6,x6,0
    1707:	0900                	addi	x8,x2,144
    1709:	0000                	unimp
    170b:	0301                	addi	x6,x6,0
    170d:	0901                	addi	x18,x18,0
    170f:	0000                	unimp
    1711:	0301                	addi	x6,x6,0
    1713:	0902                	c.slli64	x18
    1715:	0000                	unimp
    1717:	0301                	addi	x6,x6,0
    1719:	0901                	addi	x18,x18,0
    171b:	0000                	unimp
    171d:	0301                	addi	x6,x6,0
    171f:	0900                	addi	x8,x2,144
    1721:	0000                	unimp
    1723:	0301                	addi	x6,x6,0
    1725:	0900                	addi	x8,x2,144
    1727:	0000                	unimp
    1729:	0301                	addi	x6,x6,0
    172b:	0900                	addi	x8,x2,144
    172d:	0000                	unimp
    172f:	0601                	addi	x12,x12,0
    1731:	10090103          	lb	x2,256(x18)
    1735:	0100                	addi	x8,x2,128
    1737:	04097f03          	0x4097f03
    173b:	0100                	addi	x8,x2,128
    173d:	0105                	addi	x2,x2,1
    173f:	04097a03          	0x4097a03
    1743:	0100                	addi	x8,x2,128
    1745:	0305                	addi	x6,x6,1
    1747:	0306                	slli	x6,x6,0x1
    1749:	0906                	slli	x18,x18,0x1
    174b:	0004                	0x4
    174d:	0301                	addi	x6,x6,0
    174f:	0900                	addi	x8,x2,144
    1751:	0000                	unimp
    1753:	0301                	addi	x6,x6,0
    1755:	0900                	addi	x8,x2,144
    1757:	0000                	unimp
    1759:	0301                	addi	x6,x6,0
    175b:	0900                	addi	x8,x2,144
    175d:	0004                	0x4
    175f:	0301                	addi	x6,x6,0
    1761:	0901                	addi	x18,x18,0
    1763:	0000                	unimp
    1765:	0301                	addi	x6,x6,0
    1767:	0900                	addi	x8,x2,144
    1769:	0000                	unimp
    176b:	0001                	nop
    176d:	0402                	c.slli64	x8
    176f:	030a                	slli	x6,x6,0x2
    1771:	0900                	addi	x8,x2,144
    1773:	0004                	0x4
    1775:	0001                	nop
    1777:	0402                	c.slli64	x8
    1779:	030a                	slli	x6,x6,0x2
    177b:	0900                	addi	x8,x2,144
    177d:	0000                	unimp
    177f:	0001                	nop
    1781:	0402                	c.slli64	x8
    1783:	0611                	addi	x12,x12,4
    1785:	10090003          	lb	x0,256(x18)
    1789:	0100                	addi	x8,x2,128
    178b:	0200                	addi	x8,x2,256
    178d:	1304                	addi	x9,x2,416
    178f:	0306                	slli	x6,x6,0x1
    1791:	0900                	addi	x8,x2,144
    1793:	0008                	0x8
    1795:	0001                	nop
    1797:	0402                	c.slli64	x8
    1799:	09000313          	li	x6,144
    179d:	0000                	unimp
    179f:	0001                	nop
    17a1:	0402                	c.slli64	x8
    17a3:	09000313          	li	x6,144
    17a7:	0010                	0x10
    17a9:	0001                	nop
    17ab:	0402                	c.slli64	x8
    17ad:	09000313          	li	x6,144
    17b1:	0000                	unimp
    17b3:	0001                	nop
    17b5:	0402                	c.slli64	x8
    17b7:	0322                	slli	x6,x6,0x8
    17b9:	0900                	addi	x8,x2,144
    17bb:	0004                	0x4
    17bd:	0001                	nop
    17bf:	0402                	c.slli64	x8
    17c1:	0322                	slli	x6,x6,0x8
    17c3:	0900                	addi	x8,x2,144
    17c5:	0000                	unimp
    17c7:	0001                	nop
    17c9:	0402                	c.slli64	x8
    17cb:	0322                	slli	x6,x6,0x8
    17cd:	0900                	addi	x8,x2,144
    17cf:	0010                	0x10
    17d1:	0001                	nop
    17d3:	0402                	c.slli64	x8
    17d5:	032e                	slli	x6,x6,0xb
    17d7:	0900                	addi	x8,x2,144
    17d9:	0004                	0x4
    17db:	0001                	nop
    17dd:	0402                	c.slli64	x8
    17df:	032e                	slli	x6,x6,0xb
    17e1:	0900                	addi	x8,x2,144
    17e3:	0000                	unimp
    17e5:	0001                	nop
    17e7:	0402                	c.slli64	x8
    17e9:	032e                	slli	x6,x6,0xb
    17eb:	0900                	addi	x8,x2,144
    17ed:	000c                	0xc
    17ef:	0601                	addi	x12,x12,0
    17f1:	04090003          	lb	x0,64(x18)
    17f5:	0100                	addi	x8,x2,128
    17f7:	0105                	addi	x2,x2,1
    17f9:	04090403          	lb	x8,64(x18)
    17fd:	0100                	addi	x8,x2,128
    17ff:	0409                	addi	x8,x8,2
    1801:	0000                	unimp
    1803:	0101                	addi	x2,x2,0

00001805 <.Ldebug_line0>:
    1805:	0265                	addi	x4,x4,25
    1807:	0000                	unimp
    1809:	00620003          	lb	x0,6(x4) # 1d006 <.L119+0x18362>
    180d:	0000                	unimp
    180f:	0101                	addi	x2,x2,0
    1811:	000d0efb          	0xd0efb
    1815:	0101                	addi	x2,x2,0
    1817:	0101                	addi	x2,x2,0
    1819:	0000                	unimp
    181b:	0100                	addi	x8,x2,128
    181d:	0000                	unimp
    181f:	2e01                	jal	1b2f <cmp_complex+0x5f>
    1821:	2f2e                	fld	f30,200(x2)
    1823:	2e2e                	fld	f28,200(x2)
    1825:	2f2e2e2f          	0x2f2e2e2f
    1829:	2e2e                	fld	f28,200(x2)
    182b:	7369722f          	0x7369722f
    182f:	672d7663          	bgeu	x26,x18,1e9b <.L70+0x7>
    1833:	6c2f6363          	bltu	x30,x2,1ef9 <.L97+0x25>
    1837:	6269                	lui	x4,0x1a
    1839:	2f636367          	0x2f636367
    183d:	74666f73          	csrrsi	x30,0x746,12
    1841:	662d                	lui	x12,0xb
    1843:	0070                	addi	x12,x2,12
    1845:	6600                	flw	f8,8(x12)
    1847:	6f6c                	flw	f11,92(x14)
    1849:	7461                	lui	x8,0xffff8
    184b:	6e75                	lui	x28,0x1d
    184d:	66646973          	csrrsi	x18,0x666,8
    1851:	632e                	flw	f6,200(x2)
    1853:	0100                	addi	x8,x2,128
    1855:	0000                	unimp
    1857:	74666f73          	csrrsi	x30,0x746,12
    185b:	662d                	lui	x12,0xb
    185d:	2e70                	fld	f12,216(x12)
    185f:	0068                	addi	x10,x2,12
    1861:	0001                	nop
    1863:	6400                	flw	f8,8(x8)
    1865:	6c62756f          	jal	x10,28f2b <.L119+0x24287>
    1869:	2e65                	jal	1c21 <.L19+0x5>
    186b:	0068                	addi	x10,x2,12
    186d:	0001                	nop
    186f:	0000                	unimp
    1871:	0105                	addi	x2,x2,1
    1873:	0500                	addi	x8,x2,640
    1875:	d802                	sw	x0,48(x2)
    1877:	0300003f 03050124 	0x30501240300003f
    187f:	00090103          	lb	x2,0(x18)
    1883:	0100                	addi	x8,x2,128
    1885:	00090003          	lb	x0,0(x18)
    1889:	0100                	addi	x8,x2,128
    188b:	00090003          	lb	x0,0(x18)
    188f:	0100                	addi	x8,x2,128
    1891:	00090003          	lb	x0,0(x18)
    1895:	0100                	addi	x8,x2,128
    1897:	00090103          	lb	x2,0(x18)
    189b:	0100                	addi	x8,x2,128
    189d:	00090203          	lb	x4,0(x18)
    18a1:	0100                	addi	x8,x2,128
    18a3:	00090003          	lb	x0,0(x18)
    18a7:	0100                	addi	x8,x2,128
    18a9:	0105                	addi	x2,x2,1
    18ab:	0306                	slli	x6,x6,0x1
    18ad:	097c                	addi	x15,x2,156
    18af:	0000                	unimp
    18b1:	0301                	addi	x6,x6,0
    18b3:	0900                	addi	x8,x2,144
    18b5:	000c                	0xc
    18b7:	0501                	addi	x10,x10,0
    18b9:	09040303          	lb	x6,144(x8) # ffff8090 <seed1_volatile+0xfffb79d0>
    18bd:	0004                	0x4
    18bf:	0001                	nop
    18c1:	0402                	c.slli64	x8
    18c3:	0606                	slli	x12,x12,0x1
    18c5:	04090003          	lb	x0,64(x18)
    18c9:	0100                	addi	x8,x2,128
    18cb:	0200                	addi	x8,x2,256
    18cd:	0604                	addi	x9,x2,768
    18cf:	00090003          	lb	x0,0(x18)
    18d3:	0100                	addi	x8,x2,128
    18d5:	0200                	addi	x8,x2,256
    18d7:	0604                	addi	x9,x2,768
    18d9:	00090003          	lb	x0,0(x18)
    18dd:	0100                	addi	x8,x2,128
    18df:	0200                	addi	x8,x2,256
    18e1:	0604                	addi	x9,x2,768
    18e3:	00090003          	lb	x0,0(x18)
    18e7:	0100                	addi	x8,x2,128
    18e9:	0200                	addi	x8,x2,256
    18eb:	0604                	addi	x9,x2,768
    18ed:	00090003          	lb	x0,0(x18)
    18f1:	0100                	addi	x8,x2,128
    18f3:	0200                	addi	x8,x2,256
    18f5:	0604                	addi	x9,x2,768
    18f7:	00090003          	lb	x0,0(x18)
    18fb:	0100                	addi	x8,x2,128
    18fd:	0200                	addi	x8,x2,256
    18ff:	0604                	addi	x9,x2,768
    1901:	00090003          	lb	x0,0(x18)
    1905:	0100                	addi	x8,x2,128
    1907:	0200                	addi	x8,x2,256
    1909:	0604                	addi	x9,x2,768
    190b:	00090003          	lb	x0,0(x18)
    190f:	0100                	addi	x8,x2,128
    1911:	0200                	addi	x8,x2,256
    1913:	0604                	addi	x9,x2,768
    1915:	00090003          	lb	x0,0(x18)
    1919:	0100                	addi	x8,x2,128
    191b:	0200                	addi	x8,x2,256
    191d:	0604                	addi	x9,x2,768
    191f:	04090003          	lb	x0,64(x18)
    1923:	0100                	addi	x8,x2,128
    1925:	0200                	addi	x8,x2,256
    1927:	0604                	addi	x9,x2,768
    1929:	00090003          	lb	x0,0(x18)
    192d:	0100                	addi	x8,x2,128
    192f:	0200                	addi	x8,x2,256
    1931:	0604                	addi	x9,x2,768
    1933:	0c090003          	lb	x0,192(x18)
    1937:	0100                	addi	x8,x2,128
    1939:	0200                	addi	x8,x2,256
    193b:	0604                	addi	x9,x2,768
    193d:	00090003          	lb	x0,0(x18)
    1941:	0100                	addi	x8,x2,128
    1943:	0200                	addi	x8,x2,256
    1945:	0604                	addi	x9,x2,768
    1947:	00090003          	lb	x0,0(x18)
    194b:	0100                	addi	x8,x2,128
    194d:	0200                	addi	x8,x2,256
    194f:	0604                	addi	x9,x2,768
    1951:	00090003          	lb	x0,0(x18)
    1955:	0100                	addi	x8,x2,128
    1957:	0200                	addi	x8,x2,256
    1959:	0604                	addi	x9,x2,768
    195b:	00090003          	lb	x0,0(x18)
    195f:	0100                	addi	x8,x2,128
    1961:	0200                	addi	x8,x2,256
    1963:	0604                	addi	x9,x2,768
    1965:	00090003          	lb	x0,0(x18)
    1969:	0100                	addi	x8,x2,128
    196b:	0200                	addi	x8,x2,256
    196d:	0604                	addi	x9,x2,768
    196f:	00090003          	lb	x0,0(x18)
    1973:	0100                	addi	x8,x2,128
    1975:	0200                	addi	x8,x2,256
    1977:	0604                	addi	x9,x2,768
    1979:	00090003          	lb	x0,0(x18)
    197d:	0100                	addi	x8,x2,128
    197f:	0200                	addi	x8,x2,256
    1981:	1704                	addi	x9,x2,928
    1983:	04090003          	lb	x0,64(x18)
    1987:	0100                	addi	x8,x2,128
    1989:	0200                	addi	x8,x2,256
    198b:	1704                	addi	x9,x2,928
    198d:	00090003          	lb	x0,0(x18)
    1991:	0100                	addi	x8,x2,128
    1993:	0200                	addi	x8,x2,256
    1995:	1704                	addi	x9,x2,928
    1997:	10090003          	lb	x0,256(x18)
    199b:	0100                	addi	x8,x2,128
    199d:	0200                	addi	x8,x2,256
    199f:	1704                	addi	x9,x2,928
    19a1:	04090003          	lb	x0,64(x18)
    19a5:	0100                	addi	x8,x2,128
    19a7:	0200                	addi	x8,x2,256
    19a9:	7e04                	flw	f9,56(x12)
    19ab:	00090003          	lb	x0,0(x18)
    19af:	0100                	addi	x8,x2,128
    19b1:	0200                	addi	x8,x2,256
    19b3:	7e04                	flw	f9,56(x12)
    19b5:	00090103          	lb	x2,0(x18)
    19b9:	0100                	addi	x8,x2,128
    19bb:	0200                	addi	x8,x2,256
    19bd:	7e04                	flw	f9,56(x12)
    19bf:	00090003          	lb	x0,0(x18)
    19c3:	0100                	addi	x8,x2,128
    19c5:	0200                	addi	x8,x2,256
    19c7:	7e04                	flw	f9,56(x12)
    19c9:	00090003          	lb	x0,0(x18)
    19cd:	0100                	addi	x8,x2,128
    19cf:	0200                	addi	x8,x2,256
    19d1:	7e04                	flw	f9,56(x12)
    19d3:	00090003          	lb	x0,0(x18)
    19d7:	0100                	addi	x8,x2,128
    19d9:	0200                	addi	x8,x2,256
    19db:	7e04                	flw	f9,56(x12)
    19dd:	00090003          	lb	x0,0(x18)
    19e1:	0100                	addi	x8,x2,128
    19e3:	0200                	addi	x8,x2,256
    19e5:	7e04                	flw	f9,56(x12)
    19e7:	00090003          	lb	x0,0(x18)
    19eb:	0100                	addi	x8,x2,128
    19ed:	0200                	addi	x8,x2,256
    19ef:	7e04                	flw	f9,56(x12)
    19f1:	00090003          	lb	x0,0(x18)
    19f5:	0100                	addi	x8,x2,128
    19f7:	0105                	addi	x2,x2,1
    19f9:	0200                	addi	x8,x2,256
    19fb:	7e04                	flw	f9,56(x12)
    19fd:	0306                	slli	x6,x6,0x1
    19ff:	00000903          	lb	x18,0(x0) # 0 <.Ldebug_line0>
    1a03:	0501                	addi	x10,x10,0
    1a05:	04020003          	lb	x0,64(x4) # 1a040 <.L119+0x1539c>
    1a09:	037e                	slli	x6,x6,0x1f
    1a0b:	097d                	addi	x18,x18,31
    1a0d:	0008                	0x8
    1a0f:	0501                	addi	x10,x10,0
    1a11:	0001                	nop
    1a13:	0402                	c.slli64	x8
    1a15:	037e                	slli	x6,x6,0x1f
    1a17:	00040903          	lb	x18,0(x8)
    1a1b:	0501                	addi	x10,x10,0
    1a1d:	04020003          	lb	x0,64(x4) # 40 <.LASF29+0x6>
    1a21:	037e                	slli	x6,x6,0x1f
    1a23:	097d                	addi	x18,x18,31
    1a25:	0004                	0x4
    1a27:	0001                	nop
    1a29:	0402                	c.slli64	x8
    1a2b:	067e                	slli	x12,x12,0x1f
    1a2d:	0c090003          	lb	x0,192(x18)
    1a31:	0100                	addi	x8,x2,128
    1a33:	0200                	addi	x8,x2,256
    1a35:	7e04                	flw	f9,56(x12)
    1a37:	00090203          	lb	x4,0(x18)
    1a3b:	0100                	addi	x8,x2,128
    1a3d:	0105                	addi	x2,x2,1
    1a3f:	0200                	addi	x8,x2,256
    1a41:	7e04                	flw	f9,56(x12)
    1a43:	0306                	slli	x6,x6,0x1
    1a45:	0901                	addi	x18,x18,0
    1a47:	0000                	unimp
    1a49:	0501                	addi	x10,x10,0
    1a4b:	04020003          	lb	x0,64(x4) # 40 <.LASF29+0x6>
    1a4f:	0618                	addi	x14,x2,768
    1a51:	0c097c03          	0xc097c03
    1a55:	0100                	addi	x8,x2,128
    1a57:	0200                	addi	x8,x2,256
    1a59:	1804                	addi	x9,x2,48
    1a5b:	08090003          	lb	x0,128(x18)
    1a5f:	0100                	addi	x8,x2,128
    1a61:	0306                	slli	x6,x6,0x1
    1a63:	0900                	addi	x8,x2,144
    1a65:	0008                	0x8
    1a67:	0901                	addi	x18,x18,0
    1a69:	000c                	0xc
    1a6b:	0100                	addi	x8,x2,128
    1a6d:	8f01                	sub	x14,x14,x8
    1a6f:	0000                	unimp
    1a71:	0300                	addi	x8,x2,384
    1a73:	4900                	lw	x8,16(x10)
    1a75:	0000                	unimp
    1a77:	0100                	addi	x8,x2,128
    1a79:	fb01                	bnez	x14,1989 <.L107+0x1>
    1a7b:	0d0e                	slli	x26,x26,0x3
    1a7d:	0100                	addi	x8,x2,128
    1a7f:	0101                	addi	x2,x2,0
    1a81:	0001                	nop
    1a83:	0000                	unimp
    1a85:	0001                	nop
    1a87:	0100                	addi	x8,x2,128
    1a89:	2e2e                	fld	f28,200(x2)
    1a8b:	2f2e2e2f          	0x2f2e2e2f
    1a8f:	2e2e                	fld	f28,200(x2)
    1a91:	2f2e2e2f          	0x2f2e2e2f
    1a95:	6972                	flw	f18,28(x2)
    1a97:	2d766373          	csrrsi	x6,0x2d7,12
    1a9b:	2f636367          	0x2f636367
    1a9f:	696c                	flw	f11,84(x10)
    1aa1:	6762                	flw	f14,24(x2)
    1aa3:	632f6363          	bltu	x30,x18,20c9 <.L141+0x31>
    1aa7:	69666e6f          	jal	x28,6813d <seed1_volatile+0x27a7d>
    1aab:	69722f67          	0x69722f67
    1aaf:	00766373          	csrrsi	x6,0x7,12
    1ab3:	6d00                	flw	f8,24(x10)
    1ab5:	6c75                	lui	x24,0x1d
    1ab7:	6964                	flw	f9,84(x10)
    1ab9:	00532e33          	slt	x28,x6,x5
    1abd:	0001                	nop
    1abf:	0000                	unimp
    1ac1:	0500                	addi	x8,x2,640
    1ac3:	5802                	lw	x16,32(x2)
    1ac5:	0040                	addi	x8,x2,4
    1ac7:	0300                	addi	x8,x2,384
    1ac9:	0124                	addi	x9,x2,136
    1acb:	04090103          	lb	x2,64(x18)
    1acf:	0100                	addi	x8,x2,128
    1ad1:	04090203          	lb	x4,64(x18)
    1ad5:	0100                	addi	x8,x2,128
    1ad7:	04090103          	lb	x2,64(x18)
    1adb:	0100                	addi	x8,x2,128
    1add:	04090103          	lb	x2,64(x18)
    1ae1:	0100                	addi	x8,x2,128
    1ae3:	04090203          	lb	x4,64(x18)
    1ae7:	0100                	addi	x8,x2,128
    1ae9:	04090103          	lb	x2,64(x18)
    1aed:	0100                	addi	x8,x2,128
    1aef:	04090103          	lb	x2,64(x18)
    1af3:	0100                	addi	x8,x2,128
    1af5:	04090103          	lb	x2,64(x18)
    1af9:	0100                	addi	x8,x2,128
    1afb:	0409                	addi	x8,x8,2
    1afd:	0000                	unimp
    1aff:	0101                	addi	x2,x2,0
    1b01:	0165                	addi	x2,x2,25
    1b03:	0000                	unimp
    1b05:	00460003          	lb	x0,4(x12) # b004 <.L119+0x6360>
    1b09:	0000                	unimp
    1b0b:	0101                	addi	x2,x2,0
    1b0d:	000d0efb          	0xd0efb
    1b11:	0101                	addi	x2,x2,0
    1b13:	0101                	addi	x2,x2,0
    1b15:	0000                	unimp
    1b17:	0100                	addi	x8,x2,128
    1b19:	0000                	unimp
    1b1b:	2e01                	jal	1e2b <.L50+0x17>
    1b1d:	2f2e                	fld	f30,200(x2)
    1b1f:	2e2e                	fld	f28,200(x2)
    1b21:	2f2e2e2f          	0x2f2e2e2f
    1b25:	2e2e                	fld	f28,200(x2)
    1b27:	7369722f          	0x7369722f
    1b2b:	672d7663          	bgeu	x26,x18,2197 <.L67+0xf>
    1b2f:	6c2f6363          	bltu	x30,x2,21f5 <core_list_init+0x35>
    1b33:	6269                	lui	x4,0x1a
    1b35:	2f636367          	0x2f636367
    1b39:	666e6f63          	bltu	x28,x6,21b7 <.L98+0xf>
    1b3d:	6769                	lui	x14,0x1a
    1b3f:	7369722f          	0x7369722f
    1b43:	00007663          	bgeu	x0,x0,1b4f <.L18+0x13>
    1b47:	6964                	flw	f9,84(x10)
    1b49:	2e76                	fld	f28,344(x2)
    1b4b:	00010053          	fadd.s	f0,f2,f0,rne
    1b4f:	0000                	unimp
    1b51:	0500                	addi	x8,x2,640
    1b53:	7c02                	flw	f24,32(x2)
    1b55:	0040                	addi	x8,x2,4
    1b57:	0300                	addi	x8,x2,384
    1b59:	00c4                	addi	x9,x2,68
    1b5b:	0301                	addi	x6,x6,0
    1b5d:	0901                	addi	x18,x18,0
    1b5f:	0004                	0x4
    1b61:	0301                	addi	x6,x6,0
    1b63:	0904                	addi	x9,x2,144
    1b65:	0004                	0x4
    1b67:	0301                	addi	x6,x6,0
    1b69:	0901                	addi	x18,x18,0
    1b6b:	0004                	0x4
    1b6d:	0301                	addi	x6,x6,0
    1b6f:	0901                	addi	x18,x18,0
    1b71:	0004                	0x4
    1b73:	0301                	addi	x6,x6,0
    1b75:	0901                	addi	x18,x18,0
    1b77:	0004                	0x4
    1b79:	0301                	addi	x6,x6,0
    1b7b:	0901                	addi	x18,x18,0
    1b7d:	0004                	0x4
    1b7f:	0301                	addi	x6,x6,0
    1b81:	0901                	addi	x18,x18,0
    1b83:	0004                	0x4
    1b85:	0301                	addi	x6,x6,0
    1b87:	0902                	c.slli64	x18
    1b89:	0004                	0x4
    1b8b:	0301                	addi	x6,x6,0
    1b8d:	0901                	addi	x18,x18,0
    1b8f:	0004                	0x4
    1b91:	0301                	addi	x6,x6,0
    1b93:	0901                	addi	x18,x18,0
    1b95:	0004                	0x4
    1b97:	0301                	addi	x6,x6,0
    1b99:	0901                	addi	x18,x18,0
    1b9b:	0004                	0x4
    1b9d:	0301                	addi	x6,x6,0
    1b9f:	0902                	c.slli64	x18
    1ba1:	0004                	0x4
    1ba3:	0301                	addi	x6,x6,0
    1ba5:	0902                	c.slli64	x18
    1ba7:	0004                	0x4
    1ba9:	0301                	addi	x6,x6,0
    1bab:	0901                	addi	x18,x18,0
    1bad:	0004                	0x4
    1baf:	0301                	addi	x6,x6,0
    1bb1:	0901                	addi	x18,x18,0
    1bb3:	0004                	0x4
    1bb5:	0301                	addi	x6,x6,0
    1bb7:	0902                	c.slli64	x18
    1bb9:	0004                	0x4
    1bbb:	0301                	addi	x6,x6,0
    1bbd:	0901                	addi	x18,x18,0
    1bbf:	0004                	0x4
    1bc1:	0301                	addi	x6,x6,0
    1bc3:	0901                	addi	x18,x18,0
    1bc5:	0004                	0x4
    1bc7:	0301                	addi	x6,x6,0
    1bc9:	0902                	c.slli64	x18
    1bcb:	0004                	0x4
    1bcd:	0301                	addi	x6,x6,0
    1bcf:	0905                	addi	x18,x18,1
    1bd1:	0004                	0x4
    1bd3:	0301                	addi	x6,x6,0
    1bd5:	0901                	addi	x18,x18,0
    1bd7:	0004                	0x4
    1bd9:	0301                	addi	x6,x6,0
    1bdb:	0901                	addi	x18,x18,0
    1bdd:	0004                	0x4
    1bdf:	0301                	addi	x6,x6,0
    1be1:	0901                	addi	x18,x18,0
    1be3:	0004                	0x4
    1be5:	0301                	addi	x6,x6,0
    1be7:	0905                	addi	x18,x18,1
    1be9:	0004                	0x4
    1beb:	0301                	addi	x6,x6,0
    1bed:	0902                	c.slli64	x18
    1bef:	0004                	0x4
    1bf1:	0301                	addi	x6,x6,0
    1bf3:	0902                	c.slli64	x18
    1bf5:	0004                	0x4
    1bf7:	0301                	addi	x6,x6,0
    1bf9:	0901                	addi	x18,x18,0
    1bfb:	0004                	0x4
    1bfd:	0301                	addi	x6,x6,0
    1bff:	0902                	c.slli64	x18
    1c01:	0004                	0x4
    1c03:	0301                	addi	x6,x6,0
    1c05:	0902                	c.slli64	x18
    1c07:	0004                	0x4
    1c09:	0301                	addi	x6,x6,0
    1c0b:	0901                	addi	x18,x18,0
    1c0d:	0004                	0x4
    1c0f:	0301                	addi	x6,x6,0
    1c11:	0901                	addi	x18,x18,0
    1c13:	0004                	0x4
    1c15:	0301                	addi	x6,x6,0
    1c17:	0901                	addi	x18,x18,0
    1c19:	0004                	0x4
    1c1b:	0301                	addi	x6,x6,0
    1c1d:	0904                	addi	x9,x2,144
    1c1f:	0004                	0x4
    1c21:	0301                	addi	x6,x6,0
    1c23:	0901                	addi	x18,x18,0
    1c25:	0004                	0x4
    1c27:	0301                	addi	x6,x6,0
    1c29:	0901                	addi	x18,x18,0
    1c2b:	0004                	0x4
    1c2d:	0301                	addi	x6,x6,0
    1c2f:	0902                	c.slli64	x18
    1c31:	0004                	0x4
    1c33:	0301                	addi	x6,x6,0
    1c35:	0901                	addi	x18,x18,0
    1c37:	0004                	0x4
    1c39:	0301                	addi	x6,x6,0
    1c3b:	0901                	addi	x18,x18,0
    1c3d:	0004                	0x4
    1c3f:	0301                	addi	x6,x6,0
    1c41:	0902                	c.slli64	x18
    1c43:	0004                	0x4
    1c45:	0301                	addi	x6,x6,0
    1c47:	0901                	addi	x18,x18,0
    1c49:	0004                	0x4
    1c4b:	0301                	addi	x6,x6,0
    1c4d:	0902                	c.slli64	x18
    1c4f:	0004                	0x4
    1c51:	0301                	addi	x6,x6,0
    1c53:	0901                	addi	x18,x18,0
    1c55:	0004                	0x4
    1c57:	0301                	addi	x6,x6,0
    1c59:	0901                	addi	x18,x18,0
    1c5b:	0004                	0x4
    1c5d:	0301                	addi	x6,x6,0
    1c5f:	0901                	addi	x18,x18,0
    1c61:	0004                	0x4
    1c63:	0901                	addi	x18,x18,0
    1c65:	0004                	0x4
    1c67:	0100                	addi	x8,x2,128
    1c69:	                	beqz	x8,1b81 <.L15+0x25>

00001c6a <.Ldebug_line0>:
    1c6a:	00dc                	addi	x15,x2,68
    1c6c:	0000                	unimp
    1c6e:	004a0003          	lb	x0,4(x20) # fffe9004 <seed1_volatile+0xfffa8944>
    1c72:	0000                	unimp
    1c74:	0101                	addi	x2,x2,0
    1c76:	000d0efb          	0xd0efb
    1c7a:	0101                	addi	x2,x2,0
    1c7c:	0101                	addi	x2,x2,0
    1c7e:	0000                	unimp
    1c80:	0100                	addi	x8,x2,128
    1c82:	0000                	unimp
    1c84:	2e01                	jal	1f94 <.L152>
    1c86:	2f2e                	fld	f30,200(x2)
    1c88:	2e2e                	fld	f28,200(x2)
    1c8a:	2f2e2e2f          	0x2f2e2e2f
    1c8e:	2e2e                	fld	f28,200(x2)
    1c90:	7369722f          	0x7369722f
    1c94:	672d7663          	bgeu	x26,x18,2300 <.L168+0x4>
    1c98:	6c2f6363          	bltu	x30,x2,235e <.L173+0x6>
    1c9c:	6269                	lui	x4,0x1a
    1c9e:	00636367          	0x636367
    1ca2:	6c00                	flw	f8,24(x8)
    1ca4:	6269                	lui	x4,0x1a
    1ca6:	32636367          	0x32636367
    1caa:	632e                	flw	f6,200(x2)
    1cac:	0100                	addi	x8,x2,128
    1cae:	0000                	unimp
    1cb0:	696c                	flw	f11,84(x10)
    1cb2:	6762                	flw	f14,24(x2)
    1cb4:	2e326363          	bltu	x4,x3,1f9a <.L150+0x2>
    1cb8:	0068                	addi	x10,x2,12
    1cba:	0001                	nop
    1cbc:	0000                	unimp
    1cbe:	0105                	addi	x2,x2,1
    1cc0:	0500                	addi	x8,x2,640
    1cc2:	3002                	fld	f0,32(x2)
    1cc4:	0041                	c.nop	16
    1cc6:	0300                	addi	x8,x2,384
    1cc8:	05c2                	slli	x11,x11,0x10
    1cca:	0501                	addi	x10,x10,0
    1ccc:	09010303          	lb	x6,144(x2)
    1cd0:	0000                	unimp
    1cd2:	0301                	addi	x6,x6,0
    1cd4:	0902                	c.slli64	x18
    1cd6:	0000                	unimp
    1cd8:	0301                	addi	x6,x6,0
    1cda:	0900                	addi	x8,x2,144
    1cdc:	0000                	unimp
    1cde:	0301                	addi	x6,x6,0
    1ce0:	0900                	addi	x8,x2,144
    1ce2:	0000                	unimp
    1ce4:	0301                	addi	x6,x6,0
    1ce6:	0900                	addi	x8,x2,144
    1ce8:	0000                	unimp
    1cea:	0301                	addi	x6,x6,0
    1cec:	0900                	addi	x8,x2,144
    1cee:	0000                	unimp
    1cf0:	0001                	nop
    1cf2:	0402                	c.slli64	x8
    1cf4:	00030603          	lb	x12,0(x6) # 90014fd <seed1_volatile+0x8fc0e3d>
    1cf8:	0809                	addi	x16,x16,2
    1cfa:	0100                	addi	x8,x2,128
    1cfc:	0200                	addi	x8,x2,256
    1cfe:	0e04                	addi	x9,x2,784
    1d00:	0306                	slli	x6,x6,0x1
    1d02:	0900                	addi	x8,x2,144
    1d04:	000c                	0xc
    1d06:	0001                	nop
    1d08:	0402                	c.slli64	x8
    1d0a:	030e                	slli	x6,x6,0x3
    1d0c:	0900                	addi	x8,x2,144
    1d0e:	0000                	unimp
    1d10:	0001                	nop
    1d12:	0402                	c.slli64	x8
    1d14:	030e                	slli	x6,x6,0x3
    1d16:	0902                	c.slli64	x18
    1d18:	0000                	unimp
    1d1a:	0001                	nop
    1d1c:	0402                	c.slli64	x8
    1d1e:	060e                	slli	x12,x12,0x3
    1d20:	00097e03          	0x97e03
    1d24:	0100                	addi	x8,x2,128
    1d26:	0105                	addi	x2,x2,1
    1d28:	0200                	addi	x8,x2,256
    1d2a:	0e04                	addi	x9,x2,784
    1d2c:	1c090303          	lb	x6,448(x18)
    1d30:	0100                	addi	x8,x2,128
    1d32:	0305                	addi	x6,x6,1
    1d34:	0200                	addi	x8,x2,256
    1d36:	0404                	addi	x9,x2,512
    1d38:	08097d03          	0x8097d03
    1d3c:	0100                	addi	x8,x2,128
    1d3e:	0c090003          	lb	x0,192(x18)
    1d42:	0100                	addi	x8,x2,128
    1d44:	0809                	addi	x16,x16,2
    1d46:	0000                	unimp
    1d48:	0101                	addi	x2,x2,0

00001d4a <.Ldebug_line0>:
    1d4a:	0050                	addi	x12,x2,4
    1d4c:	0000                	unimp
    1d4e:	004a0003          	lb	x0,4(x20)
    1d52:	0000                	unimp
    1d54:	0101                	addi	x2,x2,0
    1d56:	000d0efb          	0xd0efb
    1d5a:	0101                	addi	x2,x2,0
    1d5c:	0101                	addi	x2,x2,0
    1d5e:	0000                	unimp
    1d60:	0100                	addi	x8,x2,128
    1d62:	0000                	unimp
    1d64:	2e01                	jal	2074 <.L153>
    1d66:	2f2e                	fld	f30,200(x2)
    1d68:	2e2e                	fld	f28,200(x2)
    1d6a:	2f2e2e2f          	0x2f2e2e2f
    1d6e:	2e2e                	fld	f28,200(x2)
    1d70:	7369722f          	0x7369722f
    1d74:	672d7663          	bgeu	x26,x18,23e0 <.L209>
    1d78:	6c2f6363          	bltu	x30,x2,243e <.L183+0x1a>
    1d7c:	6269                	lui	x4,0x1a
    1d7e:	00636367          	0x636367
    1d82:	6c00                	flw	f8,24(x8)
    1d84:	6269                	lui	x4,0x1a
    1d86:	32636367          	0x32636367
    1d8a:	682e                	flw	f16,200(x2)
    1d8c:	0100                	addi	x8,x2,128
    1d8e:	0000                	unimp
    1d90:	696c                	flw	f11,84(x10)
    1d92:	6762                	flw	f14,24(x2)
    1d94:	2e326363          	bltu	x4,x3,207a <.L153+0x6>
    1d98:	00010063          	beqz	x2,1d98 <.Ldebug_line0+0x4e>
	...

Disassembly of section .debug_str:

00000000 <.LASF50>:
   0:	465f 5f50 4150      	0x41505f50465f
   6:	435f4b43          	fmadd.d	f22,f30,f21,f8,rmm
   a:	4e41                	li	x28,16
   c:	43494e4f          	fnmadd.d	f28,f18,f20,f8,rmm
  10:	4c41                	li	x24,16
  12:	545f 665f 0030      	0x30665f545f

00000018 <.LASF51>:
  18:	465f 5f50 4150      	0x41505f50465f
  1e:	435f4b43          	fmadd.d	f22,f30,f21,f8,rmm
  22:	4e41                	li	x28,16
  24:	43494e4f          	fnmadd.d	f28,f18,f20,f8,rmm
  28:	4c41                	li	x24,16
  2a:	545f 665f 0031      	0x31665f545f

00000030 <.LASF35>:
  30:	5f5f 3072       	0x5f0030725f5f

00000035 <.LASF34>:
  35:	5f5f 3172       	0x5f0031725f5f

0000003a <.LASF29>:
  3a:	465f 5f50 4944      	0x49445f50465f
  40:	5f56                	lw	x30,116(x2)
  42:	454d                	li	x10,19
  44:	5441                	li	x8,-16
  46:	325f 755f 6964      	0x6964755f325f
  4c:	5f76                	lw	x30,124(x2)
  4e:	5f6d                	li	x30,-5
  50:	3066                	fld	f0,120(x2)
	...

00000053 <.LASF32>:
  53:	5f5f 3171       	0x5f0031715f5f

00000058 <.LASF63>:
  58:	5f5f 6964 6476      	0x647669645f5f
  5e:	3366                	fld	f6,120(x2)
	...

00000061 <.LASF7>:
  61:	4855                	li	x16,21
  63:	70797457          	0x70797457
  67:	0065                	c.nop	25

00000069 <.LASF28>:
  69:	465f 5f50 4944      	0x49445f50465f
  6f:	5f56                	lw	x30,116(x2)
  71:	454d                	li	x10,19
  73:	5441                	li	x8,-16
  75:	325f 755f 6964      	0x6964755f325f
  7b:	5f76                	lw	x30,124(x2)
  7d:	5f6d                	li	x30,-5
  7f:	3166                	fld	f2,120(x2)
	...

00000082 <.LASF45>:
  82:	5f5f 706f 0031      	0x31706f5f5f

00000088 <.LASF9>:
  88:	7266                	flw	f4,120(x2)
  8a:	6361                	lui	x6,0x18
  8c:	0030                	addi	x12,x2,8

0000008e <.LASF10>:
  8e:	7266                	flw	f4,120(x2)
  90:	6361                	lui	x6,0x18
  92:	0031                	c.nop	12

00000094 <.LASF23>:
  94:	465f 5f50 4150      	0x41505f50465f
  9a:	525f4b43          	fmadd.d	f22,f30,f5,f10,rmm
  9e:	5741                	li	x14,-16
  a0:	325f 665f 6f6c      	0x6f6c665f325f
	...

000000a7 <.LASF7>:
  a7:	4644                	lw	x9,12(x12)
  a9:	7974                	flw	f13,116(x10)
  ab:	6570                	flw	f12,76(x10)
	...

000000ae <.LASF36>:
  ae:	5f5f 3078       	0x5f0030785f5f

000000b3 <.LASF38>:
  b3:	5f5f 3278       	0x5f0032785f5f

000000b8 <.LASF22>:
  b8:	465f 5f50 4e55      	0x4e555f50465f
  be:	4150                	lw	x12,4(x10)
  c0:	435f4b43          	fmadd.d	f22,f30,f21,f8,rmm
  c4:	4e41                	li	x28,16
  c6:	43494e4f          	fnmadd.d	f28,f18,f20,f8,rmm
  ca:	4c41                	li	x24,16
  cc:	735f 6968 7466      	0x74666968735f
	...

000000d3 <.LASF27>:
  d3:	465f 5f50 4944      	0x49445f50465f
  d9:	5f56                	lw	x30,116(x2)
  db:	454d                	li	x10,19
  dd:	5441                	li	x8,-16
  df:	325f 755f 6964      	0x6964755f325f
  e5:	5f76                	lw	x30,124(x2)
  e7:	5f72                	lw	x30,60(x2)
  e9:	3066                	fld	f0,120(x2)
	...

000000ec <.LASF26>:
  ec:	465f 5f50 4944      	0x49445f50465f
  f2:	5f56                	lw	x30,116(x2)
  f4:	454d                	li	x10,19
  f6:	5441                	li	x8,-16
  f8:	325f 755f 6964      	0x6964755f325f
  fe:	5f76                	lw	x30,124(x2)
 100:	5f72                	lw	x30,60(x2)
 102:	3166                	fld	f2,120(x2)
	...

00000105 <.LASF19>:
 105:	5f52                	lw	x30,52(x2)
 107:	3066                	fld	f0,120(x2)
	...

0000010a <.LASF2>:
 10a:	6e75                	lui	x28,0x1d

0000010c <.LASF0>:
 10c:	6e676973          	csrrsi	x18,0x6e6,14
 110:	6465                	lui	x8,0x19
 112:	                	flw	f8,64(x14)

00000113 <.LASF10>:
 113:	72616863          	bltu	x2,x6,843 <.L135+0x7>
	...

00000118 <.LASF40>:
 118:	5f5f 6c75       	0x73006c755f5f

0000011d <.LASF11>:
 11d:	6e676973          	csrrsi	x18,0x6e6,14
	...

00000122 <.LASF5>:
 122:	726f6873          	csrrsi	x16,0x726,30
 126:	2074                	fld	f13,192(x8)
 128:	6e75                	lui	x28,0x1d
 12a:	6e676973          	csrrsi	x18,0x6e6,14
 12e:	6465                	lui	x8,0x19
 130:	6920                	flw	f8,80(x10)
 132:	746e                	flw	f8,248(x2)
	...

00000135 <.LASF14>:
 135:	5f41                	li	x30,-16
 137:	3166                	fld	f2,120(x2)
	...

0000013a <.LASF13>:
 13a:	665f 7865       	0x5f007865665f

0000013f <.LASF42>:
 13f:	5f5f 6875       	0x5f0068755f5f

00000144 <.LASF25>:
 144:	465f 5f50 4944      	0x49445f50465f
 14a:	5f56                	lw	x30,116(x2)
 14c:	454d                	li	x10,19
 14e:	5441                	li	x8,-16
 150:	325f 755f 6964      	0x6964755f325f
 156:	5f76                	lw	x30,124(x2)
 158:	5f6e                	lw	x30,248(x2)
 15a:	3066                	fld	f0,120(x2)
	...

0000015d <.LASF24>:
 15d:	465f 5f50 4944      	0x49445f50465f
 163:	5f56                	lw	x30,116(x2)
 165:	454d                	li	x10,19
 167:	5441                	li	x8,-16
 169:	325f 755f 6964      	0x6964755f325f
 16f:	5f76                	lw	x30,124(x2)
 171:	5f6e                	lw	x30,248(x2)
 173:	3166                	fld	f2,120(x2)
	...

00000176 <.LASF23>:
 176:	465f 5f50 4944      	0x49445f50465f
 17c:	5f56                	lw	x30,116(x2)
 17e:	454d                	li	x10,19
 180:	5441                	li	x8,-16
 182:	325f 755f 6964      	0x6964755f325f
 188:	5f76                	lw	x30,124(x2)
 18a:	5f6e                	lw	x30,248(x2)
 18c:	3266                	fld	f4,120(x2)
	...

0000018f <.LASF58>:
 18f:	5f5f 6d75 646f      	0x646f6d755f5f
 195:	00336973          	csrrsi	x18,fcsr,6

00000199 <.LASF48>:
 199:	465f 5f50 4150      	0x41505f50465f
 19f:	435f4b43          	fmadd.d	f22,f30,f21,f8,rmm
 1a3:	4e41                	li	x28,16
 1a5:	43494e4f          	fnmadd.d	f28,f18,f20,f8,rmm
 1a9:	4c41                	li	x24,16
 1ab:	545f 735f       	0x5f00735f545f

000001b0 <.LASF46>:
 1b0:	465f 5f50 4150      	0x41505f50465f
 1b6:	435f4b43          	fmadd.d	f22,f30,f21,f8,rmm
 1ba:	4e41                	li	x28,16
 1bc:	43494e4f          	fnmadd.d	f28,f18,f20,f8,rmm
 1c0:	4c41                	li	x24,16
 1c2:	695f 5f73 6974      	0x69745f73695f
 1c8:	796e                	flw	f18,248(x2)
	...

000001cb <.LASF57>:
 1cb:	5f5f 756d 736c      	0x736c756d5f5f
 1d1:	3369                	jal	ffffff5b <seed1_volatile+0xfffbf89b>
	...

000001d4 <.LASF47>:
 1d4:	465f 5f50 4150      	0x41505f50465f
 1da:	435f4b43          	fmadd.d	f22,f30,f21,f8,rmm
 1de:	4e41                	li	x28,16
 1e0:	43494e4f          	fnmadd.d	f28,f18,f20,f8,rmm
 1e4:	4c41                	li	x24,16
 1e6:	545f 635f       	0x4100635f545f

000001eb <.LASF13>:
 1eb:	5f41                	li	x30,-16
 1ed:	3066                	fld	f0,120(x2)
	...

000001f0 <.LASF33>:
 1f0:	5f5f 3071       	0x5f0030715f5f

000001f5 <.LASF17>:
 1f5:	465f 5f50 4e55      	0x4e555f50465f
 1fb:	4150                	lw	x12,4(x10)
 1fd:	525f4b43          	fmadd.d	f22,f30,f5,f10,rmm
 201:	5741                	li	x14,-16
 203:	325f 665f 6f6c      	0x6f6c665f325f
	...

0000020a <.LASF37>:
 20a:	5f5f 3178       	0x420031785f5f

0000020f <.LASF17>:
 20f:	5f42                	lw	x30,48(x2)
 211:	3066                	fld	f0,120(x2)
	...

00000214 <.LASF18>:
 214:	5f42                	lw	x30,48(x2)
 216:	3166                	fld	f2,120(x2)
	...

00000219 <.LASF4>:
 219:	6f6c                	flw	f11,92(x14)
 21b:	676e                	flw	f14,216(x2)
 21d:	                	flw	f8,88(x8)

0000021e <.LASF20>:
 21e:	6f6c                	flw	f11,92(x14)
 220:	676e                	flw	f14,216(x2)
 222:	                	flw	f8,104(x10)

00000223 <.LASF0>:
 223:	6e75                	lui	x28,0x1d
 225:	6e676973          	csrrsi	x18,0x6e6,14
 229:	6465                	lui	x8,0x19
 22b:	6920                	flw	f8,80(x10)
 22d:	746e                	flw	f8,248(x2)
	...

00000230 <.LASF60>:
 230:	2e2e                	fld	f28,200(x2)
 232:	2f2e2e2f          	0x2f2e2e2f
 236:	2e2e                	fld	f28,200(x2)
 238:	2f2e2e2f          	0x2f2e2e2f
 23c:	6972                	flw	f18,28(x2)
 23e:	2d766373          	csrrsi	x6,0x2d7,12
 242:	2f636367          	0x2f636367
 246:	696c                	flw	f11,84(x10)
 248:	6762                	flw	f14,24(x2)
 24a:	732f6363          	bltu	x30,x18,970 <crc16>
 24e:	2d74666f          	jal	x12,46d24 <seed1_volatile+0x6664>
 252:	7066                	flw	f0,120(x2)
 254:	7669642f          	0x7669642f
 258:	6664                	flw	f9,76(x12)
 25a:	00632e33          	slt	x28,x6,x6

0000025e <.LASF39>:
 25e:	5f5f 3378       	0x5f0033785f5f

00000263 <.LASF43>:
 263:	5f5f 6876       	0x5f0068765f5f

00000268 <.LASF41>:
 268:	5f5f 6c76       	0x5f006c765f5f

0000026d <.LASF31>:
 26d:	5f5f 3064       	0x6c0030645f5f

00000272 <.LASF1>:
 272:	6f6c                	flw	f11,92(x14)
 274:	676e                	flw	f14,216(x2)
 276:	                	flw	f8,88(x8)

00000277 <.LASF19>:
 277:	6f6c                	flw	f11,92(x14)
 279:	676e                	flw	f14,216(x2)
 27b:	6920                	flw	f8,80(x10)
 27d:	746e                	flw	f8,248(x2)
	...

00000280 <.LASF24>:
 280:	465f 5f50 4e55      	0x4e555f50465f
 286:	4f49                	li	x30,18
 288:	5f4e                	lw	x30,240(x2)
 28a:	0044                	addi	x9,x2,4

0000028c <.LASF49>:
 28c:	465f 5f50 4150      	0x41505f50465f
 292:	435f4b43          	fmadd.d	f22,f30,f21,f8,rmm
 296:	4e41                	li	x28,16
 298:	43494e4f          	fnmadd.d	f28,f18,f20,f8,rmm
 29c:	4c41                	li	x24,16
 29e:	545f 655f       	0x5f00655f545f

000002a3 <.LASF30>:
 2a3:	5f5f 3164       	0x620031645f5f

000002a8 <.LASF12>:
 2a8:	6962                	flw	f18,24(x2)
 2aa:	7374                	flw	f13,100(x14)
	...

000002ad <.LASF56>:
 2ad:	5f5f 6475 7669      	0x766964755f5f
 2b3:	00336973          	csrrsi	x18,fcsr,6

000002b7 <.LASF24>:
 2b7:	5f5f 6c63 737a      	0x737a6c635f5f
 2bd:	3269                	jal	fffffc47 <seed1_volatile+0xfffbf587>
	...

000002c0 <.LASF18>:
 2c0:	6d6f682f          	0x6d6f682f
 2c4:	2f65                	jal	a7c <.L247+0x10>
 2c6:	2f7a7877          	0x2f7a7877
 2ca:	6f44                	flw	f9,28(x14)
 2cc:	6f6c6e77          	0x6f6c6e77
 2d0:	6461                	lui	x8,0x18
 2d2:	69722f73          	csrrs	x30,0x697,x4
 2d6:	2d766373          	csrrsi	x6,0x2d7,12
 2da:	2d756e67          	0x2d756e67
 2de:	6f74                	flw	f13,92(x14)
 2e0:	68636c6f          	jal	x24,36966 <.L119+0x31cc2>
 2e4:	6961                	lui	x18,0x18
 2e6:	2f6e                	fld	f30,216(x2)
 2e8:	7562                	flw	f10,56(x2)
 2ea:	6c69                	lui	x24,0x1a
 2ec:	2f64                	fld	f9,216(x14)
 2ee:	7562                	flw	f10,56(x2)
 2f0:	6c69                	lui	x24,0x1a
 2f2:	2d64                	fld	f9,216(x10)
 2f4:	2d636367          	0x2d636367
 2f8:	656e                	flw	f10,216(x2)
 2fa:	62696c77          	0x62696c77
 2fe:	732d                	lui	x6,0xfffeb
 300:	6174                	flw	f13,68(x10)
 302:	2f326567          	0x2f326567
 306:	6972                	flw	f18,28(x2)
 308:	33766373          	csrrsi	x6,mhpmevent23,12
 30c:	2d32                	fld	f26,264(x2)
 30e:	6e75                	lui	x28,0x1d
 310:	776f6e6b          	0x776f6e6b
 314:	2d6e                	fld	f26,216(x2)
 316:	6c65                	lui	x24,0x19
 318:	2f66                	fld	f30,88(x2)
 31a:	696c                	flw	f11,84(x10)
 31c:	6762                	flw	f14,24(x2)
 31e:	          	bltu	x0,x16,784 <.L129+0x24>

00000321 <.LASF16>:
 321:	20554e47          	fmsub.s	f28,f10,f5,f4,rmm
 325:	20373143          	fmadd.s	f2,f14,f3,f4,rup
 329:	3031                	jal	fffffb35 <seed1_volatile+0xfffbf475>
 32b:	322e                	fld	f4,232(x2)
 32d:	302e                	fld	f0,232(x2)
 32f:	2d20                	fld	f8,88(x10)
 331:	636d                	lui	x6,0x1b
 333:	6f6d                	lui	x30,0x1b
 335:	6564                	flw	f9,76(x10)
 337:	3d6c                	fld	f11,248(x10)
 339:	656d                	lui	x10,0x1b
 33b:	6c64                	flw	f9,92(x8)
 33d:	2d20776f          	jal	x14,760f <.L119+0x296b>
 341:	636d                	lui	x6,0x1b
 343:	6f6d                	lui	x30,0x1b
 345:	6564                	flw	f9,76(x10)
 347:	3d6c                	fld	f11,248(x10)
 349:	656d                	lui	x10,0x1b
 34b:	6c64                	flw	f9,92(x8)
 34d:	2d20776f          	jal	x14,761f <.L119+0x297b>
 351:	746d                	lui	x8,0xffffb
 353:	6e75                	lui	x28,0x1d
 355:	3d65                	jal	20d <.LASF37+0x3>
 357:	6f72                	flw	f30,28(x2)
 359:	74656b63          	bltu	x10,x6,aaf <.L249+0xf>
 35d:	2d20                	fld	f8,88(x10)
 35f:	616d                	addi	x2,x2,240
 361:	6372                	flw	f6,28(x2)
 363:	3d68                	fld	f10,248(x10)
 365:	7672                	flw	f12,60(x2)
 367:	20693233          	0x20693233
 36b:	6d2d                	lui	x26,0xb
 36d:	6261                	lui	x4,0x18
 36f:	3d69                	jal	209 <.L45+0x9>
 371:	6c69                	lui	x24,0x1a
 373:	3370                	fld	f12,224(x14)
 375:	2032                	fld	f0,264(x2)
 377:	6d2d                	lui	x26,0xb
 379:	7261                	lui	x4,0xffff8
 37b:	723d6863          	bltu	x26,x3,aab <.L249+0xb>
 37f:	3376                	fld	f6,376(x2)
 381:	6932                	flw	f18,12(x2)
 383:	2d20                	fld	f8,88(x10)
 385:	4f2d2067          	0x4f2d2067
 389:	4f2d2073          	csrs	0x4f2,x26
 38d:	2032                	fld	f0,264(x2)
 38f:	4f2d                	li	x30,11
 391:	662d2073          	csrs	0x662,x26
 395:	7562                	flw	f10,56(x2)
 397:	6c69                	lui	x24,0x1a
 399:	6964                	flw	f9,84(x10)
 39b:	676e                	flw	f14,216(x2)
 39d:	6c2d                	lui	x24,0xb
 39f:	6269                	lui	x4,0x1a
 3a1:	20636367          	0x20636367
 3a5:	662d                	lui	x12,0xb
 3a7:	6f6e                	flw	f30,216(x2)
 3a9:	732d                	lui	x6,0xfffeb
 3ab:	6174                	flw	f13,68(x10)
 3ad:	702d6b63          	bltu	x26,x2,ac3 <.L249+0x23>
 3b1:	6f72                	flw	f30,28(x2)
 3b3:	6574                	flw	f13,76(x10)
 3b5:	726f7463          	bgeu	x30,x6,add <.L250+0xd>
 3b9:	2d20                	fld	f8,88(x10)
 3bb:	7666                	flw	f12,120(x2)
 3bd:	7369                	lui	x6,0xffffa
 3bf:	6269                	lui	x4,0x1a
 3c1:	6c69                	lui	x24,0x1a
 3c3:	7469                	lui	x8,0xffffa
 3c5:	3d79                	jal	263 <.LASF43>
 3c7:	6968                	flw	f10,84(x10)
 3c9:	6464                	flw	f9,76(x8)
 3cb:	6e65                	lui	x28,0x19
	...

000003ce <.LASF44>:
 3ce:	5f5f 706f 0030      	0x30706f5f5f

000003d4 <.LASF14>:
 3d4:	665f 6d72       	0x52006d72665f

000003d9 <.LASF20>:
 3d9:	5f52                	lw	x30,52(x2)
 3db:	3166                	fld	f2,120(x2)
	...

000003de <.LASF29>:
 3de:	5f5f 6567 6664      	0x666465675f5f
 3e4:	0032                	c.slli	x0,0xc

000003e6 <.LASF7>:
 3e6:	5f5f 6367 5f63      	0x5f6363675f5f
 3ec:	74504d43          	0x74504d43
 3f0:	7079                	c.lui	x0,0xffffe
 3f2:	0065                	c.nop	25

000003f4 <.LASF20>:
 3f4:	465f 5f50 5349      	0x53495f50465f
 3fa:	4e474953          	0x4e474953
 3fe:	4e41                	li	x28,16
 400:	725f 7465       	0x2e007465725f

00000405 <.LASF26>:
 405:	2e2e                	fld	f28,200(x2)
 407:	2f2e2e2f          	0x2f2e2e2f
 40b:	2e2e                	fld	f28,200(x2)
 40d:	2f2e2e2f          	0x2f2e2e2f
 411:	6972                	flw	f18,28(x2)
 413:	2d766373          	csrrsi	x6,0x2d7,12
 417:	2f636367          	0x2f636367
 41b:	696c                	flw	f11,84(x10)
 41d:	6762                	flw	f14,24(x2)
 41f:	732f6363          	bltu	x30,x18,b45 <.LLST26+0xb>
 423:	2d74666f          	jal	x12,46ef9 <seed1_volatile+0x6839>
 427:	7066                	flw	f0,120(x2)
 429:	6465672f          	0x6465672f
 42d:	3266                	fld	f4,120(x2)
 42f:	632e                	flw	f6,200(x2)
	...

00000432 <.LASF21>:
 432:	465f 5f50 4d43      	0x4d435f50465f
 438:	5f50                	lw	x12,60(x14)
 43a:	7369                	lui	x6,0xffffa
 43c:	7a5f 7265 5f6f      	0x5f6f72657a5f
 442:	0078                	addi	x14,x2,12

00000444 <.LASF22>:
 444:	465f 5f50 4d43      	0x4d435f50465f
 44a:	5f50                	lw	x12,60(x14)
 44c:	7369                	lui	x6,0xffffa
 44e:	7a5f 7265 5f6f      	0x5f6f72657a5f
 454:	0079                	c.nop	30

00000456 <.LASF26>:
 456:	2e2e                	fld	f28,200(x2)
 458:	2f2e2e2f          	0x2f2e2e2f
 45c:	2e2e                	fld	f28,200(x2)
 45e:	2f2e2e2f          	0x2f2e2e2f
 462:	6972                	flw	f18,28(x2)
 464:	2d766373          	csrrsi	x6,0x2d7,12
 468:	2f636367          	0x2f636367
 46c:	696c                	flw	f11,84(x10)
 46e:	6762                	flw	f14,24(x2)
 470:	732f6363          	bltu	x30,x18,b96 <.LLST28+0xa>
 474:	2d74666f          	jal	x12,46f4a <seed1_volatile+0x688a>
 478:	7066                	flw	f0,120(x2)
 47a:	64656c2f          	0x64656c2f
 47e:	3266                	fld	f4,120(x2)
 480:	632e                	flw	f6,200(x2)
	...

00000483 <.LASF29>:
 483:	5f5f 656c 6664      	0x6664656c5f5f
 489:	0032                	c.slli	x0,0xc

0000048b <.LASF18>:
 48b:	465f 5f50 4f54      	0x4f545f50465f
 491:	495f 544e 695f      	0x695f544e495f
 497:	656e                	flw	f10,216(x2)
 499:	6178                	flw	f14,68(x10)
 49b:	          	bgeu	x0,x0,783 <.L129+0x23>

0000049e <.LASF22>:
 49e:	2e2e                	fld	f28,200(x2)
 4a0:	2f2e2e2f          	0x2f2e2e2f
 4a4:	2e2e                	fld	f28,200(x2)
 4a6:	2f2e2e2f          	0x2f2e2e2f
 4aa:	6972                	flw	f18,28(x2)
 4ac:	2d766373          	csrrsi	x6,0x2d7,12
 4b0:	2f636367          	0x2f636367
 4b4:	696c                	flw	f11,84(x10)
 4b6:	6762                	flw	f14,24(x2)
 4b8:	732f6363          	bltu	x30,x18,bde <.LLST29+0x1d>
 4bc:	2d74666f          	jal	x12,46f92 <seed1_volatile+0x68d2>
 4c0:	7066                	flw	f0,120(x2)
 4c2:	7869662f          	0x7869662f
 4c6:	6e75                	lui	x28,0x1d
 4c8:	73666473          	csrrsi	x8,0x736,12
 4cc:	2e69                	jal	866 <.L136+0x2>
 4ce:	          	beq	x10,x21,9ee <.L243+0x22>

000004d0 <.LASF13>:
 4d0:	                	li	x6,-11

000004d1 <.LASF12>:
 4d1:	79744953          	0x79744953
 4d5:	6570                	flw	f12,76(x10)
	...

000004d8 <.LASF25>:
 4d8:	5f5f 6966 7578      	0x757869665f5f
 4de:	736e                	flw	f6,248(x2)
 4e0:	6664                	flw	f9,76(x12)
 4e2:	          	csrrsi	x18,0x2e0,0

000004e5 <.LASF27>:
 4e5:	2e2e                	fld	f28,200(x2)
 4e7:	2f2e2e2f          	0x2f2e2e2f
 4eb:	2e2e                	fld	f28,200(x2)
 4ed:	2f2e2e2f          	0x2f2e2e2f
 4f1:	6972                	flw	f18,28(x2)
 4f3:	2d766373          	csrrsi	x6,0x2d7,12
 4f7:	2f636367          	0x2f636367
 4fb:	696c                	flw	f11,84(x10)
 4fd:	6762                	flw	f14,24(x2)
 4ff:	732f6363          	bltu	x30,x18,c25 <.L15+0x19>
 503:	2d74666f          	jal	x12,46fd9 <seed1_volatile+0x6919>
 507:	7066                	flw	f0,120(x2)
 509:	6f6c662f          	0x6f6c662f
 50d:	7461                	lui	x8,0xffff8
 50f:	6e75                	lui	x28,0x1d
 511:	66646973          	csrrsi	x18,0x666,8
 515:	632e                	flw	f6,200(x2)
	...

00000518 <.LASF19>:
 518:	465f 5f50 4150      	0x41505f50465f
 51e:	535f4b43          	fmadd.d	f22,f30,f21,f10,rmm
 522:	4d45                	li	x26,17
 524:	5249                	li	x4,-14
 526:	5741                	li	x14,-16
 528:	545f 735f       	0x7000735f545f

0000052d <.LASF31>:
 52d:	6170                	flw	f12,68(x10)
 52f:	735f6b63          	bltu	x30,x21,c65 <.L3+0x31>
 533:	6d65                	lui	x26,0x19
 535:	7269                	lui	x4,0xffffa
 537:	7761                	lui	x14,0xffff8
	...

0000053a <.LASF20>:
 53a:	465f 5f50 4150      	0x41505f50465f
 540:	535f4b43          	fmadd.d	f22,f30,f21,f10,rmm
 544:	4d45                	li	x26,17
 546:	5249                	li	x4,-14
 548:	5741                	li	x14,-16
 54a:	545f 655f       	0x5f00655f545f

0000054f <.LASF17>:
 54f:	465f 5f50 4150      	0x41505f50465f
 555:	535f4b43          	fmadd.d	f22,f30,f21,f10,rmm
 559:	4d45                	li	x26,17
 55b:	5249                	li	x4,-14
 55d:	5741                	li	x14,-16
 55f:	695f 5f73 6974      	0x69745f73695f
 565:	796e                	flw	f18,248(x2)
	...

00000568 <.LASF15>:
 568:	465f 5f50 5246      	0x52465f50465f
 56e:	495f4d4f          	fnmadd.s	f26,f30,f21,f9,rmm
 572:	544e                	lw	x8,240(x2)
 574:	755f 0072       	0x465f0072755f

00000578 <.LASF21>:
 578:	465f 5f50 4150      	0x41505f50465f
 57e:	535f4b43          	fmadd.d	f22,f30,f21,f10,rmm
 582:	4d45                	li	x26,17
 584:	5249                	li	x4,-14
 586:	5741                	li	x14,-16
 588:	545f 665f 0030      	0x30665f545f

0000058e <.LASF22>:
 58e:	465f 5f50 4150      	0x41505f50465f
 594:	535f4b43          	fmadd.d	f22,f30,f21,f10,rmm
 598:	4d45                	li	x26,17
 59a:	5249                	li	x4,-14
 59c:	5741                	li	x14,-16
 59e:	545f 665f 0031      	0x31665f545f

000005a4 <.LASF16>:
 5a4:	465f 5f50 5246      	0x52465f50465f
 5aa:	495f4d4f          	fnmadd.s	f26,f30,f21,f9,rmm
 5ae:	544e                	lw	x8,240(x2)
 5b0:	6c5f 007a       	0x465f007a6c5f

000005b4 <.LASF18>:
 5b4:	465f 5f50 4150      	0x41505f50465f
 5ba:	535f4b43          	fmadd.d	f22,f30,f21,f10,rmm
 5be:	4d45                	li	x26,17
 5c0:	5249                	li	x4,-14
 5c2:	5741                	li	x14,-16
 5c4:	545f 635f       	0x5f00635f545f

000005c9 <.LASF30>:
 5c9:	5f5f 6c66 616f      	0x616f6c665f5f
 5cf:	7574                	flw	f13,108(x10)
 5d1:	736e                	flw	f6,248(x2)
 5d3:	6469                	lui	x8,0x1a
 5d5:	0066                	c.slli	x0,0x19
 5d7:	2e2e                	fld	f28,200(x2)
 5d9:	2f2e2e2f          	0x2f2e2e2f
 5dd:	2e2e                	fld	f28,200(x2)
 5df:	2f2e2e2f          	0x2f2e2e2f
 5e3:	6972                	flw	f18,28(x2)
 5e5:	2d766373          	csrrsi	x6,0x2d7,12
 5e9:	2f636367          	0x2f636367
 5ed:	696c                	flw	f11,84(x10)
 5ef:	6762                	flw	f14,24(x2)
 5f1:	632f6363          	bltu	x30,x18,c17 <.L15+0xb>
 5f5:	69666e6f          	jal	x28,66c8b <seed1_volatile+0x265cb>
 5f9:	69722f67          	0x69722f67
 5fd:	2f766373          	csrrsi	x6,0x2f7,12
 601:	756d                	lui	x10,0xffffb
 603:	646c                	flw	f11,76(x8)
 605:	3369                	jal	38f <.L54+0x27>
 607:	532e                	lw	x6,232(x2)
 609:	4700                	lw	x8,8(x14)
 60b:	554e                	lw	x10,240(x2)
 60d:	4120                	lw	x8,64(x10)
 60f:	2e322053          	0x2e322053
 613:	2e003533          	0x2e003533
 617:	2f2e                	fld	f30,200(x2)
 619:	2e2e                	fld	f28,200(x2)
 61b:	2f2e2e2f          	0x2f2e2e2f
 61f:	2e2e                	fld	f28,200(x2)
 621:	7369722f          	0x7369722f
 625:	672d7663          	bgeu	x26,x18,c91 <.LLST32+0xd>
 629:	6c2f6363          	bltu	x30,x2,cef <.LLST34+0x9>
 62d:	6269                	lui	x4,0x1a
 62f:	2f636367          	0x2f636367
 633:	666e6f63          	bltu	x28,x6,cb1 <.L17+0x11>
 637:	6769                	lui	x14,0x1a
 639:	7369722f          	0x7369722f
 63d:	642f7663          	bgeu	x30,x2,c89 <.LLST32+0x5>
 641:	7669                	lui	x12,0xffffa
 643:	532e                	lw	x6,232(x2)
	...

00000646 <.LASF17>:
 646:	2e2e                	fld	f28,200(x2)
 648:	2f2e2e2f          	0x2f2e2e2f
 64c:	2e2e                	fld	f28,200(x2)
 64e:	2f2e2e2f          	0x2f2e2e2f
 652:	6972                	flw	f18,28(x2)
 654:	2d766373          	csrrsi	x6,0x2d7,12
 658:	2f636367          	0x2f636367
 65c:	696c                	flw	f11,84(x10)
 65e:	6762                	flw	f14,24(x2)
 660:	6c2f6363          	bltu	x30,x2,d26 <.L22+0xe>
 664:	6269                	lui	x4,0x1a
 666:	32636367          	0x32636367
 66a:	632e                	flw	f6,200(x2)
	...

0000066d <.LASF14>:
 66d:	706d6f63          	bltu	x26,x6,d8b <.L34+0x13>
 671:	656c                	flw	f11,76(x10)
 673:	2078                	fld	f14,192(x8)
 675:	6f64                	flw	f9,92(x14)
 677:	6275                	lui	x4,0x1d
 679:	656c                	flw	f11,76(x10)
	...

0000067c <.LASF19>:
 67c:	5f5f 7278       	0x5f0072785f5f

00000681 <.LASF20>:
 681:	5f5f 6c63 5f7a      	0x5f7a6c635f5f
 687:	6174                	flw	f13,68(x10)
 689:	0062                	c.slli	x0,0x18

0000068b <.LASF15>:
 68b:	706d6f63          	bltu	x26,x6,da9 <.Ldebug_info0+0xe>
 68f:	656c                	flw	f11,76(x10)
 691:	2078                	fld	f14,192(x8)

00000693 <.LASF2>:
 693:	6f6c                	flw	f11,92(x14)
 695:	676e                	flw	f14,216(x2)
 697:	                	flw	f8,72(x8)

00000698 <.LASF0>:
 698:	6f64                	flw	f9,92(x14)
 69a:	6275                	lui	x4,0x1d
 69c:	656c                	flw	f11,76(x10)
	...

0000069f <.LASF12>:
 69f:	706d6f63          	bltu	x26,x6,dbd <.LLST41+0xc>
 6a3:	656c                	flw	f11,76(x10)
 6a5:	2078                	fld	f14,192(x8)

000006a7 <.LASF11>:
 6a7:	6c66                	flw	f24,88(x2)
 6a9:	0074616f          	jal	x2,46eaf <seed1_volatile+0x67ef>

000006ad <.LASF11>:
 6ad:	5155                	li	x2,-11
 6af:	7449                	lui	x8,0xffff2
 6b1:	7079                	c.lui	x0,0xffffe
 6b3:	0065                	c.nop	25

000006b5 <.LASF5>:
 6b5:	726f6873          	csrrsi	x16,0x726,30
 6b9:	2074                	fld	f13,192(x8)
 6bb:	6e69                	lui	x28,0x1a
 6bd:	0074                	addi	x13,x2,12

Disassembly of section .debug_frame:

00000000 <.debug_frame>:
   0:	000c                	0xc
   2:	0000                	unimp
   4:	ffff                	0xffff
   6:	ffff                	0xffff
   8:	7c010003          	lb	x0,1984(x2)
   c:	0d01                	addi	x26,x26,0
   e:	0002                	c.slli64	x0
  10:	0050                	addi	x12,x2,4
  12:	0000                	unimp
  14:	0000                	unimp
  16:	0000                	unimp
  18:	35b4                	fld	f13,104(x11)
  1a:	0000                	unimp
  1c:	07e0                	addi	x8,x2,972
  1e:	0000                	unimp
  20:	0e44                	addi	x9,x2,788
  22:	4450                	lw	x12,12(x8)
  24:	0492                	slli	x9,x9,0x4
  26:	8958                	0x8958
  28:	95059303          	lh	x6,-1712(x11)
  2c:	97089607          	0x97089607
  30:	6009                	c.lui	x0,0x2
  32:	0181                	addi	x3,x3,0
  34:	0288                	addi	x10,x2,320
  36:	0694                	addi	x13,x2,832
  38:	0a98                	addi	x14,x2,336
  3a:	0b99                	addi	x23,x23,6
  3c:	0c9a                	slli	x25,x25,0x6
  3e:	fc030d9b          	0xfc030d9b
  42:	0a05                	addi	x20,x20,1
  44:	44c1                	li	x9,16
  46:	58c8                	lw	x10,52(x9)
  48:	44d2                	lw	x9,20(x2)
  4a:	44c9                	li	x9,18
  4c:	44d444d3          	0x44d444d3
  50:	44d5                	li	x9,21
  52:	44d6                	lw	x9,84(x2)
  54:	44d844d7          	0x44d844d7
  58:	44d9                	li	x9,22
  5a:	44da                	lw	x9,148(x2)
  5c:	000e4cdb          	0xe4cdb
  60:	0b44                	addi	x9,x2,404
  62:	0000                	unimp
  64:	000c                	0xc
  66:	0000                	unimp
  68:	ffff                	0xffff
  6a:	ffff                	0xffff
  6c:	7c010003          	lb	x0,1984(x2)
  70:	0d01                	addi	x26,x26,0
  72:	0002                	c.slli64	x0
  74:	000c                	0xc
  76:	0000                	unimp
  78:	0064                	addi	x9,x2,12
  7a:	0000                	unimp
  7c:	3d94                	fld	f13,56(x11)
  7e:	0000                	unimp
  80:	00e4                	addi	x9,x2,76
  82:	0000                	unimp
  84:	000c                	0xc
  86:	0000                	unimp
  88:	ffff                	0xffff
  8a:	ffff                	0xffff
  8c:	7c010003          	lb	x0,1984(x2)
  90:	0d01                	addi	x26,x26,0
  92:	0002                	c.slli64	x0
  94:	000c                	0xc
  96:	0000                	unimp
  98:	0084                	addi	x9,x2,64
  9a:	0000                	unimp
  9c:	3e78                	fld	f14,248(x12)
  9e:	0000                	unimp
  a0:	00e4                	addi	x9,x2,76
  a2:	0000                	unimp
  a4:	000c                	0xc
  a6:	0000                	unimp
  a8:	ffff                	0xffff
  aa:	ffff                	0xffff
  ac:	7c010003          	lb	x0,1984(x2)
  b0:	0d01                	addi	x26,x26,0
  b2:	0002                	c.slli64	x0
  b4:	000c                	0xc
  b6:	0000                	unimp
  b8:	00a4                	addi	x9,x2,72
  ba:	0000                	unimp
  bc:	3f5c                	fld	f15,184(x14)
  be:	0000                	unimp
  c0:	007c                	addi	x15,x2,12
  c2:	0000                	unimp
  c4:	000c                	0xc
  c6:	0000                	unimp
  c8:	ffff                	0xffff
  ca:	ffff                	0xffff
  cc:	7c010003          	lb	x0,1984(x2)
  d0:	0d01                	addi	x26,x26,0
  d2:	0002                	c.slli64	x0
  d4:	0020                	addi	x8,x2,8
  d6:	0000                	unimp
  d8:	00c4                	addi	x9,x2,68
  da:	0000                	unimp
  dc:	3fd8                	fld	f14,184(x15)
  de:	0000                	unimp
  e0:	0080                	addi	x8,x2,64
  e2:	0000                	unimp
  e4:	0e44                	addi	x9,x2,788
  e6:	4810                	lw	x12,16(x8)
  e8:	0288                	addi	x10,x2,320
  ea:	0181                	addi	x3,x3,0
  ec:	0a74                	addi	x13,x2,284
  ee:	4cc1                	li	x25,16
  f0:	54c8                	lw	x10,44(x9)
  f2:	000e                	c.slli	x0,0x3
  f4:	0b44                	addi	x9,x2,404
  f6:	0000                	unimp
  f8:	000c                	0xc
  fa:	0000                	unimp
  fc:	ffff                	0xffff
  fe:	ffff                	0xffff
 100:	7c010003          	lb	x0,1984(x2)
 104:	0d01                	addi	x26,x26,0
 106:	0002                	c.slli64	x0
 108:	000c                	0xc
 10a:	0000                	unimp
 10c:	00f8                	addi	x14,x2,76
 10e:	0000                	unimp
 110:	4130                	lw	x12,64(x10)
 112:	0000                	unimp
 114:	004c                	addi	x11,x2,4
	...
