
/home/wxz/data/RV32_chisel/benchmark/sim_hex/main.elf:     file format elf32-littleriscv


Disassembly of section .text:

00000000 <_start>:
       0:	00010137          	lui	x2,0x10
       4:	ff010113          	addi	x2,x2,-16 # fff0 <.L119+0xb34c>
       8:	7f0301b7          	lui	x3,0x7f030
       c:	00000293          	li	x5,0
      10:	00518023          	sb	x5,0(x3) # 7f030000 <seed1_volatile+0x7efef940>
      14:	0140006f          	j	28 <_call_main>

00000018 <_finish>:
      18:	7f0301b7          	lui	x3,0x7f030
      1c:	0ff00293          	li	x5,255
      20:	00518023          	sb	x5,0(x3) # 7f030000 <seed1_volatile+0x7efef940>
      24:	fe000ae3          	beqz	x0,18 <_finish>

00000028 <_call_main>:
      28:	154040ef          	jal	x1,417c <_end>
      2c:	fedff06f          	j	18 <_finish>

00000030 <get_seed_32>:
      30:	00500793          	li	x15,5
      34:	04a7ec63          	bltu	x15,x10,8c <.L9>
      38:	000407b7          	lui	x15,0x40
      3c:	00078793          	mv	x15,x15
      40:	00251513          	slli	x10,x10,0x2
      44:	00f50533          	add	x10,x10,x15
      48:	00052783          	lw	x15,0(x10) # 1d000 <.L119+0x1835c>
      4c:	00078067          	jr	x15 # 40000 <.L4>

00000050 <.L3>:
      50:	000407b7          	lui	x15,0x40
      54:	6b87a503          	lw	x10,1720(x15) # 406b8 <seed5_volatile>
      58:	00008067          	ret

0000005c <.L8>:
      5c:	000407b7          	lui	x15,0x40
      60:	6c07a503          	lw	x10,1728(x15) # 406c0 <seed1_volatile>
      64:	00008067          	ret

00000068 <.L7>:
      68:	000407b7          	lui	x15,0x40
      6c:	6bc7a503          	lw	x10,1724(x15) # 406bc <seed2_volatile>
      70:	00008067          	ret

00000074 <.L6>:
      74:	000407b7          	lui	x15,0x40
      78:	0647a503          	lw	x10,100(x15) # 40064 <seed3_volatile>
      7c:	00008067          	ret

00000080 <.L5>:
      80:	000407b7          	lui	x15,0x40
      84:	0607a503          	lw	x10,96(x15) # 40060 <seed4_volatile>
      88:	00008067          	ret

0000008c <.L9>:
      8c:	00000513          	li	x10,0
      90:	00008067          	ret

00000094 <crcu8>:
      94:	00b546b3          	xor	x13,x10,x11
      98:	0016f693          	andi	x13,x13,1
      9c:	00155713          	srli	x14,x10,0x1
      a0:	0015d793          	srli	x15,x11,0x1
      a4:	00068c63          	beqz	x13,bc <.L12>
      a8:	ffffa6b7          	lui	x13,0xffffa
      ac:	00168693          	addi	x13,x13,1 # ffffa001 <seed1_volatile+0xfffb9941>
      b0:	00d7c7b3          	xor	x15,x15,x13
      b4:	01079793          	slli	x15,x15,0x10
      b8:	0107d793          	srli	x15,x15,0x10

000000bc <.L12>:
      bc:	00e7c733          	xor	x14,x15,x14
      c0:	00177713          	andi	x14,x14,1
      c4:	00255693          	srli	x13,x10,0x2
      c8:	0017d793          	srli	x15,x15,0x1
      cc:	00070c63          	beqz	x14,e4 <.L13>
      d0:	ffffa737          	lui	x14,0xffffa
      d4:	00170713          	addi	x14,x14,1 # ffffa001 <seed1_volatile+0xfffb9941>
      d8:	00e7c7b3          	xor	x15,x15,x14
      dc:	01079793          	slli	x15,x15,0x10
      e0:	0107d793          	srli	x15,x15,0x10

000000e4 <.L13>:
      e4:	00d7c6b3          	xor	x13,x15,x13
      e8:	0016f693          	andi	x13,x13,1
      ec:	00355713          	srli	x14,x10,0x3
      f0:	0017d793          	srli	x15,x15,0x1
      f4:	00068c63          	beqz	x13,10c <.L14>
      f8:	ffffa6b7          	lui	x13,0xffffa
      fc:	00168693          	addi	x13,x13,1 # ffffa001 <seed1_volatile+0xfffb9941>
     100:	00d7c7b3          	xor	x15,x15,x13
     104:	01079793          	slli	x15,x15,0x10
     108:	0107d793          	srli	x15,x15,0x10

0000010c <.L14>:
     10c:	00e7c733          	xor	x14,x15,x14
     110:	00177713          	andi	x14,x14,1
     114:	00455693          	srli	x13,x10,0x4
     118:	0017d793          	srli	x15,x15,0x1
     11c:	00070c63          	beqz	x14,134 <.L15>
     120:	ffffa737          	lui	x14,0xffffa
     124:	00170713          	addi	x14,x14,1 # ffffa001 <seed1_volatile+0xfffb9941>
     128:	00e7c7b3          	xor	x15,x15,x14
     12c:	01079793          	slli	x15,x15,0x10
     130:	0107d793          	srli	x15,x15,0x10

00000134 <.L15>:
     134:	00d7c6b3          	xor	x13,x15,x13
     138:	0016f693          	andi	x13,x13,1
     13c:	00555713          	srli	x14,x10,0x5
     140:	0017d793          	srli	x15,x15,0x1
     144:	00068c63          	beqz	x13,15c <.L16>
     148:	ffffa6b7          	lui	x13,0xffffa
     14c:	00168693          	addi	x13,x13,1 # ffffa001 <seed1_volatile+0xfffb9941>
     150:	00d7c7b3          	xor	x15,x15,x13
     154:	01079793          	slli	x15,x15,0x10
     158:	0107d793          	srli	x15,x15,0x10

0000015c <.L16>:
     15c:	00e7c733          	xor	x14,x15,x14
     160:	00177713          	andi	x14,x14,1
     164:	00655693          	srli	x13,x10,0x6
     168:	0017d793          	srli	x15,x15,0x1
     16c:	00070c63          	beqz	x14,184 <.L17>
     170:	ffffa737          	lui	x14,0xffffa
     174:	00170713          	addi	x14,x14,1 # ffffa001 <seed1_volatile+0xfffb9941>
     178:	00e7c7b3          	xor	x15,x15,x14
     17c:	01079793          	slli	x15,x15,0x10
     180:	0107d793          	srli	x15,x15,0x10

00000184 <.L17>:
     184:	00d7c6b3          	xor	x13,x15,x13
     188:	0016f693          	andi	x13,x13,1
     18c:	00755713          	srli	x14,x10,0x7
     190:	0017d513          	srli	x10,x15,0x1
     194:	00068c63          	beqz	x13,1ac <.L18>
     198:	ffffa7b7          	lui	x15,0xffffa
     19c:	00178793          	addi	x15,x15,1 # ffffa001 <seed1_volatile+0xfffb9941>
     1a0:	00f54533          	xor	x10,x10,x15
     1a4:	01051513          	slli	x10,x10,0x10
     1a8:	01055513          	srli	x10,x10,0x10

000001ac <.L18>:
     1ac:	00157793          	andi	x15,x10,1
     1b0:	00155513          	srli	x10,x10,0x1
     1b4:	00e78c63          	beq	x15,x14,1cc <.L19>
     1b8:	ffffa7b7          	lui	x15,0xffffa
     1bc:	00178793          	addi	x15,x15,1 # ffffa001 <seed1_volatile+0xfffb9941>
     1c0:	00f54533          	xor	x10,x10,x15
     1c4:	01051513          	slli	x10,x10,0x10
     1c8:	01055513          	srli	x10,x10,0x10

000001cc <.L19>:
     1cc:	00008067          	ret

000001d0 <crcu16>:
     1d0:	00a5c6b3          	xor	x13,x11,x10
     1d4:	0ff57713          	andi	x14,x10,255
     1d8:	0016f693          	andi	x13,x13,1
     1dc:	00050793          	mv	x15,x10
     1e0:	00175613          	srli	x12,x14,0x1
     1e4:	0015d513          	srli	x10,x11,0x1
     1e8:	00068c63          	beqz	x13,200 <.L45>
     1ec:	ffffa6b7          	lui	x13,0xffffa
     1f0:	00168693          	addi	x13,x13,1 # ffffa001 <seed1_volatile+0xfffb9941>
     1f4:	00d54533          	xor	x10,x10,x13
     1f8:	01051513          	slli	x10,x10,0x10
     1fc:	01055513          	srli	x10,x10,0x10

00000200 <.L45>:
     200:	00c54633          	xor	x12,x10,x12
     204:	00167613          	andi	x12,x12,1
     208:	00275693          	srli	x13,x14,0x2
     20c:	00155513          	srli	x10,x10,0x1
     210:	00060c63          	beqz	x12,228 <.L46>
     214:	ffffa637          	lui	x12,0xffffa
     218:	00160613          	addi	x12,x12,1 # ffffa001 <seed1_volatile+0xfffb9941>
     21c:	00c54533          	xor	x10,x10,x12
     220:	01051513          	slli	x10,x10,0x10
     224:	01055513          	srli	x10,x10,0x10

00000228 <.L46>:
     228:	00d546b3          	xor	x13,x10,x13
     22c:	0016f693          	andi	x13,x13,1
     230:	00375613          	srli	x12,x14,0x3
     234:	00155513          	srli	x10,x10,0x1
     238:	00068c63          	beqz	x13,250 <.L47>
     23c:	ffffa6b7          	lui	x13,0xffffa
     240:	00168693          	addi	x13,x13,1 # ffffa001 <seed1_volatile+0xfffb9941>
     244:	00d54533          	xor	x10,x10,x13
     248:	01051513          	slli	x10,x10,0x10
     24c:	01055513          	srli	x10,x10,0x10

00000250 <.L47>:
     250:	00c54633          	xor	x12,x10,x12
     254:	00167613          	andi	x12,x12,1
     258:	00475693          	srli	x13,x14,0x4
     25c:	00155513          	srli	x10,x10,0x1
     260:	00060c63          	beqz	x12,278 <.L48>
     264:	ffffa637          	lui	x12,0xffffa
     268:	00160613          	addi	x12,x12,1 # ffffa001 <seed1_volatile+0xfffb9941>
     26c:	00c54533          	xor	x10,x10,x12
     270:	01051513          	slli	x10,x10,0x10
     274:	01055513          	srli	x10,x10,0x10

00000278 <.L48>:
     278:	00d546b3          	xor	x13,x10,x13
     27c:	0016f693          	andi	x13,x13,1
     280:	00575613          	srli	x12,x14,0x5
     284:	00155513          	srli	x10,x10,0x1
     288:	00068c63          	beqz	x13,2a0 <.L49>
     28c:	ffffa6b7          	lui	x13,0xffffa
     290:	00168693          	addi	x13,x13,1 # ffffa001 <seed1_volatile+0xfffb9941>
     294:	00d54533          	xor	x10,x10,x13
     298:	01051513          	slli	x10,x10,0x10
     29c:	01055513          	srli	x10,x10,0x10

000002a0 <.L49>:
     2a0:	00c54633          	xor	x12,x10,x12
     2a4:	00167613          	andi	x12,x12,1
     2a8:	00675693          	srli	x13,x14,0x6
     2ac:	00155513          	srli	x10,x10,0x1
     2b0:	00060c63          	beqz	x12,2c8 <.L50>
     2b4:	ffffa637          	lui	x12,0xffffa
     2b8:	00160613          	addi	x12,x12,1 # ffffa001 <seed1_volatile+0xfffb9941>
     2bc:	00c54533          	xor	x10,x10,x12
     2c0:	01051513          	slli	x10,x10,0x10
     2c4:	01055513          	srli	x10,x10,0x10

000002c8 <.L50>:
     2c8:	00d546b3          	xor	x13,x10,x13
     2cc:	0016f693          	andi	x13,x13,1
     2d0:	00775713          	srli	x14,x14,0x7
     2d4:	00155513          	srli	x10,x10,0x1
     2d8:	00068c63          	beqz	x13,2f0 <.L51>
     2dc:	ffffa6b7          	lui	x13,0xffffa
     2e0:	00168693          	addi	x13,x13,1 # ffffa001 <seed1_volatile+0xfffb9941>
     2e4:	00d54533          	xor	x10,x10,x13
     2e8:	01051513          	slli	x10,x10,0x10
     2ec:	01055513          	srli	x10,x10,0x10

000002f0 <.L51>:
     2f0:	00157693          	andi	x13,x10,1
     2f4:	00155513          	srli	x10,x10,0x1
     2f8:	00e68c63          	beq	x13,x14,310 <.L52>
     2fc:	ffffa737          	lui	x14,0xffffa
     300:	00170713          	addi	x14,x14,1 # ffffa001 <seed1_volatile+0xfffb9941>
     304:	00e54533          	xor	x10,x10,x14
     308:	01051513          	slli	x10,x10,0x10
     30c:	01055513          	srli	x10,x10,0x10

00000310 <.L52>:
     310:	0087d693          	srli	x13,x15,0x8
     314:	00a6c6b3          	xor	x13,x13,x10
     318:	0016f693          	andi	x13,x13,1
     31c:	0087d713          	srli	x14,x15,0x8
     320:	00155513          	srli	x10,x10,0x1
     324:	0097d793          	srli	x15,x15,0x9
     328:	00068c63          	beqz	x13,340 <.L53>
     32c:	ffffa6b7          	lui	x13,0xffffa
     330:	00168693          	addi	x13,x13,1 # ffffa001 <seed1_volatile+0xfffb9941>
     334:	00d54533          	xor	x10,x10,x13
     338:	01051513          	slli	x10,x10,0x10
     33c:	01055513          	srli	x10,x10,0x10

00000340 <.L53>:
     340:	00a7c7b3          	xor	x15,x15,x10
     344:	0017f793          	andi	x15,x15,1
     348:	00275693          	srli	x13,x14,0x2
     34c:	00155513          	srli	x10,x10,0x1
     350:	00078c63          	beqz	x15,368 <.L54>
     354:	ffffa7b7          	lui	x15,0xffffa
     358:	00178793          	addi	x15,x15,1 # ffffa001 <seed1_volatile+0xfffb9941>
     35c:	00f54533          	xor	x10,x10,x15
     360:	01051513          	slli	x10,x10,0x10
     364:	01055513          	srli	x10,x10,0x10

00000368 <.L54>:
     368:	00d547b3          	xor	x15,x10,x13
     36c:	0017f793          	andi	x15,x15,1
     370:	00375693          	srli	x13,x14,0x3
     374:	00155513          	srli	x10,x10,0x1
     378:	00078c63          	beqz	x15,390 <.L55>
     37c:	ffffa7b7          	lui	x15,0xffffa
     380:	00178793          	addi	x15,x15,1 # ffffa001 <seed1_volatile+0xfffb9941>
     384:	00f54533          	xor	x10,x10,x15
     388:	01051513          	slli	x10,x10,0x10
     38c:	01055513          	srli	x10,x10,0x10

00000390 <.L55>:
     390:	00d546b3          	xor	x13,x10,x13
     394:	0016f693          	andi	x13,x13,1
     398:	00475793          	srli	x15,x14,0x4
     39c:	00155513          	srli	x10,x10,0x1
     3a0:	00068c63          	beqz	x13,3b8 <.L56>
     3a4:	ffffa6b7          	lui	x13,0xffffa
     3a8:	00168693          	addi	x13,x13,1 # ffffa001 <seed1_volatile+0xfffb9941>
     3ac:	00d54533          	xor	x10,x10,x13
     3b0:	01051513          	slli	x10,x10,0x10
     3b4:	01055513          	srli	x10,x10,0x10

000003b8 <.L56>:
     3b8:	00f547b3          	xor	x15,x10,x15
     3bc:	0017f793          	andi	x15,x15,1
     3c0:	00575693          	srli	x13,x14,0x5
     3c4:	00155513          	srli	x10,x10,0x1
     3c8:	00078c63          	beqz	x15,3e0 <.L57>
     3cc:	ffffa7b7          	lui	x15,0xffffa
     3d0:	00178793          	addi	x15,x15,1 # ffffa001 <seed1_volatile+0xfffb9941>
     3d4:	00f54533          	xor	x10,x10,x15
     3d8:	01051513          	slli	x10,x10,0x10
     3dc:	01055513          	srli	x10,x10,0x10

000003e0 <.L57>:
     3e0:	00d546b3          	xor	x13,x10,x13
     3e4:	0016f693          	andi	x13,x13,1
     3e8:	00675793          	srli	x15,x14,0x6
     3ec:	00155513          	srli	x10,x10,0x1
     3f0:	00068c63          	beqz	x13,408 <.L58>
     3f4:	ffffa6b7          	lui	x13,0xffffa
     3f8:	00168693          	addi	x13,x13,1 # ffffa001 <seed1_volatile+0xfffb9941>
     3fc:	00d54533          	xor	x10,x10,x13
     400:	01051513          	slli	x10,x10,0x10
     404:	01055513          	srli	x10,x10,0x10

00000408 <.L58>:
     408:	00f547b3          	xor	x15,x10,x15
     40c:	0017f793          	andi	x15,x15,1
     410:	00775713          	srli	x14,x14,0x7
     414:	00155513          	srli	x10,x10,0x1
     418:	00078c63          	beqz	x15,430 <.L59>
     41c:	ffffa7b7          	lui	x15,0xffffa
     420:	00178793          	addi	x15,x15,1 # ffffa001 <seed1_volatile+0xfffb9941>
     424:	00f54533          	xor	x10,x10,x15
     428:	01051513          	slli	x10,x10,0x10
     42c:	01055513          	srli	x10,x10,0x10

00000430 <.L59>:
     430:	00157793          	andi	x15,x10,1
     434:	00155513          	srli	x10,x10,0x1
     438:	00e78c63          	beq	x15,x14,450 <.L60>
     43c:	ffffa7b7          	lui	x15,0xffffa
     440:	00178793          	addi	x15,x15,1 # ffffa001 <seed1_volatile+0xfffb9941>
     444:	00f54533          	xor	x10,x10,x15
     448:	01051513          	slli	x10,x10,0x10
     44c:	01055513          	srli	x10,x10,0x10

00000450 <.L60>:
     450:	00008067          	ret

00000454 <crcu32>:
     454:	00a5c833          	xor	x16,x11,x10
     458:	0ff57693          	andi	x13,x10,255
     45c:	01051713          	slli	x14,x10,0x10
     460:	00187813          	andi	x16,x16,1
     464:	00050793          	mv	x15,x10
     468:	01075713          	srli	x14,x14,0x10
     46c:	0016d613          	srli	x12,x13,0x1
     470:	0015d513          	srli	x10,x11,0x1
     474:	00080c63          	beqz	x16,48c <.L110>
     478:	ffffa5b7          	lui	x11,0xffffa
     47c:	00158593          	addi	x11,x11,1 # ffffa001 <seed1_volatile+0xfffb9941>
     480:	00b54533          	xor	x10,x10,x11
     484:	01051513          	slli	x10,x10,0x10
     488:	01055513          	srli	x10,x10,0x10

0000048c <.L110>:
     48c:	00c545b3          	xor	x11,x10,x12
     490:	0015f593          	andi	x11,x11,1
     494:	0026d613          	srli	x12,x13,0x2
     498:	00155513          	srli	x10,x10,0x1
     49c:	00058c63          	beqz	x11,4b4 <.L111>
     4a0:	ffffa5b7          	lui	x11,0xffffa
     4a4:	00158593          	addi	x11,x11,1 # ffffa001 <seed1_volatile+0xfffb9941>
     4a8:	00b54533          	xor	x10,x10,x11
     4ac:	01051513          	slli	x10,x10,0x10
     4b0:	01055513          	srli	x10,x10,0x10

000004b4 <.L111>:
     4b4:	00c54633          	xor	x12,x10,x12
     4b8:	00167613          	andi	x12,x12,1
     4bc:	0036d593          	srli	x11,x13,0x3
     4c0:	00155513          	srli	x10,x10,0x1
     4c4:	00060c63          	beqz	x12,4dc <.L112>
     4c8:	ffffa637          	lui	x12,0xffffa
     4cc:	00160613          	addi	x12,x12,1 # ffffa001 <seed1_volatile+0xfffb9941>
     4d0:	00c54533          	xor	x10,x10,x12
     4d4:	01051513          	slli	x10,x10,0x10
     4d8:	01055513          	srli	x10,x10,0x10

000004dc <.L112>:
     4dc:	00b545b3          	xor	x11,x10,x11
     4e0:	0015f593          	andi	x11,x11,1
     4e4:	0046d613          	srli	x12,x13,0x4
     4e8:	00155513          	srli	x10,x10,0x1
     4ec:	00058c63          	beqz	x11,504 <.L113>
     4f0:	ffffa5b7          	lui	x11,0xffffa
     4f4:	00158593          	addi	x11,x11,1 # ffffa001 <seed1_volatile+0xfffb9941>
     4f8:	00b54533          	xor	x10,x10,x11
     4fc:	01051513          	slli	x10,x10,0x10
     500:	01055513          	srli	x10,x10,0x10

00000504 <.L113>:
     504:	00c54633          	xor	x12,x10,x12
     508:	00167613          	andi	x12,x12,1
     50c:	0056d593          	srli	x11,x13,0x5
     510:	00155513          	srli	x10,x10,0x1
     514:	00060c63          	beqz	x12,52c <.L114>
     518:	ffffa637          	lui	x12,0xffffa
     51c:	00160613          	addi	x12,x12,1 # ffffa001 <seed1_volatile+0xfffb9941>
     520:	00c54533          	xor	x10,x10,x12
     524:	01051513          	slli	x10,x10,0x10
     528:	01055513          	srli	x10,x10,0x10

0000052c <.L114>:
     52c:	00b545b3          	xor	x11,x10,x11
     530:	0015f593          	andi	x11,x11,1
     534:	0066d613          	srli	x12,x13,0x6
     538:	00155513          	srli	x10,x10,0x1
     53c:	00058c63          	beqz	x11,554 <.L115>
     540:	ffffa5b7          	lui	x11,0xffffa
     544:	00158593          	addi	x11,x11,1 # ffffa001 <seed1_volatile+0xfffb9941>
     548:	00b54533          	xor	x10,x10,x11
     54c:	01051513          	slli	x10,x10,0x10
     550:	01055513          	srli	x10,x10,0x10

00000554 <.L115>:
     554:	00c54633          	xor	x12,x10,x12
     558:	00167613          	andi	x12,x12,1
     55c:	0076d693          	srli	x13,x13,0x7
     560:	00155513          	srli	x10,x10,0x1
     564:	00060c63          	beqz	x12,57c <.L116>
     568:	ffffa637          	lui	x12,0xffffa
     56c:	00160613          	addi	x12,x12,1 # ffffa001 <seed1_volatile+0xfffb9941>
     570:	00c54533          	xor	x10,x10,x12
     574:	01051513          	slli	x10,x10,0x10
     578:	01055513          	srli	x10,x10,0x10

0000057c <.L116>:
     57c:	00157613          	andi	x12,x10,1
     580:	00155513          	srli	x10,x10,0x1
     584:	3cd61a63          	bne	x12,x13,958 <.L238>

00000588 <.L117>:
     588:	00875613          	srli	x12,x14,0x8
     58c:	00c54633          	xor	x12,x10,x12
     590:	00167613          	andi	x12,x12,1
     594:	00875693          	srli	x13,x14,0x8
     598:	00155513          	srli	x10,x10,0x1
     59c:	00975713          	srli	x14,x14,0x9
     5a0:	00060c63          	beqz	x12,5b8 <.L118>
     5a4:	ffffa637          	lui	x12,0xffffa
     5a8:	00160613          	addi	x12,x12,1 # ffffa001 <seed1_volatile+0xfffb9941>
     5ac:	00c54533          	xor	x10,x10,x12
     5b0:	01051513          	slli	x10,x10,0x10
     5b4:	01055513          	srli	x10,x10,0x10

000005b8 <.L118>:
     5b8:	00e54733          	xor	x14,x10,x14
     5bc:	00177713          	andi	x14,x14,1
     5c0:	0026d613          	srli	x12,x13,0x2
     5c4:	00155513          	srli	x10,x10,0x1
     5c8:	00070c63          	beqz	x14,5e0 <.L119>
     5cc:	ffffa737          	lui	x14,0xffffa
     5d0:	00170713          	addi	x14,x14,1 # ffffa001 <seed1_volatile+0xfffb9941>
     5d4:	00e54533          	xor	x10,x10,x14
     5d8:	01051513          	slli	x10,x10,0x10
     5dc:	01055513          	srli	x10,x10,0x10

000005e0 <.L119>:
     5e0:	00c54733          	xor	x14,x10,x12
     5e4:	00177713          	andi	x14,x14,1
     5e8:	0036d613          	srli	x12,x13,0x3
     5ec:	00155513          	srli	x10,x10,0x1
     5f0:	00070c63          	beqz	x14,608 <.L120>
     5f4:	ffffa737          	lui	x14,0xffffa
     5f8:	00170713          	addi	x14,x14,1 # ffffa001 <seed1_volatile+0xfffb9941>
     5fc:	00e54533          	xor	x10,x10,x14
     600:	01051513          	slli	x10,x10,0x10
     604:	01055513          	srli	x10,x10,0x10

00000608 <.L120>:
     608:	00c54633          	xor	x12,x10,x12
     60c:	00167613          	andi	x12,x12,1
     610:	0046d713          	srli	x14,x13,0x4
     614:	00155513          	srli	x10,x10,0x1
     618:	00060c63          	beqz	x12,630 <.L121>
     61c:	ffffa637          	lui	x12,0xffffa
     620:	00160613          	addi	x12,x12,1 # ffffa001 <seed1_volatile+0xfffb9941>
     624:	00c54533          	xor	x10,x10,x12
     628:	01051513          	slli	x10,x10,0x10
     62c:	01055513          	srli	x10,x10,0x10

00000630 <.L121>:
     630:	00e54733          	xor	x14,x10,x14
     634:	00177713          	andi	x14,x14,1
     638:	0056d613          	srli	x12,x13,0x5
     63c:	00155513          	srli	x10,x10,0x1
     640:	00070c63          	beqz	x14,658 <.L122>
     644:	ffffa737          	lui	x14,0xffffa
     648:	00170713          	addi	x14,x14,1 # ffffa001 <seed1_volatile+0xfffb9941>
     64c:	00e54533          	xor	x10,x10,x14
     650:	01051513          	slli	x10,x10,0x10
     654:	01055513          	srli	x10,x10,0x10

00000658 <.L122>:
     658:	00c54633          	xor	x12,x10,x12
     65c:	00167613          	andi	x12,x12,1
     660:	0066d713          	srli	x14,x13,0x6
     664:	00155513          	srli	x10,x10,0x1
     668:	00060c63          	beqz	x12,680 <.L123>
     66c:	ffffa637          	lui	x12,0xffffa
     670:	00160613          	addi	x12,x12,1 # ffffa001 <seed1_volatile+0xfffb9941>
     674:	00c54533          	xor	x10,x10,x12
     678:	01051513          	slli	x10,x10,0x10
     67c:	01055513          	srli	x10,x10,0x10

00000680 <.L123>:
     680:	00e54733          	xor	x14,x10,x14
     684:	00177713          	andi	x14,x14,1
     688:	0076d693          	srli	x13,x13,0x7
     68c:	00155513          	srli	x10,x10,0x1
     690:	00070c63          	beqz	x14,6a8 <.L124>
     694:	ffffa737          	lui	x14,0xffffa
     698:	00170713          	addi	x14,x14,1 # ffffa001 <seed1_volatile+0xfffb9941>
     69c:	00e54533          	xor	x10,x10,x14
     6a0:	01051513          	slli	x10,x10,0x10
     6a4:	01055513          	srli	x10,x10,0x10

000006a8 <.L124>:
     6a8:	00157713          	andi	x14,x10,1
     6ac:	00155513          	srli	x10,x10,0x1
     6b0:	28d71863          	bne	x14,x13,940 <.L239>

000006b4 <.L125>:
     6b4:	0107d713          	srli	x14,x15,0x10
     6b8:	00e546b3          	xor	x13,x10,x14
     6bc:	0016f693          	andi	x13,x13,1
     6c0:	0ff77713          	andi	x14,x14,255
     6c4:	0107d793          	srli	x15,x15,0x10
     6c8:	00175613          	srli	x12,x14,0x1
     6cc:	00155513          	srli	x10,x10,0x1
     6d0:	00068c63          	beqz	x13,6e8 <.L126>
     6d4:	ffffa6b7          	lui	x13,0xffffa
     6d8:	00168693          	addi	x13,x13,1 # ffffa001 <seed1_volatile+0xfffb9941>
     6dc:	00d54533          	xor	x10,x10,x13
     6e0:	01051513          	slli	x10,x10,0x10
     6e4:	01055513          	srli	x10,x10,0x10

000006e8 <.L126>:
     6e8:	00c54633          	xor	x12,x10,x12
     6ec:	00167613          	andi	x12,x12,1
     6f0:	00275693          	srli	x13,x14,0x2
     6f4:	00155513          	srli	x10,x10,0x1
     6f8:	00060c63          	beqz	x12,710 <.L127>
     6fc:	ffffa637          	lui	x12,0xffffa
     700:	00160613          	addi	x12,x12,1 # ffffa001 <seed1_volatile+0xfffb9941>
     704:	00c54533          	xor	x10,x10,x12
     708:	01051513          	slli	x10,x10,0x10
     70c:	01055513          	srli	x10,x10,0x10

00000710 <.L127>:
     710:	00d546b3          	xor	x13,x10,x13
     714:	0016f693          	andi	x13,x13,1
     718:	00375613          	srli	x12,x14,0x3
     71c:	00155513          	srli	x10,x10,0x1
     720:	00068c63          	beqz	x13,738 <.L128>
     724:	ffffa6b7          	lui	x13,0xffffa
     728:	00168693          	addi	x13,x13,1 # ffffa001 <seed1_volatile+0xfffb9941>
     72c:	00d54533          	xor	x10,x10,x13
     730:	01051513          	slli	x10,x10,0x10
     734:	01055513          	srli	x10,x10,0x10

00000738 <.L128>:
     738:	00c54633          	xor	x12,x10,x12
     73c:	00167613          	andi	x12,x12,1
     740:	00475693          	srli	x13,x14,0x4
     744:	00155513          	srli	x10,x10,0x1
     748:	00060c63          	beqz	x12,760 <.L129>
     74c:	ffffa637          	lui	x12,0xffffa
     750:	00160613          	addi	x12,x12,1 # ffffa001 <seed1_volatile+0xfffb9941>
     754:	00c54533          	xor	x10,x10,x12
     758:	01051513          	slli	x10,x10,0x10
     75c:	01055513          	srli	x10,x10,0x10

00000760 <.L129>:
     760:	00d546b3          	xor	x13,x10,x13
     764:	0016f693          	andi	x13,x13,1
     768:	00575613          	srli	x12,x14,0x5
     76c:	00155513          	srli	x10,x10,0x1
     770:	00068c63          	beqz	x13,788 <.L130>
     774:	ffffa6b7          	lui	x13,0xffffa
     778:	00168693          	addi	x13,x13,1 # ffffa001 <seed1_volatile+0xfffb9941>
     77c:	00d54533          	xor	x10,x10,x13
     780:	01051513          	slli	x10,x10,0x10
     784:	01055513          	srli	x10,x10,0x10

00000788 <.L130>:
     788:	00c54633          	xor	x12,x10,x12
     78c:	00167613          	andi	x12,x12,1
     790:	00675693          	srli	x13,x14,0x6
     794:	00155513          	srli	x10,x10,0x1
     798:	00060c63          	beqz	x12,7b0 <.L131>
     79c:	ffffa637          	lui	x12,0xffffa
     7a0:	00160613          	addi	x12,x12,1 # ffffa001 <seed1_volatile+0xfffb9941>
     7a4:	00c54533          	xor	x10,x10,x12
     7a8:	01051513          	slli	x10,x10,0x10
     7ac:	01055513          	srli	x10,x10,0x10

000007b0 <.L131>:
     7b0:	00d546b3          	xor	x13,x10,x13
     7b4:	0016f693          	andi	x13,x13,1
     7b8:	00775713          	srli	x14,x14,0x7
     7bc:	00155513          	srli	x10,x10,0x1
     7c0:	00068c63          	beqz	x13,7d8 <.L132>
     7c4:	ffffa6b7          	lui	x13,0xffffa
     7c8:	00168693          	addi	x13,x13,1 # ffffa001 <seed1_volatile+0xfffb9941>
     7cc:	00d54533          	xor	x10,x10,x13
     7d0:	01051513          	slli	x10,x10,0x10
     7d4:	01055513          	srli	x10,x10,0x10

000007d8 <.L132>:
     7d8:	00157693          	andi	x13,x10,1
     7dc:	00155513          	srli	x10,x10,0x1
     7e0:	14e69463          	bne	x13,x14,928 <.L240>

000007e4 <.L133>:
     7e4:	0087d693          	srli	x13,x15,0x8
     7e8:	00a6c6b3          	xor	x13,x13,x10
     7ec:	0016f693          	andi	x13,x13,1
     7f0:	0087d713          	srli	x14,x15,0x8
     7f4:	00155513          	srli	x10,x10,0x1
     7f8:	0097d793          	srli	x15,x15,0x9
     7fc:	00068c63          	beqz	x13,814 <.L134>
     800:	ffffa6b7          	lui	x13,0xffffa
     804:	00168693          	addi	x13,x13,1 # ffffa001 <seed1_volatile+0xfffb9941>
     808:	00d54533          	xor	x10,x10,x13
     80c:	01051513          	slli	x10,x10,0x10
     810:	01055513          	srli	x10,x10,0x10

00000814 <.L134>:
     814:	00f547b3          	xor	x15,x10,x15
     818:	0017f793          	andi	x15,x15,1
     81c:	00275693          	srli	x13,x14,0x2
     820:	00155513          	srli	x10,x10,0x1
     824:	00078c63          	beqz	x15,83c <.L135>
     828:	ffffa7b7          	lui	x15,0xffffa
     82c:	00178793          	addi	x15,x15,1 # ffffa001 <seed1_volatile+0xfffb9941>
     830:	00f54533          	xor	x10,x10,x15
     834:	01051513          	slli	x10,x10,0x10
     838:	01055513          	srli	x10,x10,0x10

0000083c <.L135>:
     83c:	00a6c7b3          	xor	x15,x13,x10
     840:	0017f793          	andi	x15,x15,1
     844:	00375693          	srli	x13,x14,0x3
     848:	00155513          	srli	x10,x10,0x1
     84c:	00078c63          	beqz	x15,864 <.L136>
     850:	ffffa7b7          	lui	x15,0xffffa
     854:	00178793          	addi	x15,x15,1 # ffffa001 <seed1_volatile+0xfffb9941>
     858:	00f54533          	xor	x10,x10,x15
     85c:	01051513          	slli	x10,x10,0x10
     860:	01055513          	srli	x10,x10,0x10

00000864 <.L136>:
     864:	00a6c6b3          	xor	x13,x13,x10
     868:	0016f693          	andi	x13,x13,1
     86c:	00475793          	srli	x15,x14,0x4
     870:	00155513          	srli	x10,x10,0x1
     874:	00068c63          	beqz	x13,88c <.L137>
     878:	ffffa6b7          	lui	x13,0xffffa
     87c:	00168693          	addi	x13,x13,1 # ffffa001 <seed1_volatile+0xfffb9941>
     880:	00d54533          	xor	x10,x10,x13
     884:	01051513          	slli	x10,x10,0x10
     888:	01055513          	srli	x10,x10,0x10

0000088c <.L137>:
     88c:	00f547b3          	xor	x15,x10,x15
     890:	0017f793          	andi	x15,x15,1
     894:	00575693          	srli	x13,x14,0x5
     898:	00155513          	srli	x10,x10,0x1
     89c:	00078c63          	beqz	x15,8b4 <.L138>
     8a0:	ffffa7b7          	lui	x15,0xffffa
     8a4:	00178793          	addi	x15,x15,1 # ffffa001 <seed1_volatile+0xfffb9941>
     8a8:	00f54533          	xor	x10,x10,x15
     8ac:	01051513          	slli	x10,x10,0x10
     8b0:	01055513          	srli	x10,x10,0x10

000008b4 <.L138>:
     8b4:	00d546b3          	xor	x13,x10,x13
     8b8:	0016f693          	andi	x13,x13,1
     8bc:	00675793          	srli	x15,x14,0x6
     8c0:	00155513          	srli	x10,x10,0x1
     8c4:	00068c63          	beqz	x13,8dc <.L139>
     8c8:	ffffa6b7          	lui	x13,0xffffa
     8cc:	00168693          	addi	x13,x13,1 # ffffa001 <seed1_volatile+0xfffb9941>
     8d0:	00d54533          	xor	x10,x10,x13
     8d4:	01051513          	slli	x10,x10,0x10
     8d8:	01055513          	srli	x10,x10,0x10

000008dc <.L139>:
     8dc:	00f547b3          	xor	x15,x10,x15
     8e0:	0017f793          	andi	x15,x15,1
     8e4:	00775713          	srli	x14,x14,0x7
     8e8:	00155513          	srli	x10,x10,0x1
     8ec:	00078c63          	beqz	x15,904 <.L140>
     8f0:	ffffa7b7          	lui	x15,0xffffa
     8f4:	00178793          	addi	x15,x15,1 # ffffa001 <seed1_volatile+0xfffb9941>
     8f8:	00f54533          	xor	x10,x10,x15
     8fc:	01051513          	slli	x10,x10,0x10
     900:	01055513          	srli	x10,x10,0x10

00000904 <.L140>:
     904:	00157793          	andi	x15,x10,1
     908:	00155513          	srli	x10,x10,0x1
     90c:	00e78c63          	beq	x15,x14,924 <.L141>
     910:	ffffa7b7          	lui	x15,0xffffa
     914:	00178793          	addi	x15,x15,1 # ffffa001 <seed1_volatile+0xfffb9941>
     918:	00f54533          	xor	x10,x10,x15
     91c:	01051513          	slli	x10,x10,0x10
     920:	01055513          	srli	x10,x10,0x10

00000924 <.L141>:
     924:	00008067          	ret

00000928 <.L240>:
     928:	ffffa737          	lui	x14,0xffffa
     92c:	00170713          	addi	x14,x14,1 # ffffa001 <seed1_volatile+0xfffb9941>
     930:	00e54533          	xor	x10,x10,x14
     934:	01051513          	slli	x10,x10,0x10
     938:	01055513          	srli	x10,x10,0x10
     93c:	ea9ff06f          	j	7e4 <.L133>

00000940 <.L239>:
     940:	ffffa737          	lui	x14,0xffffa
     944:	00170713          	addi	x14,x14,1 # ffffa001 <seed1_volatile+0xfffb9941>
     948:	00e54533          	xor	x10,x10,x14
     94c:	01051513          	slli	x10,x10,0x10
     950:	01055513          	srli	x10,x10,0x10
     954:	d61ff06f          	j	6b4 <.L125>

00000958 <.L238>:
     958:	ffffa6b7          	lui	x13,0xffffa
     95c:	00168693          	addi	x13,x13,1 # ffffa001 <seed1_volatile+0xfffb9941>
     960:	00d54533          	xor	x10,x10,x13
     964:	01051513          	slli	x10,x10,0x10
     968:	01055513          	srli	x10,x10,0x10
     96c:	c1dff06f          	j	588 <.L117>

00000970 <crc16>:
     970:	00a5c6b3          	xor	x13,x11,x10
     974:	0ff57713          	andi	x14,x10,255
     978:	01051793          	slli	x15,x10,0x10
     97c:	0016f693          	andi	x13,x13,1
     980:	0107d793          	srli	x15,x15,0x10
     984:	00175613          	srli	x12,x14,0x1
     988:	0015d513          	srli	x10,x11,0x1
     98c:	00068c63          	beqz	x13,9a4 <.L242>
     990:	ffffa6b7          	lui	x13,0xffffa
     994:	00168693          	addi	x13,x13,1 # ffffa001 <seed1_volatile+0xfffb9941>
     998:	00d54533          	xor	x10,x10,x13
     99c:	01051513          	slli	x10,x10,0x10
     9a0:	01055513          	srli	x10,x10,0x10

000009a4 <.L242>:
     9a4:	00c54633          	xor	x12,x10,x12
     9a8:	00167613          	andi	x12,x12,1
     9ac:	00275693          	srli	x13,x14,0x2
     9b0:	00155513          	srli	x10,x10,0x1
     9b4:	00060c63          	beqz	x12,9cc <.L243>
     9b8:	ffffa637          	lui	x12,0xffffa
     9bc:	00160613          	addi	x12,x12,1 # ffffa001 <seed1_volatile+0xfffb9941>
     9c0:	00c54533          	xor	x10,x10,x12
     9c4:	01051513          	slli	x10,x10,0x10
     9c8:	01055513          	srli	x10,x10,0x10

000009cc <.L243>:
     9cc:	00d546b3          	xor	x13,x10,x13
     9d0:	0016f693          	andi	x13,x13,1
     9d4:	00375613          	srli	x12,x14,0x3
     9d8:	00155513          	srli	x10,x10,0x1
     9dc:	00068c63          	beqz	x13,9f4 <.L244>
     9e0:	ffffa6b7          	lui	x13,0xffffa
     9e4:	00168693          	addi	x13,x13,1 # ffffa001 <seed1_volatile+0xfffb9941>
     9e8:	00d54533          	xor	x10,x10,x13
     9ec:	01051513          	slli	x10,x10,0x10
     9f0:	01055513          	srli	x10,x10,0x10

000009f4 <.L244>:
     9f4:	00c54633          	xor	x12,x10,x12
     9f8:	00167613          	andi	x12,x12,1
     9fc:	00475693          	srli	x13,x14,0x4
     a00:	00155513          	srli	x10,x10,0x1
     a04:	00060c63          	beqz	x12,a1c <.L245>
     a08:	ffffa637          	lui	x12,0xffffa
     a0c:	00160613          	addi	x12,x12,1 # ffffa001 <seed1_volatile+0xfffb9941>
     a10:	00c54533          	xor	x10,x10,x12
     a14:	01051513          	slli	x10,x10,0x10
     a18:	01055513          	srli	x10,x10,0x10

00000a1c <.L245>:
     a1c:	00d546b3          	xor	x13,x10,x13
     a20:	0016f693          	andi	x13,x13,1
     a24:	00575613          	srli	x12,x14,0x5
     a28:	00155513          	srli	x10,x10,0x1
     a2c:	00068c63          	beqz	x13,a44 <.L246>
     a30:	ffffa6b7          	lui	x13,0xffffa
     a34:	00168693          	addi	x13,x13,1 # ffffa001 <seed1_volatile+0xfffb9941>
     a38:	00d54533          	xor	x10,x10,x13
     a3c:	01051513          	slli	x10,x10,0x10
     a40:	01055513          	srli	x10,x10,0x10

00000a44 <.L246>:
     a44:	00c54633          	xor	x12,x10,x12
     a48:	00167613          	andi	x12,x12,1
     a4c:	00675693          	srli	x13,x14,0x6
     a50:	00155513          	srli	x10,x10,0x1
     a54:	00060c63          	beqz	x12,a6c <.L247>
     a58:	ffffa637          	lui	x12,0xffffa
     a5c:	00160613          	addi	x12,x12,1 # ffffa001 <seed1_volatile+0xfffb9941>
     a60:	00c54533          	xor	x10,x10,x12
     a64:	01051513          	slli	x10,x10,0x10
     a68:	01055513          	srli	x10,x10,0x10

00000a6c <.L247>:
     a6c:	00d546b3          	xor	x13,x10,x13
     a70:	0016f693          	andi	x13,x13,1
     a74:	00775713          	srli	x14,x14,0x7
     a78:	00155513          	srli	x10,x10,0x1
     a7c:	00068c63          	beqz	x13,a94 <.L248>
     a80:	ffffa6b7          	lui	x13,0xffffa
     a84:	00168693          	addi	x13,x13,1 # ffffa001 <seed1_volatile+0xfffb9941>
     a88:	00d54533          	xor	x10,x10,x13
     a8c:	01051513          	slli	x10,x10,0x10
     a90:	01055513          	srli	x10,x10,0x10

00000a94 <.L248>:
     a94:	00157693          	andi	x13,x10,1
     a98:	00155513          	srli	x10,x10,0x1
     a9c:	14e69463          	bne	x13,x14,be4 <.L306>

00000aa0 <.L249>:
     aa0:	0087d693          	srli	x13,x15,0x8
     aa4:	00a6c6b3          	xor	x13,x13,x10
     aa8:	0016f693          	andi	x13,x13,1
     aac:	0087d713          	srli	x14,x15,0x8
     ab0:	00155513          	srli	x10,x10,0x1
     ab4:	0097d793          	srli	x15,x15,0x9
     ab8:	00068c63          	beqz	x13,ad0 <.L250>
     abc:	ffffa6b7          	lui	x13,0xffffa
     ac0:	00168693          	addi	x13,x13,1 # ffffa001 <seed1_volatile+0xfffb9941>
     ac4:	00d54533          	xor	x10,x10,x13
     ac8:	01051513          	slli	x10,x10,0x10
     acc:	01055513          	srli	x10,x10,0x10

00000ad0 <.L250>:
     ad0:	00a7c7b3          	xor	x15,x15,x10
     ad4:	0017f793          	andi	x15,x15,1
     ad8:	00275693          	srli	x13,x14,0x2
     adc:	00155513          	srli	x10,x10,0x1
     ae0:	00078c63          	beqz	x15,af8 <.L251>
     ae4:	ffffa7b7          	lui	x15,0xffffa
     ae8:	00178793          	addi	x15,x15,1 # ffffa001 <seed1_volatile+0xfffb9941>
     aec:	00f54533          	xor	x10,x10,x15
     af0:	01051513          	slli	x10,x10,0x10
     af4:	01055513          	srli	x10,x10,0x10

00000af8 <.L251>:
     af8:	00d547b3          	xor	x15,x10,x13
     afc:	0017f793          	andi	x15,x15,1
     b00:	00375693          	srli	x13,x14,0x3
     b04:	00155513          	srli	x10,x10,0x1
     b08:	00078c63          	beqz	x15,b20 <.L252>
     b0c:	ffffa7b7          	lui	x15,0xffffa
     b10:	00178793          	addi	x15,x15,1 # ffffa001 <seed1_volatile+0xfffb9941>
     b14:	00f54533          	xor	x10,x10,x15
     b18:	01051513          	slli	x10,x10,0x10
     b1c:	01055513          	srli	x10,x10,0x10

00000b20 <.L252>:
     b20:	00d546b3          	xor	x13,x10,x13
     b24:	0016f693          	andi	x13,x13,1
     b28:	00475793          	srli	x15,x14,0x4
     b2c:	00155513          	srli	x10,x10,0x1
     b30:	00068c63          	beqz	x13,b48 <.L253>
     b34:	ffffa6b7          	lui	x13,0xffffa
     b38:	00168693          	addi	x13,x13,1 # ffffa001 <seed1_volatile+0xfffb9941>
     b3c:	00d54533          	xor	x10,x10,x13
     b40:	01051513          	slli	x10,x10,0x10
     b44:	01055513          	srli	x10,x10,0x10

00000b48 <.L253>:
     b48:	00f547b3          	xor	x15,x10,x15
     b4c:	0017f793          	andi	x15,x15,1
     b50:	00575693          	srli	x13,x14,0x5
     b54:	00155513          	srli	x10,x10,0x1
     b58:	00078c63          	beqz	x15,b70 <.L254>
     b5c:	ffffa7b7          	lui	x15,0xffffa
     b60:	00178793          	addi	x15,x15,1 # ffffa001 <seed1_volatile+0xfffb9941>
     b64:	00f54533          	xor	x10,x10,x15
     b68:	01051513          	slli	x10,x10,0x10
     b6c:	01055513          	srli	x10,x10,0x10

00000b70 <.L254>:
     b70:	00d546b3          	xor	x13,x10,x13
     b74:	0016f693          	andi	x13,x13,1
     b78:	00675793          	srli	x15,x14,0x6
     b7c:	00155513          	srli	x10,x10,0x1
     b80:	00068c63          	beqz	x13,b98 <.L255>
     b84:	ffffa6b7          	lui	x13,0xffffa
     b88:	00168693          	addi	x13,x13,1 # ffffa001 <seed1_volatile+0xfffb9941>
     b8c:	00d54533          	xor	x10,x10,x13
     b90:	01051513          	slli	x10,x10,0x10
     b94:	01055513          	srli	x10,x10,0x10

00000b98 <.L255>:
     b98:	00f547b3          	xor	x15,x10,x15
     b9c:	0017f793          	andi	x15,x15,1
     ba0:	00775713          	srli	x14,x14,0x7
     ba4:	00155513          	srli	x10,x10,0x1
     ba8:	00078c63          	beqz	x15,bc0 <.L256>
     bac:	ffffa7b7          	lui	x15,0xffffa
     bb0:	00178793          	addi	x15,x15,1 # ffffa001 <seed1_volatile+0xfffb9941>
     bb4:	00f54533          	xor	x10,x10,x15
     bb8:	01051513          	slli	x10,x10,0x10
     bbc:	01055513          	srli	x10,x10,0x10

00000bc0 <.L256>:
     bc0:	00157793          	andi	x15,x10,1
     bc4:	00155513          	srli	x10,x10,0x1
     bc8:	00e78c63          	beq	x15,x14,be0 <.L257>
     bcc:	ffffa7b7          	lui	x15,0xffffa
     bd0:	00178793          	addi	x15,x15,1 # ffffa001 <seed1_volatile+0xfffb9941>
     bd4:	00f54533          	xor	x10,x10,x15
     bd8:	01051513          	slli	x10,x10,0x10
     bdc:	01055513          	srli	x10,x10,0x10

00000be0 <.L257>:
     be0:	00008067          	ret

00000be4 <.L306>:
     be4:	ffffa737          	lui	x14,0xffffa
     be8:	00170713          	addi	x14,x14,1 # ffffa001 <seed1_volatile+0xfffb9941>
     bec:	00e54533          	xor	x10,x10,x14
     bf0:	01051513          	slli	x10,x10,0x10
     bf4:	01055513          	srli	x10,x10,0x10
     bf8:	ea9ff06f          	j	aa0 <.L249>

00000bfc <check_data_types>:
     bfc:	00000513          	li	x10,0
     c00:	00008067          	ret

00000c04 <printf_num>:
     c04:	00051463          	bnez	x10,c0c <.L15>
     c08:	00008067          	ret

00000c0c <.L15>:
     c0c:	fe010113          	addi	x2,x2,-32
     c10:	00812c23          	sw	x8,24(x2)
     c14:	00912a23          	sw	x9,20(x2)
     c18:	00112e23          	sw	x1,28(x2)
     c1c:	01212823          	sw	x18,16(x2)
     c20:	01312623          	sw	x19,12(x2)
     c24:	00900793          	li	x15,9
     c28:	00050413          	mv	x8,x10
     c2c:	000404b7          	lui	x9,0x40
     c30:	02a7ee63          	bltu	x15,x10,c6c <.L16>

00000c34 <.L3>:
     c34:	00040513          	mv	x10,x8
     c38:	00a00593          	li	x11,10
     c3c:	490030ef          	jal	x1,40cc <__umodsi3>
     c40:	0184a783          	lw	x15,24(x9) # 40018 <outputAddr>
     c44:	03050513          	addi	x10,x10,48
     c48:	0ff57513          	andi	x10,x10,255
     c4c:	00a78023          	sb	x10,0(x15)
     c50:	01c12083          	lw	x1,28(x2)
     c54:	01812403          	lw	x8,24(x2)
     c58:	01412483          	lw	x9,20(x2)
     c5c:	01012903          	lw	x18,16(x2)
     c60:	00c12983          	lw	x19,12(x2)
     c64:	02010113          	addi	x2,x2,32
     c68:	00008067          	ret

00000c6c <.L16>:
     c6c:	00a00593          	li	x11,10
     c70:	414030ef          	jal	x1,4084 <__udivsi3>
     c74:	06300793          	li	x15,99
     c78:	00050913          	mv	x18,x10
     c7c:	0287e263          	bltu	x15,x8,ca0 <.L17>

00000c80 <.L4>:
     c80:	00a00593          	li	x11,10
     c84:	00090513          	mv	x10,x18
     c88:	444030ef          	jal	x1,40cc <__umodsi3>
     c8c:	0184a783          	lw	x15,24(x9)
     c90:	03050513          	addi	x10,x10,48
     c94:	0ff57513          	andi	x10,x10,255
     c98:	00a78023          	sb	x10,0(x15)
     c9c:	f99ff06f          	j	c34 <.L3>

00000ca0 <.L17>:
     ca0:	00a00593          	li	x11,10
     ca4:	3e0030ef          	jal	x1,4084 <__udivsi3>
     ca8:	00a00593          	li	x11,10
     cac:	00050993          	mv	x19,x10
     cb0:	3d4030ef          	jal	x1,4084 <__udivsi3>
     cb4:	f51ff0ef          	jal	x1,c04 <printf_num>
     cb8:	00a00593          	li	x11,10
     cbc:	00098513          	mv	x10,x19
     cc0:	40c030ef          	jal	x1,40cc <__umodsi3>
     cc4:	0184a703          	lw	x14,24(x9)
     cc8:	03050793          	addi	x15,x10,48
     ccc:	0ff7f793          	andi	x15,x15,255
     cd0:	00f70023          	sb	x15,0(x14)
     cd4:	fadff06f          	j	c80 <.L4>

00000cd8 <printf_deci>:
     cd8:	0c050c63          	beqz	x10,db0 <.L32>
     cdc:	fd010113          	addi	x2,x2,-48
     ce0:	02812423          	sw	x8,40(x2)
     ce4:	02912223          	sw	x9,36(x2)
     ce8:	02112623          	sw	x1,44(x2)
     cec:	03212023          	sw	x18,32(x2)
     cf0:	01312e23          	sw	x19,28(x2)
     cf4:	01412c23          	sw	x20,24(x2)
     cf8:	01512a23          	sw	x21,20(x2)
     cfc:	01612823          	sw	x22,16(x2)
     d00:	01712623          	sw	x23,12(x2)
     d04:	00050413          	mv	x8,x10
     d08:	000404b7          	lui	x9,0x40
     d0c:	04054a63          	bltz	x10,d60 <.L33>
     d10:	00900793          	li	x15,9
     d14:	0687c263          	blt	x15,x8,d78 <.L34>

00000d18 <.L22>:
     d18:	00040513          	mv	x10,x8
     d1c:	00a00593          	li	x11,10
     d20:	3ac030ef          	jal	x1,40cc <__umodsi3>
     d24:	0184a783          	lw	x15,24(x9) # 40018 <outputAddr>
     d28:	03050513          	addi	x10,x10,48
     d2c:	0ff57513          	andi	x10,x10,255
     d30:	00a78023          	sb	x10,0(x15)
     d34:	02c12083          	lw	x1,44(x2)
     d38:	02812403          	lw	x8,40(x2)
     d3c:	02412483          	lw	x9,36(x2)
     d40:	02012903          	lw	x18,32(x2)
     d44:	01c12983          	lw	x19,28(x2)
     d48:	01812a03          	lw	x20,24(x2)
     d4c:	01412a83          	lw	x21,20(x2)
     d50:	01012b03          	lw	x22,16(x2)
     d54:	00c12b83          	lw	x23,12(x2)
     d58:	03010113          	addi	x2,x2,48
     d5c:	00008067          	ret

00000d60 <.L33>:
     d60:	0184a783          	lw	x15,24(x9)
     d64:	02d00713          	li	x14,45
     d68:	40a00433          	neg	x8,x10
     d6c:	00e78023          	sb	x14,0(x15)
     d70:	00900793          	li	x15,9
     d74:	fa87d2e3          	bge	x15,x8,d18 <.L22>

00000d78 <.L34>:
     d78:	00a00593          	li	x11,10
     d7c:	00040513          	mv	x10,x8
     d80:	304030ef          	jal	x1,4084 <__udivsi3>
     d84:	06300793          	li	x15,99
     d88:	00050913          	mv	x18,x10
     d8c:	0287cc63          	blt	x15,x8,dc4 <.L35>

00000d90 <.L23>:
     d90:	00a00593          	li	x11,10
     d94:	00090513          	mv	x10,x18
     d98:	334030ef          	jal	x1,40cc <__umodsi3>
     d9c:	0184a783          	lw	x15,24(x9)
     da0:	03050513          	addi	x10,x10,48
     da4:	0ff57513          	andi	x10,x10,255
     da8:	00a78023          	sb	x10,0(x15)
     dac:	f6dff06f          	j	d18 <.L22>

00000db0 <.L32>:
     db0:	000407b7          	lui	x15,0x40
     db4:	0187a783          	lw	x15,24(x15) # 40018 <outputAddr>
     db8:	03000713          	li	x14,48
     dbc:	00e78023          	sb	x14,0(x15)
     dc0:	00008067          	ret

00000dc4 <.L35>:
     dc4:	00a00593          	li	x11,10
     dc8:	2bc030ef          	jal	x1,4084 <__udivsi3>
     dcc:	3e700793          	li	x15,999
     dd0:	00050993          	mv	x19,x10
     dd4:	0287e263          	bltu	x15,x8,df8 <.L36>

00000dd8 <.L24>:
     dd8:	00a00593          	li	x11,10
     ddc:	00098513          	mv	x10,x19
     de0:	2ec030ef          	jal	x1,40cc <__umodsi3>
     de4:	0184a783          	lw	x15,24(x9)
     de8:	03050513          	addi	x10,x10,48
     dec:	0ff57513          	andi	x10,x10,255
     df0:	00a78023          	sb	x10,0(x15)
     df4:	f9dff06f          	j	d90 <.L23>

00000df8 <.L36>:
     df8:	00a00593          	li	x11,10
     dfc:	288030ef          	jal	x1,4084 <__udivsi3>
     e00:	000027b7          	lui	x15,0x2
     e04:	70f78793          	addi	x15,x15,1807 # 270f <stop_time+0xb>
     e08:	00050a13          	mv	x20,x10
     e0c:	0287e263          	bltu	x15,x8,e30 <.L37>

00000e10 <.L25>:
     e10:	00a00593          	li	x11,10
     e14:	000a0513          	mv	x10,x20
     e18:	2b4030ef          	jal	x1,40cc <__umodsi3>
     e1c:	0184a703          	lw	x14,24(x9)
     e20:	03050793          	addi	x15,x10,48
     e24:	0ff7f793          	andi	x15,x15,255
     e28:	00f70023          	sb	x15,0(x14)
     e2c:	fadff06f          	j	dd8 <.L24>

00000e30 <.L37>:
     e30:	00a00593          	li	x11,10
     e34:	250030ef          	jal	x1,4084 <__udivsi3>
     e38:	000187b7          	lui	x15,0x18
     e3c:	69f78793          	addi	x15,x15,1695 # 1869f <.L119+0x139fb>
     e40:	00050a93          	mv	x21,x10
     e44:	0287e263          	bltu	x15,x8,e68 <.L38>

00000e48 <.L26>:
     e48:	00a00593          	li	x11,10
     e4c:	000a8513          	mv	x10,x21
     e50:	27c030ef          	jal	x1,40cc <__umodsi3>
     e54:	0184a703          	lw	x14,24(x9)
     e58:	03050793          	addi	x15,x10,48
     e5c:	0ff7f793          	andi	x15,x15,255
     e60:	00f70023          	sb	x15,0(x14)
     e64:	fadff06f          	j	e10 <.L25>

00000e68 <.L38>:
     e68:	00a00593          	li	x11,10
     e6c:	218030ef          	jal	x1,4084 <__udivsi3>
     e70:	000f47b7          	lui	x15,0xf4
     e74:	23f78793          	addi	x15,x15,575 # f423f <seed1_volatile+0xb3b7f>
     e78:	00050b13          	mv	x22,x10
     e7c:	0287e263          	bltu	x15,x8,ea0 <.L39>

00000e80 <.L27>:
     e80:	00a00593          	li	x11,10
     e84:	000b0513          	mv	x10,x22
     e88:	244030ef          	jal	x1,40cc <__umodsi3>
     e8c:	0184a703          	lw	x14,24(x9)
     e90:	03050793          	addi	x15,x10,48
     e94:	0ff7f793          	andi	x15,x15,255
     e98:	00f70023          	sb	x15,0(x14)
     e9c:	fadff06f          	j	e48 <.L26>

00000ea0 <.L39>:
     ea0:	00a00593          	li	x11,10
     ea4:	1e0030ef          	jal	x1,4084 <__udivsi3>
     ea8:	00a00593          	li	x11,10
     eac:	00050b93          	mv	x23,x10
     eb0:	1d4030ef          	jal	x1,4084 <__udivsi3>
     eb4:	d51ff0ef          	jal	x1,c04 <printf_num>
     eb8:	00a00593          	li	x11,10
     ebc:	000b8513          	mv	x10,x23
     ec0:	20c030ef          	jal	x1,40cc <__umodsi3>
     ec4:	0184a703          	lw	x14,24(x9)
     ec8:	03050793          	addi	x15,x10,48
     ecc:	0ff7f793          	andi	x15,x15,255
     ed0:	00f70023          	sb	x15,0(x14)
     ed4:	fadff06f          	j	e80 <.L27>

00000ed8 <printf_char>:
     ed8:	000407b7          	lui	x15,0x40
     edc:	0187a783          	lw	x15,24(x15) # 40018 <outputAddr>
     ee0:	0ff57513          	andi	x10,x10,255
     ee4:	00a78023          	sb	x10,0(x15)
     ee8:	00008067          	ret

00000eec <printf_str>:
     eec:	00054783          	lbu	x15,0(x10)
     ef0:	02078063          	beqz	x15,f10 <.L41>
     ef4:	00150513          	addi	x10,x10,1
     ef8:	000406b7          	lui	x13,0x40

00000efc <.L43>:
     efc:	0186a703          	lw	x14,24(x13) # 40018 <outputAddr>
     f00:	00150513          	addi	x10,x10,1
     f04:	00f70023          	sb	x15,0(x14)
     f08:	fff54783          	lbu	x15,-1(x10)
     f0c:	fe0798e3          	bnez	x15,efc <.L43>

00000f10 <.L41>:
     f10:	00008067          	ret

00000f14 <ee_printf>:
     f14:	f7010113          	addi	x2,x2,-144
     f18:	06112623          	sw	x1,108(x2)
     f1c:	06812423          	sw	x8,104(x2)
     f20:	06912223          	sw	x9,100(x2)
     f24:	07212023          	sw	x18,96(x2)
     f28:	05312e23          	sw	x19,92(x2)
     f2c:	05412c23          	sw	x20,88(x2)
     f30:	05512a23          	sw	x21,84(x2)
     f34:	05612823          	sw	x22,80(x2)
     f38:	05712623          	sw	x23,76(x2)
     f3c:	05812423          	sw	x24,72(x2)
     f40:	05912223          	sw	x25,68(x2)
     f44:	05a12023          	sw	x26,64(x2)
     f48:	03b12e23          	sw	x27,60(x2)
     f4c:	00054303          	lbu	x6,0(x10)
     f50:	08f12223          	sw	x15,132(x2)
     f54:	07410793          	addi	x15,x2,116
     f58:	06b12a23          	sw	x11,116(x2)
     f5c:	06c12c23          	sw	x12,120(x2)
     f60:	06d12e23          	sw	x13,124(x2)
     f64:	08e12023          	sw	x14,128(x2)
     f68:	09012423          	sw	x16,136(x2)
     f6c:	09112623          	sw	x17,140(x2)
     f70:	02f12623          	sw	x15,44(x2)
     f74:	08030a63          	beqz	x6,1008 <.L75>
     f78:	00002937          	lui	x18,0x2
     f7c:	00018a37          	lui	x20,0x18
     f80:	000f49b7          	lui	x19,0xf4
     f84:	00050a93          	mv	x21,x10
     f88:	00000413          	li	x8,0
     f8c:	02500c93          	li	x25,37
     f90:	00040b37          	lui	x22,0x40
     f94:	70f90913          	addi	x18,x18,1807 # 270f <stop_time+0xb>
     f98:	69fa0a13          	addi	x20,x20,1695 # 1869f <.L119+0x139fb>
     f9c:	23f98993          	addi	x19,x19,575 # f423f <seed1_volatile+0xb3b7f>
     fa0:	0180006f          	j	fb8 <.L49>

00000fa4 <.L77>:
     fa4:	018b2703          	lw	x14,24(x22) # 40018 <outputAddr>
     fa8:	00078413          	mv	x8,x15
     fac:	00670023          	sb	x6,0(x14)

00000fb0 <.L51>:
     fb0:	0004c303          	lbu	x6,0(x9)
     fb4:	04030a63          	beqz	x6,1008 <.L75>

00000fb8 <.L49>:
     fb8:	00140793          	addi	x15,x8,1 # ffff8001 <seed1_volatile+0xfffb7941>
     fbc:	00fa84b3          	add	x9,x21,x15
     fc0:	ff9312e3          	bne	x6,x25,fa4 <.L77>
     fc4:	0004c783          	lbu	x15,0(x9)
     fc8:	00240413          	addi	x8,x8,2
     fcc:	06400713          	li	x14,100
     fd0:	008a84b3          	add	x9,x21,x8
     fd4:	0ae78463          	beq	x15,x14,107c <.L52>
     fd8:	07300713          	li	x14,115
     fdc:	06e78663          	beq	x15,x14,1048 <.L53>
     fe0:	06300713          	li	x14,99
     fe4:	fce796e3          	bne	x15,x14,fb0 <.L51>
     fe8:	02c12783          	lw	x15,44(x2)
     fec:	018b2703          	lw	x14,24(x22)
     ff0:	0007c683          	lbu	x13,0(x15)
     ff4:	00478793          	addi	x15,x15,4
     ff8:	02f12623          	sw	x15,44(x2)
     ffc:	00d70023          	sb	x13,0(x14)
    1000:	0004c303          	lbu	x6,0(x9)
    1004:	fa031ae3          	bnez	x6,fb8 <.L49>

00001008 <.L75>:
    1008:	06c12083          	lw	x1,108(x2)
    100c:	06812403          	lw	x8,104(x2)
    1010:	06412483          	lw	x9,100(x2)
    1014:	06012903          	lw	x18,96(x2)
    1018:	05c12983          	lw	x19,92(x2)
    101c:	05812a03          	lw	x20,88(x2)
    1020:	05412a83          	lw	x21,84(x2)
    1024:	05012b03          	lw	x22,80(x2)
    1028:	04c12b83          	lw	x23,76(x2)
    102c:	04812c03          	lw	x24,72(x2)
    1030:	04412c83          	lw	x25,68(x2)
    1034:	04012d03          	lw	x26,64(x2)
    1038:	03c12d83          	lw	x27,60(x2)
    103c:	00100513          	li	x10,1
    1040:	09010113          	addi	x2,x2,144
    1044:	00008067          	ret

00001048 <.L53>:
    1048:	02c12703          	lw	x14,44(x2)
    104c:	00072783          	lw	x15,0(x14)
    1050:	00470713          	addi	x14,x14,4
    1054:	02e12623          	sw	x14,44(x2)
    1058:	0007c703          	lbu	x14,0(x15)
    105c:	f4070ae3          	beqz	x14,fb0 <.L51>
    1060:	00178793          	addi	x15,x15,1

00001064 <.L65>:
    1064:	018b2683          	lw	x13,24(x22)
    1068:	00178793          	addi	x15,x15,1
    106c:	00e68023          	sb	x14,0(x13)
    1070:	fff7c703          	lbu	x14,-1(x15)
    1074:	fe0718e3          	bnez	x14,1064 <.L65>
    1078:	f39ff06f          	j	fb0 <.L51>

0000107c <.L52>:
    107c:	02c12703          	lw	x14,44(x2)
    1080:	00072d03          	lw	x26,0(x14)
    1084:	00470713          	addi	x14,x14,4
    1088:	02e12623          	sw	x14,44(x2)
    108c:	080d0063          	beqz	x26,110c <.L78>
    1090:	020d4663          	bltz	x26,10bc <.L79>
    1094:	00900713          	li	x14,9
    1098:	03a74e63          	blt	x14,x26,10d4 <.L80>

0000109c <.L57>:
    109c:	00a00593          	li	x11,10
    10a0:	000d0513          	mv	x10,x26
    10a4:	028030ef          	jal	x1,40cc <__umodsi3>
    10a8:	018b2783          	lw	x15,24(x22)
    10ac:	03050513          	addi	x10,x10,48
    10b0:	0ff57513          	andi	x10,x10,255
    10b4:	00a78023          	sb	x10,0(x15)
    10b8:	ef9ff06f          	j	fb0 <.L51>

000010bc <.L79>:
    10bc:	018b2703          	lw	x14,24(x22)
    10c0:	02d00693          	li	x13,45
    10c4:	41a00d33          	neg	x26,x26
    10c8:	00d70023          	sb	x13,0(x14)
    10cc:	00900713          	li	x14,9
    10d0:	fda756e3          	bge	x14,x26,109c <.L57>

000010d4 <.L80>:
    10d4:	00a00593          	li	x11,10
    10d8:	000d0513          	mv	x10,x26
    10dc:	7a9020ef          	jal	x1,4084 <__udivsi3>
    10e0:	06300693          	li	x13,99
    10e4:	00050d93          	mv	x27,x10
    10e8:	03a6ca63          	blt	x13,x26,111c <.L81>

000010ec <.L58>:
    10ec:	00a00593          	li	x11,10
    10f0:	000d8513          	mv	x10,x27
    10f4:	7d9020ef          	jal	x1,40cc <__umodsi3>
    10f8:	018b2683          	lw	x13,24(x22)
    10fc:	03050713          	addi	x14,x10,48
    1100:	0ff77713          	andi	x14,x14,255
    1104:	00e68023          	sb	x14,0(x13)
    1108:	f95ff06f          	j	109c <.L57>

0000110c <.L78>:
    110c:	018b2783          	lw	x15,24(x22)
    1110:	03000713          	li	x14,48
    1114:	00e78023          	sb	x14,0(x15)
    1118:	e99ff06f          	j	fb0 <.L51>

0000111c <.L81>:
    111c:	00a00593          	li	x11,10
    1120:	765020ef          	jal	x1,4084 <__udivsi3>
    1124:	3e700693          	li	x13,999
    1128:	00050b93          	mv	x23,x10
    112c:	03a6e263          	bltu	x13,x26,1150 <.L82>

00001130 <.L59>:
    1130:	00a00593          	li	x11,10
    1134:	000b8513          	mv	x10,x23
    1138:	795020ef          	jal	x1,40cc <__umodsi3>
    113c:	018b2583          	lw	x11,24(x22)
    1140:	03050693          	addi	x13,x10,48
    1144:	0ff6f693          	andi	x13,x13,255
    1148:	00d58023          	sb	x13,0(x11)
    114c:	fa1ff06f          	j	10ec <.L58>

00001150 <.L82>:
    1150:	00a00593          	li	x11,10
    1154:	731020ef          	jal	x1,4084 <__udivsi3>
    1158:	00050c13          	mv	x24,x10
    115c:	03a96263          	bltu	x18,x26,1180 <.L83>

00001160 <.L60>:
    1160:	00a00593          	li	x11,10
    1164:	000c0513          	mv	x10,x24
    1168:	765020ef          	jal	x1,40cc <__umodsi3>
    116c:	018b2583          	lw	x11,24(x22)
    1170:	03050693          	addi	x13,x10,48
    1174:	0ff6f693          	andi	x13,x13,255
    1178:	00d58023          	sb	x13,0(x11)
    117c:	fb5ff06f          	j	1130 <.L59>

00001180 <.L83>:
    1180:	00a00593          	li	x11,10
    1184:	701020ef          	jal	x1,4084 <__udivsi3>
    1188:	00a12623          	sw	x10,12(x2)
    118c:	03aa6263          	bltu	x20,x26,11b0 <.L84>

00001190 <.L61>:
    1190:	00c12503          	lw	x10,12(x2)
    1194:	00a00593          	li	x11,10
    1198:	735020ef          	jal	x1,40cc <__umodsi3>
    119c:	018b2583          	lw	x11,24(x22)
    11a0:	03050693          	addi	x13,x10,48
    11a4:	0ff6f693          	andi	x13,x13,255
    11a8:	00d58023          	sb	x13,0(x11)
    11ac:	fb5ff06f          	j	1160 <.L60>

000011b0 <.L84>:
    11b0:	00a00593          	li	x11,10
    11b4:	6d1020ef          	jal	x1,4084 <__udivsi3>
    11b8:	00a12823          	sw	x10,16(x2)
    11bc:	03a9e263          	bltu	x19,x26,11e0 <.L85>

000011c0 <.L62>:
    11c0:	01012503          	lw	x10,16(x2)
    11c4:	00a00593          	li	x11,10
    11c8:	705020ef          	jal	x1,40cc <__umodsi3>
    11cc:	018b2583          	lw	x11,24(x22)
    11d0:	03050693          	addi	x13,x10,48
    11d4:	0ff6f693          	andi	x13,x13,255
    11d8:	00d58023          	sb	x13,0(x11)
    11dc:	fb5ff06f          	j	1190 <.L61>

000011e0 <.L85>:
    11e0:	00a00593          	li	x11,10
    11e4:	6a1020ef          	jal	x1,4084 <__udivsi3>
    11e8:	009896b7          	lui	x13,0x989
    11ec:	67f68693          	addi	x13,x13,1663 # 98967f <seed1_volatile+0x948fbf>
    11f0:	00a12a23          	sw	x10,20(x2)
    11f4:	03a6e263          	bltu	x13,x26,1218 <.L86>

000011f8 <.L63>:
    11f8:	01412503          	lw	x10,20(x2)
    11fc:	00a00593          	li	x11,10
    1200:	6cd020ef          	jal	x1,40cc <__umodsi3>
    1204:	018b2583          	lw	x11,24(x22)
    1208:	03050693          	addi	x13,x10,48
    120c:	0ff6f693          	andi	x13,x13,255
    1210:	00d58023          	sb	x13,0(x11)
    1214:	fadff06f          	j	11c0 <.L62>

00001218 <.L86>:
    1218:	00a00593          	li	x11,10
    121c:	669020ef          	jal	x1,4084 <__udivsi3>
    1220:	05f5e6b7          	lui	x13,0x5f5e
    1224:	0ff68693          	addi	x13,x13,255 # 5f5e0ff <seed1_volatile+0x5f1da3f>
    1228:	00050813          	mv	x16,x10
    122c:	03a6e263          	bltu	x13,x26,1250 <.L87>

00001230 <.L64>:
    1230:	00a00593          	li	x11,10
    1234:	00080513          	mv	x10,x16
    1238:	695020ef          	jal	x1,40cc <__umodsi3>
    123c:	018b2583          	lw	x11,24(x22)
    1240:	03050693          	addi	x13,x10,48
    1244:	0ff6f693          	andi	x13,x13,255
    1248:	00d58023          	sb	x13,0(x11)
    124c:	fadff06f          	j	11f8 <.L63>

00001250 <.L87>:
    1250:	00a00593          	li	x11,10
    1254:	00a12e23          	sw	x10,28(x2)
    1258:	62d020ef          	jal	x1,4084 <__udivsi3>
    125c:	00a00593          	li	x11,10
    1260:	00a12c23          	sw	x10,24(x2)
    1264:	621020ef          	jal	x1,4084 <__udivsi3>
    1268:	99dff0ef          	jal	x1,c04 <printf_num>
    126c:	01812683          	lw	x13,24(x2)
    1270:	00a00593          	li	x11,10
    1274:	00068513          	mv	x10,x13
    1278:	655020ef          	jal	x1,40cc <__umodsi3>
    127c:	018b2583          	lw	x11,24(x22)
    1280:	03050693          	addi	x13,x10,48
    1284:	0ff6f693          	andi	x13,x13,255
    1288:	01c12803          	lw	x16,28(x2)
    128c:	00d58023          	sb	x13,0(x11)
    1290:	fa1ff06f          	j	1230 <.L64>

00001294 <core_init_state>:
    1294:	fff50313          	addi	x6,x10,-1
    1298:	00100793          	li	x15,1
    129c:	00060893          	mv	x17,x12
    12a0:	1c67f663          	bgeu	x15,x6,146c <.L10>
    12a4:	00158593          	addi	x11,x11,1
    12a8:	01059593          	slli	x11,x11,0x10
    12ac:	0105d593          	srli	x11,x11,0x10
    12b0:	00040637          	lui	x12,0x40
    12b4:	0035d793          	srli	x15,x11,0x3
    12b8:	00700e93          	li	x29,7
    12bc:	0075f693          	andi	x13,x11,7
    12c0:	00000713          	li	x14,0
    12c4:	01c60613          	addi	x12,x12,28 # 4001c <intpat>
    12c8:	00800f93          	li	x31,8
    12cc:	00400813          	li	x16,4
    12d0:	00100e13          	li	x28,1
    12d4:	02c00f13          	li	x30,44
    12d8:	0037f793          	andi	x15,x15,3
    12dc:	15d68863          	beq	x13,x29,142c <.L15>
    12e0:	16d86a63          	bltu	x16,x13,1454 <.L17>
    12e4:	ffd68693          	addi	x13,x13,-3
    12e8:	01069693          	slli	x13,x13,0x10
    12ec:	00279793          	slli	x15,x15,0x2
    12f0:	0106d693          	srli	x13,x13,0x10
    12f4:	00f607b3          	add	x15,x12,x15
    12f8:	14de6663          	bltu	x28,x13,1444 <.L28>
    12fc:	0107a683          	lw	x13,16(x15)
    1300:	00900293          	li	x5,9
    1304:	00800393          	li	x7,8

00001308 <.L20>:
    1308:	005702b3          	add	x5,x14,x5
    130c:	1662fa63          	bgeu	x5,x6,1480 <.L29>
    1310:	ff010113          	addi	x2,x2,-16
    1314:	00812623          	sw	x8,12(x2)
    1318:	0340006f          	j	134c <.L9>

0000131c <.L32>:
    131c:	0ed86663          	bltu	x16,x13,1408 <.L6>
    1320:	ffd68693          	addi	x13,x13,-3
    1324:	01069693          	slli	x13,x13,0x10
    1328:	00279793          	slli	x15,x15,0x2
    132c:	0106d693          	srli	x13,x13,0x10
    1330:	00f607b3          	add	x15,x12,x15
    1334:	0cde6263          	bltu	x28,x13,13f8 <.L30>
    1338:	0107a683          	lw	x13,16(x15)
    133c:	00900293          	li	x5,9
    1340:	00800393          	li	x7,8

00001344 <.L8>:
    1344:	005702b3          	add	x5,x14,x5
    1348:	0862fa63          	bgeu	x5,x6,13dc <.L31>

0000134c <.L9>:
    134c:	0006c403          	lbu	x8,0(x13)
    1350:	00e887b3          	add	x15,x17,x14
    1354:	00878023          	sb	x8,0(x15)
    1358:	0016c703          	lbu	x14,1(x13)
    135c:	00e780a3          	sb	x14,1(x15)
    1360:	0026c703          	lbu	x14,2(x13)
    1364:	00e78123          	sb	x14,2(x15)
    1368:	0036c703          	lbu	x14,3(x13)
    136c:	00e781a3          	sb	x14,3(x15)
    1370:	03038463          	beq	x7,x16,1398 <.L4>
    1374:	0046c703          	lbu	x14,4(x13)
    1378:	00e78223          	sb	x14,4(x15)
    137c:	0056c703          	lbu	x14,5(x13)
    1380:	00e782a3          	sb	x14,5(x15)
    1384:	0066c703          	lbu	x14,6(x13)
    1388:	00e78323          	sb	x14,6(x15)
    138c:	01f39663          	bne	x7,x31,1398 <.L4>
    1390:	0076c703          	lbu	x14,7(x13)
    1394:	00e783a3          	sb	x14,7(x15)

00001398 <.L4>:
    1398:	00158593          	addi	x11,x11,1
    139c:	01059593          	slli	x11,x11,0x10
    13a0:	007787b3          	add	x15,x15,x7
    13a4:	0105d593          	srli	x11,x11,0x10
    13a8:	01e78023          	sb	x30,0(x15)
    13ac:	0075f693          	andi	x13,x11,7
    13b0:	0035d793          	srli	x15,x11,0x3
    13b4:	00028713          	mv	x14,x5
    13b8:	0037f793          	andi	x15,x15,3
    13bc:	f7d690e3          	bne	x13,x29,131c <.L32>
    13c0:	00279793          	slli	x15,x15,0x2
    13c4:	00900293          	li	x5,9
    13c8:	00f607b3          	add	x15,x12,x15
    13cc:	005702b3          	add	x5,x14,x5
    13d0:	0307a683          	lw	x13,48(x15)
    13d4:	00800393          	li	x7,8
    13d8:	f662eae3          	bltu	x5,x6,134c <.L9>

000013dc <.L31>:
    13dc:	04a77263          	bgeu	x14,x10,1420 <.L33>
    13e0:	00c12403          	lw	x8,12(x2)
    13e4:	40e50633          	sub	x12,x10,x14
    13e8:	00000593          	li	x11,0
    13ec:	00e88533          	add	x10,x17,x14
    13f0:	01010113          	addi	x2,x2,16
    13f4:	0e40206f          	j	34d8 <memset>

000013f8 <.L30>:
    13f8:	0007a683          	lw	x13,0(x15)
    13fc:	00500293          	li	x5,5
    1400:	00400393          	li	x7,4
    1404:	f41ff06f          	j	1344 <.L8>

00001408 <.L6>:
    1408:	00279793          	slli	x15,x15,0x2
    140c:	00f607b3          	add	x15,x12,x15
    1410:	0207a683          	lw	x13,32(x15)
    1414:	00900293          	li	x5,9
    1418:	00800393          	li	x7,8
    141c:	f29ff06f          	j	1344 <.L8>

00001420 <.L33>:
    1420:	00c12403          	lw	x8,12(x2)
    1424:	01010113          	addi	x2,x2,16
    1428:	00008067          	ret

0000142c <.L15>:
    142c:	00279793          	slli	x15,x15,0x2
    1430:	00f607b3          	add	x15,x12,x15
    1434:	0307a683          	lw	x13,48(x15)
    1438:	00900293          	li	x5,9
    143c:	00800393          	li	x7,8
    1440:	ec9ff06f          	j	1308 <.L20>

00001444 <.L28>:
    1444:	0007a683          	lw	x13,0(x15)
    1448:	00500293          	li	x5,5
    144c:	00400393          	li	x7,4
    1450:	eb9ff06f          	j	1308 <.L20>

00001454 <.L17>:
    1454:	00279793          	slli	x15,x15,0x2
    1458:	00f607b3          	add	x15,x12,x15
    145c:	0207a683          	lw	x13,32(x15)
    1460:	00900293          	li	x5,9
    1464:	00800393          	li	x7,8
    1468:	ea1ff06f          	j	1308 <.L20>

0000146c <.L10>:
    146c:	00000713          	li	x14,0

00001470 <.L22>:
    1470:	40e50633          	sub	x12,x10,x14
    1474:	00000593          	li	x11,0
    1478:	00e88533          	add	x10,x17,x14
    147c:	05c0206f          	j	34d8 <memset>

00001480 <.L29>:
    1480:	fea768e3          	bltu	x14,x10,1470 <.L22>
    1484:	00008067          	ret

00001488 <core_state_transition>:
    1488:	00052783          	lw	x15,0(x10)
    148c:	00050813          	mv	x16,x10
    1490:	00000513          	li	x10,0
    1494:	0007c683          	lbu	x13,0(x15)
    1498:	00078713          	mv	x14,x15
    149c:	0c068c63          	beqz	x13,1574 <.L36>
    14a0:	02c00513          	li	x10,44
    14a4:	00178713          	addi	x14,x15,1
    14a8:	2aa68863          	beq	x13,x10,1758 <.L99>
    14ac:	0005a883          	lw	x17,0(x11)
    14b0:	fd068613          	addi	x12,x13,-48
    14b4:	0ff67613          	andi	x12,x12,255
    14b8:	00900313          	li	x6,9
    14bc:	00188893          	addi	x17,x17,1
    14c0:	0ac36e63          	bltu	x6,x12,157c <.L43>
    14c4:	0115a023          	sw	x17,0(x11)
    14c8:	0017c683          	lbu	x13,1(x15)
    14cc:	16068063          	beqz	x13,162c <.L96>
    14d0:	00278793          	addi	x15,x15,2
    14d4:	14a68a63          	beq	x13,x10,1628 <.L80>

000014d8 <.L41>:
    14d8:	fd068613          	addi	x12,x13,-48
    14dc:	02e00513          	li	x10,46
    14e0:	00900893          	li	x17,9
    14e4:	02c00313          	li	x6,44
    14e8:	0ff67613          	andi	x12,x12,255
    14ec:	02a68663          	beq	x13,x10,1518 <.L100>

000014f0 <.L53>:
    14f0:	0cc8e063          	bltu	x17,x12,15b0 <.L101>
    14f4:	00174683          	lbu	x13,1(x14)
    14f8:	00178613          	addi	x12,x15,1
    14fc:	00078713          	mv	x14,x15
    1500:	12068463          	beqz	x13,1628 <.L80>
    1504:	28668863          	beq	x13,x6,1794 <.L81>
    1508:	00060793          	mv	x15,x12
    150c:	fd068613          	addi	x12,x13,-48
    1510:	0ff67613          	andi	x12,x12,255
    1514:	fca69ee3          	bne	x13,x10,14f0 <.L53>

00001518 <.L100>:
    1518:	0105a683          	lw	x13,16(x11)
    151c:	00500513          	li	x10,5
    1520:	00168693          	addi	x13,x13,1
    1524:	00d5a823          	sw	x13,16(x11)
    1528:	00174683          	lbu	x13,1(x14)
    152c:	00078713          	mv	x14,x15
    1530:	04068263          	beqz	x13,1574 <.L36>
    1534:	02c00713          	li	x14,44
    1538:	00178613          	addi	x12,x15,1
    153c:	20e68863          	beq	x13,x14,174c <.L84>

00001540 <.L39>:
    1540:	04500513          	li	x10,69
    1544:	00900893          	li	x17,9
    1548:	02c00313          	li	x6,44

0000154c <.L65>:
    154c:	fd068713          	addi	x14,x13,-48
    1550:	0df6f693          	andi	x13,x13,223
    1554:	0ff77713          	andi	x14,x14,255
    1558:	0ca68e63          	beq	x13,x10,1634 <.L102>
    155c:	1ae8f063          	bgeu	x17,x14,16fc <.L58>
    1560:	0145a783          	lw	x15,20(x11)
    1564:	00060713          	mv	x14,x12
    1568:	00100513          	li	x10,1
    156c:	00178793          	addi	x15,x15,1
    1570:	00f5aa23          	sw	x15,20(x11)

00001574 <.L36>:
    1574:	00e82023          	sw	x14,0(x16) # ffff9000 <seed1_volatile+0xfffb8940>
    1578:	00008067          	ret

0000157c <.L43>:
    157c:	02b00613          	li	x12,43
    1580:	04c68663          	beq	x13,x12,15cc <.L46>
    1584:	02d00613          	li	x12,45
    1588:	04c68263          	beq	x13,x12,15cc <.L46>
    158c:	02e00613          	li	x12,46
    1590:	18c68463          	beq	x13,x12,1718 <.L47>
    1594:	0045a783          	lw	x15,4(x11)
    1598:	0115a023          	sw	x17,0(x11)
    159c:	00100513          	li	x10,1
    15a0:	00178793          	addi	x15,x15,1
    15a4:	00f5a223          	sw	x15,4(x11)
    15a8:	00e82023          	sw	x14,0(x16)
    15ac:	00008067          	ret

000015b0 <.L101>:
    15b0:	0105a683          	lw	x13,16(x11)
    15b4:	00078713          	mv	x14,x15
    15b8:	00100513          	li	x10,1
    15bc:	00168793          	addi	x15,x13,1
    15c0:	00f5a823          	sw	x15,16(x11)
    15c4:	00e82023          	sw	x14,0(x16)
    15c8:	00008067          	ret

000015cc <.L46>:
    15cc:	0115a023          	sw	x17,0(x11)
    15d0:	0017c883          	lbu	x17,1(x15)
    15d4:	1a088663          	beqz	x17,1780 <.L78>
    15d8:	00278713          	addi	x14,x15,2
    15dc:	1aa88263          	beq	x17,x10,1780 <.L78>
    15e0:	0085a603          	lw	x12,8(x11)
    15e4:	fd088693          	addi	x13,x17,-48
    15e8:	0ff6f693          	andi	x13,x13,255
    15ec:	00900513          	li	x10,9
    15f0:	00160613          	addi	x12,x12,1
    15f4:	00d57e63          	bgeu	x10,x13,1610 <.L48>
    15f8:	02e00693          	li	x13,46
    15fc:	12d88c63          	beq	x17,x13,1734 <.L103>
    1600:	00c5a423          	sw	x12,8(x11)
    1604:	00100513          	li	x10,1
    1608:	00e82023          	sw	x14,0(x16)
    160c:	00008067          	ret

00001610 <.L48>:
    1610:	00c5a423          	sw	x12,8(x11)
    1614:	0027c683          	lbu	x13,2(x15)
    1618:	00068a63          	beqz	x13,162c <.L96>
    161c:	02c00613          	li	x12,44
    1620:	00170793          	addi	x15,x14,1
    1624:	eac69ae3          	bne	x13,x12,14d8 <.L41>

00001628 <.L80>:
    1628:	00078713          	mv	x14,x15

0000162c <.L96>:
    162c:	00400513          	li	x10,4
    1630:	f45ff06f          	j	1574 <.L36>

00001634 <.L102>:
    1634:	0145a703          	lw	x14,20(x11)
    1638:	00170713          	addi	x14,x14,1
    163c:	00e5aa23          	sw	x14,20(x11)
    1640:	0017c783          	lbu	x15,1(x15)
    1644:	12078463          	beqz	x15,176c <.L104>
    1648:	02c00513          	li	x10,44
    164c:	00160713          	addi	x14,x12,1
    1650:	12a78063          	beq	x15,x10,1770 <.L94>
    1654:	00c5a683          	lw	x13,12(x11)
    1658:	fd578793          	addi	x15,x15,-43
    165c:	0fd7f793          	andi	x15,x15,253
    1660:	00168693          	addi	x13,x13,1
    1664:	00d5a623          	sw	x13,12(x11)
    1668:	00078863          	beqz	x15,1678 <.L105>

0000166c <.L92>:
    166c:	00100513          	li	x10,1
    1670:	00e82023          	sw	x14,0(x16)
    1674:	00008067          	ret

00001678 <.L105>:
    1678:	00164783          	lbu	x15,1(x12)
    167c:	0e078e63          	beqz	x15,1778 <.L93>
    1680:	00260713          	addi	x14,x12,2
    1684:	0ea78a63          	beq	x15,x10,1778 <.L93>
    1688:	0185a683          	lw	x13,24(x11)
    168c:	fd078793          	addi	x15,x15,-48
    1690:	0ff7f793          	andi	x15,x15,255
    1694:	00168693          	addi	x13,x13,1
    1698:	00900893          	li	x17,9
    169c:	00d5ac23          	sw	x13,24(x11)
    16a0:	fcf8e6e3          	bltu	x17,x15,166c <.L92>
    16a4:	00264683          	lbu	x13,2(x12)
    16a8:	0a068e63          	beqz	x13,1764 <.L95>
    16ac:	00360793          	addi	x15,x12,3
    16b0:	0aa68863          	beq	x13,x10,1760 <.L82>
    16b4:	00900613          	li	x12,9
    16b8:	02c00893          	li	x17,44

000016bc <.L40>:
    16bc:	fd068693          	addi	x13,x13,-48
    16c0:	0ff6f693          	andi	x13,x13,255
    16c4:	00d67e63          	bgeu	x12,x13,16e0 <.L63>
    16c8:	0045a683          	lw	x13,4(x11)
    16cc:	00078713          	mv	x14,x15
    16d0:	00100513          	li	x10,1
    16d4:	00168793          	addi	x15,x13,1
    16d8:	00f5a223          	sw	x15,4(x11)
    16dc:	e99ff06f          	j	1574 <.L36>

000016e0 <.L63>:
    16e0:	00174683          	lbu	x13,1(x14)
    16e4:	00178513          	addi	x10,x15,1
    16e8:	00078713          	mv	x14,x15
    16ec:	06068a63          	beqz	x13,1760 <.L82>
    16f0:	09168c63          	beq	x13,x17,1788 <.L83>
    16f4:	00050793          	mv	x15,x10
    16f8:	fc5ff06f          	j	16bc <.L40>

000016fc <.L58>:
    16fc:	0017c683          	lbu	x13,1(x15)
    1700:	00160713          	addi	x14,x12,1
    1704:	00060793          	mv	x15,x12
    1708:	04068263          	beqz	x13,174c <.L84>
    170c:	04668263          	beq	x13,x6,1750 <.L91>
    1710:	00070613          	mv	x12,x14
    1714:	e39ff06f          	j	154c <.L65>

00001718 <.L47>:
    1718:	0115a023          	sw	x17,0(x11)
    171c:	0017c683          	lbu	x13,1(x15)
    1720:	02068863          	beqz	x13,1750 <.L91>
    1724:	00278613          	addi	x12,x15,2
    1728:	02a68263          	beq	x13,x10,174c <.L84>

0000172c <.L90>:
    172c:	00070793          	mv	x15,x14
    1730:	e11ff06f          	j	1540 <.L39>

00001734 <.L103>:
    1734:	00c5a423          	sw	x12,8(x11)
    1738:	0027c683          	lbu	x13,2(x15)
    173c:	00068a63          	beqz	x13,1750 <.L91>
    1740:	02c00793          	li	x15,44
    1744:	00170613          	addi	x12,x14,1
    1748:	fef692e3          	bne	x13,x15,172c <.L90>

0000174c <.L84>:
    174c:	00060713          	mv	x14,x12

00001750 <.L91>:
    1750:	00500513          	li	x10,5
    1754:	e21ff06f          	j	1574 <.L36>

00001758 <.L99>:
    1758:	00000513          	li	x10,0
    175c:	e19ff06f          	j	1574 <.L36>

00001760 <.L82>:
    1760:	00078713          	mv	x14,x15

00001764 <.L95>:
    1764:	00700513          	li	x10,7
    1768:	e0dff06f          	j	1574 <.L36>

0000176c <.L104>:
    176c:	00060713          	mv	x14,x12

00001770 <.L94>:
    1770:	00300513          	li	x10,3
    1774:	e01ff06f          	j	1574 <.L36>

00001778 <.L93>:
    1778:	00600513          	li	x10,6
    177c:	df9ff06f          	j	1574 <.L36>

00001780 <.L78>:
    1780:	00200513          	li	x10,2
    1784:	df1ff06f          	j	1574 <.L36>

00001788 <.L83>:
    1788:	00050713          	mv	x14,x10
    178c:	00700513          	li	x10,7
    1790:	de5ff06f          	j	1574 <.L36>

00001794 <.L81>:
    1794:	00060713          	mv	x14,x12
    1798:	00400513          	li	x10,4
    179c:	dd9ff06f          	j	1574 <.L36>

000017a0 <core_bench_state>:
    17a0:	f8010113          	addi	x2,x2,-128
    17a4:	06812c23          	sw	x8,120(x2)
    17a8:	06912a23          	sw	x9,116(x2)
    17ac:	07212823          	sw	x18,112(x2)
    17b0:	07312623          	sw	x19,108(x2)
    17b4:	07412423          	sw	x20,104(x2)
    17b8:	07512223          	sw	x21,100(x2)
    17bc:	07612023          	sw	x22,96(x2)
    17c0:	06112e23          	sw	x1,124(x2)
    17c4:	05712e23          	sw	x23,92(x2)
    17c8:	00058413          	mv	x8,x11
    17cc:	0005c583          	lbu	x11,0(x11)
    17d0:	00812623          	sw	x8,12(x2)
    17d4:	02012823          	sw	x0,48(x2)
    17d8:	00012823          	sw	x0,16(x2)
    17dc:	02012a23          	sw	x0,52(x2)
    17e0:	02012c23          	sw	x0,56(x2)
    17e4:	02012e23          	sw	x0,60(x2)
    17e8:	04012023          	sw	x0,64(x2)
    17ec:	04012223          	sw	x0,68(x2)
    17f0:	04012423          	sw	x0,72(x2)
    17f4:	04012623          	sw	x0,76(x2)
    17f8:	00012a23          	sw	x0,20(x2)
    17fc:	00012c23          	sw	x0,24(x2)
    1800:	00012e23          	sw	x0,28(x2)
    1804:	02012023          	sw	x0,32(x2)
    1808:	02012223          	sw	x0,36(x2)
    180c:	02012423          	sw	x0,40(x2)
    1810:	02012623          	sw	x0,44(x2)
    1814:	03010913          	addi	x18,x2,48
    1818:	00050b13          	mv	x22,x10
    181c:	00060a93          	mv	x21,x12
    1820:	00068a13          	mv	x20,x13
    1824:	00070993          	mv	x19,x14
    1828:	00078493          	mv	x9,x15
    182c:	14058e63          	beqz	x11,1988 <.L107>
    1830:	00c10b93          	addi	x23,x2,12

00001834 <.L108>:
    1834:	00090593          	mv	x11,x18
    1838:	000b8513          	mv	x10,x23
    183c:	c4dff0ef          	jal	x1,1488 <core_state_transition>
    1840:	05010793          	addi	x15,x2,80
    1844:	00251813          	slli	x16,x10,0x2
    1848:	01078833          	add	x16,x15,x16
    184c:	00c12703          	lw	x14,12(x2)
    1850:	fc082783          	lw	x15,-64(x16)
    1854:	00074703          	lbu	x14,0(x14)
    1858:	00178793          	addi	x15,x15,1
    185c:	fcf82023          	sw	x15,-64(x16)
    1860:	fc071ae3          	bnez	x14,1834 <.L108>
    1864:	00812623          	sw	x8,12(x2)
    1868:	01640b33          	add	x22,x8,x22
    186c:	00044583          	lbu	x11,0(x8)
    1870:	13647263          	bgeu	x8,x22,1994 <.L109>

00001874 <.L124>:
    1874:	02c00713          	li	x14,44
    1878:	00040813          	mv	x16,x8
    187c:	0155c7b3          	xor	x15,x11,x21
    1880:	02e58263          	beq	x11,x14,18a4 <.L110>

00001884 <.L132>:
    1884:	00f80023          	sb	x15,0(x16)
    1888:	00c12803          	lw	x16,12(x2)
    188c:	01380833          	add	x16,x16,x19
    1890:	01012623          	sw	x16,12(x2)
    1894:	01687e63          	bgeu	x16,x22,18b0 <.L112>

00001898 <.L111>:
    1898:	00084583          	lbu	x11,0(x16)
    189c:	0155c7b3          	xor	x15,x11,x21
    18a0:	fee592e3          	bne	x11,x14,1884 <.L132>

000018a4 <.L110>:
    18a4:	01380833          	add	x16,x16,x19
    18a8:	01012623          	sw	x16,12(x2)
    18ac:	ff6866e3          	bltu	x16,x22,1898 <.L111>

000018b0 <.L112>:
    18b0:	00044783          	lbu	x15,0(x8)
    18b4:	00812623          	sw	x8,12(x2)
    18b8:	00c10b93          	addi	x23,x2,12
    18bc:	02078e63          	beqz	x15,18f8 <.L116>

000018c0 <.L118>:
    18c0:	00090593          	mv	x11,x18
    18c4:	000b8513          	mv	x10,x23
    18c8:	bc1ff0ef          	jal	x1,1488 <core_state_transition>
    18cc:	05010793          	addi	x15,x2,80
    18d0:	00251613          	slli	x12,x10,0x2
    18d4:	00c78633          	add	x12,x15,x12
    18d8:	00c12703          	lw	x14,12(x2)
    18dc:	fc062783          	lw	x15,-64(x12)
    18e0:	00074703          	lbu	x14,0(x14)
    18e4:	00178793          	addi	x15,x15,1
    18e8:	fcf62023          	sw	x15,-64(x12)
    18ec:	fc071ae3          	bnez	x14,18c0 <.L118>
    18f0:	00812623          	sw	x8,12(x2)
    18f4:	03647463          	bgeu	x8,x22,191c <.L117>

000018f8 <.L116>:
    18f8:	02c00693          	li	x13,44

000018fc <.L123>:
    18fc:	00044783          	lbu	x15,0(x8)
    1900:	0147c733          	xor	x14,x15,x20
    1904:	06d78a63          	beq	x15,x13,1978 <.L121>
    1908:	00e40023          	sb	x14,0(x8)
    190c:	00c12403          	lw	x8,12(x2)
    1910:	01340433          	add	x8,x8,x19
    1914:	00812623          	sw	x8,12(x2)
    1918:	ff6462e3          	bltu	x8,x22,18fc <.L123>

0000191c <.L117>:
    191c:	01010413          	addi	x8,x2,16
    1920:	00090993          	mv	x19,x18

00001924 <.L120>:
    1924:	00042503          	lw	x10,0(x8)
    1928:	00048593          	mv	x11,x9
    192c:	00440413          	addi	x8,x8,4
    1930:	b25fe0ef          	jal	x1,454 <crcu32>
    1934:	00050593          	mv	x11,x10
    1938:	0009a503          	lw	x10,0(x19)
    193c:	00498993          	addi	x19,x19,4
    1940:	b15fe0ef          	jal	x1,454 <crcu32>
    1944:	00050493          	mv	x9,x10
    1948:	fc891ee3          	bne	x18,x8,1924 <.L120>
    194c:	07c12083          	lw	x1,124(x2)
    1950:	07812403          	lw	x8,120(x2)
    1954:	07412483          	lw	x9,116(x2)
    1958:	07012903          	lw	x18,112(x2)
    195c:	06c12983          	lw	x19,108(x2)
    1960:	06812a03          	lw	x20,104(x2)
    1964:	06412a83          	lw	x21,100(x2)
    1968:	06012b03          	lw	x22,96(x2)
    196c:	05c12b83          	lw	x23,92(x2)
    1970:	08010113          	addi	x2,x2,128
    1974:	00008067          	ret

00001978 <.L121>:
    1978:	01340433          	add	x8,x8,x19
    197c:	00812623          	sw	x8,12(x2)
    1980:	f7646ee3          	bltu	x8,x22,18fc <.L123>
    1984:	f99ff06f          	j	191c <.L117>

00001988 <.L107>:
    1988:	00a40b33          	add	x22,x8,x10
    198c:	ef6464e3          	bltu	x8,x22,1874 <.L124>
    1990:	f8dff06f          	j	191c <.L117>

00001994 <.L109>:
    1994:	f20596e3          	bnez	x11,18c0 <.L118>
    1998:	f85ff06f          	j	191c <.L117>

0000199c <calc_func>:
    199c:	fe010113          	addi	x2,x2,-32
    19a0:	00812c23          	sw	x8,24(x2)
    19a4:	00051403          	lh	x8,0(x10)
    19a8:	00112e23          	sw	x1,28(x2)
    19ac:	00912a23          	sw	x9,20(x2)
    19b0:	40745793          	srai	x15,x8,0x7
    19b4:	01212823          	sw	x18,16(x2)
    19b8:	01312623          	sw	x19,12(x2)
    19bc:	0017f793          	andi	x15,x15,1
    19c0:	02078263          	beqz	x15,19e4 <.L2>
    19c4:	01c12083          	lw	x1,28(x2)
    19c8:	07f47513          	andi	x10,x8,127
    19cc:	01812403          	lw	x8,24(x2)
    19d0:	01412483          	lw	x9,20(x2)
    19d4:	01012903          	lw	x18,16(x2)
    19d8:	00c12983          	lw	x19,12(x2)
    19dc:	02010113          	addi	x2,x2,32
    19e0:	00008067          	ret

000019e4 <.L2>:
    19e4:	00058493          	mv	x9,x11
    19e8:	40345593          	srai	x11,x8,0x3
    19ec:	00f5f593          	andi	x11,x11,15
    19f0:	00459713          	slli	x14,x11,0x4
    19f4:	00747693          	andi	x13,x8,7
    19f8:	0384d783          	lhu	x15,56(x9)
    19fc:	00050993          	mv	x19,x10
    1a00:	00b765b3          	or	x11,x14,x11
    1a04:	04068c63          	beqz	x13,1a5c <.L4>
    1a08:	00100713          	li	x14,1
    1a0c:	08e68a63          	beq	x13,x14,1aa0 <.L5>
    1a10:	01041513          	slli	x10,x8,0x10
    1a14:	01055513          	srli	x10,x10,0x10
    1a18:	00040913          	mv	x18,x8

00001a1c <.L6>:
    1a1c:	00078593          	mv	x11,x15
    1a20:	fb0fe0ef          	jal	x1,1d0 <crcu16>
    1a24:	00050793          	mv	x15,x10
    1a28:	f0047413          	andi	x8,x8,-256
    1a2c:	07f97513          	andi	x10,x18,127
    1a30:	00856433          	or	x8,x10,x8
    1a34:	02f49c23          	sh	x15,56(x9)
    1a38:	08046413          	ori	x8,x8,128
    1a3c:	00899023          	sh	x8,0(x19)
    1a40:	01c12083          	lw	x1,28(x2)
    1a44:	01812403          	lw	x8,24(x2)
    1a48:	01412483          	lw	x9,20(x2)
    1a4c:	01012903          	lw	x18,16(x2)
    1a50:	00c12983          	lw	x19,12(x2)
    1a54:	02010113          	addi	x2,x2,32
    1a58:	00008067          	ret

00001a5c <.L4>:
    1a5c:	02200693          	li	x13,34
    1a60:	00058713          	mv	x14,x11
    1a64:	00d5d463          	bge	x11,x13,1a6c <.L7>
    1a68:	02200713          	li	x14,34

00001a6c <.L7>:
    1a6c:	00249683          	lh	x13,2(x9)
    1a70:	00049603          	lh	x12,0(x9)
    1a74:	0144a583          	lw	x11,20(x9)
    1a78:	0184a503          	lw	x10,24(x9)
    1a7c:	0ff77713          	andi	x14,x14,255
    1a80:	d21ff0ef          	jal	x1,17a0 <core_bench_state>
    1a84:	03e4d783          	lhu	x15,62(x9)
    1a88:	01051913          	slli	x18,x10,0x10
    1a8c:	41095913          	srai	x18,x18,0x10
    1a90:	02079c63          	bnez	x15,1ac8 <.L11>
    1a94:	0384d783          	lhu	x15,56(x9)
    1a98:	02a49f23          	sh	x10,62(x9)
    1a9c:	f81ff06f          	j	1a1c <.L6>

00001aa0 <.L5>:
    1aa0:	00078613          	mv	x12,x15
    1aa4:	02848513          	addi	x10,x9,40
    1aa8:	324010ef          	jal	x1,2dcc <core_bench_matrix>
    1aac:	03c4d783          	lhu	x15,60(x9)
    1ab0:	01051913          	slli	x18,x10,0x10
    1ab4:	41095913          	srai	x18,x18,0x10
    1ab8:	00079863          	bnez	x15,1ac8 <.L11>
    1abc:	0384d783          	lhu	x15,56(x9)
    1ac0:	02a49e23          	sh	x10,60(x9)
    1ac4:	f59ff06f          	j	1a1c <.L6>

00001ac8 <.L11>:
    1ac8:	0384d783          	lhu	x15,56(x9)
    1acc:	f51ff06f          	j	1a1c <.L6>

00001ad0 <cmp_complex>:
    1ad0:	fe010113          	addi	x2,x2,-32
    1ad4:	00912a23          	sw	x9,20(x2)
    1ad8:	00051483          	lh	x9,0(x10)
    1adc:	00812c23          	sw	x8,24(x2)
    1ae0:	01212823          	sw	x18,16(x2)
    1ae4:	4074d793          	srai	x15,x9,0x7
    1ae8:	01412423          	sw	x20,8(x2)
    1aec:	00112e23          	sw	x1,28(x2)
    1af0:	01312623          	sw	x19,12(x2)
    1af4:	0017f793          	andi	x15,x15,1
    1af8:	00058913          	mv	x18,x11
    1afc:	00060413          	mv	x8,x12
    1b00:	07f4fa13          	andi	x20,x9,127
    1b04:	04079c63          	bnez	x15,1b5c <.L15>
    1b08:	4034d593          	srai	x11,x9,0x3
    1b0c:	00f5f593          	andi	x11,x11,15
    1b10:	00459693          	slli	x13,x11,0x4
    1b14:	0074f713          	andi	x14,x9,7
    1b18:	03865783          	lhu	x15,56(x12)
    1b1c:	00050993          	mv	x19,x10
    1b20:	00d5e5b3          	or	x11,x11,x13
    1b24:	0e070463          	beqz	x14,1c0c <.L16>
    1b28:	00100693          	li	x13,1
    1b2c:	16d70463          	beq	x14,x13,1c94 <.L17>
    1b30:	01049513          	slli	x10,x9,0x10
    1b34:	01055513          	srli	x10,x10,0x10
    1b38:	00048a13          	mv	x20,x9

00001b3c <.L18>:
    1b3c:	00078593          	mv	x11,x15
    1b40:	07fa7a13          	andi	x20,x20,127
    1b44:	f004f493          	andi	x9,x9,-256
    1b48:	e88fe0ef          	jal	x1,1d0 <crcu16>
    1b4c:	009a64b3          	or	x9,x20,x9
    1b50:	02a41c23          	sh	x10,56(x8)
    1b54:	0804e493          	ori	x9,x9,128
    1b58:	00999023          	sh	x9,0(x19)

00001b5c <.L15>:
    1b5c:	00091483          	lh	x9,0(x18)
    1b60:	4074d793          	srai	x15,x9,0x7
    1b64:	0017f793          	andi	x15,x15,1
    1b68:	07f4f993          	andi	x19,x9,127
    1b6c:	06079663          	bnez	x15,1bd8 <.L23>
    1b70:	4034d593          	srai	x11,x9,0x3
    1b74:	00f5f593          	andi	x11,x11,15
    1b78:	00459693          	slli	x13,x11,0x4
    1b7c:	0074f713          	andi	x14,x9,7
    1b80:	03845783          	lhu	x15,56(x8)
    1b84:	00d5e5b3          	or	x11,x11,x13
    1b88:	0c070463          	beqz	x14,1c50 <.L24>
    1b8c:	00100693          	li	x13,1
    1b90:	06d71663          	bne	x14,x13,1bfc <.L33>
    1b94:	00078613          	mv	x12,x15
    1b98:	02840513          	addi	x10,x8,40
    1b9c:	230010ef          	jal	x1,2dcc <core_bench_matrix>
    1ba0:	03c45783          	lhu	x15,60(x8)
    1ba4:	01051993          	slli	x19,x10,0x10
    1ba8:	4109d993          	srai	x19,x19,0x10
    1bac:	10079863          	bnez	x15,1cbc <.L32>
    1bb0:	03845783          	lhu	x15,56(x8)
    1bb4:	02a41e23          	sh	x10,60(x8)

00001bb8 <.L26>:
    1bb8:	00078593          	mv	x11,x15
    1bbc:	07f9f993          	andi	x19,x19,127
    1bc0:	f004f493          	andi	x9,x9,-256
    1bc4:	e0cfe0ef          	jal	x1,1d0 <crcu16>
    1bc8:	0099e4b3          	or	x9,x19,x9
    1bcc:	02a41c23          	sh	x10,56(x8)
    1bd0:	0804e493          	ori	x9,x9,128
    1bd4:	00991023          	sh	x9,0(x18)

00001bd8 <.L23>:
    1bd8:	01c12083          	lw	x1,28(x2)
    1bdc:	01812403          	lw	x8,24(x2)
    1be0:	413a0533          	sub	x10,x20,x19
    1be4:	01412483          	lw	x9,20(x2)
    1be8:	01012903          	lw	x18,16(x2)
    1bec:	00c12983          	lw	x19,12(x2)
    1bf0:	00812a03          	lw	x20,8(x2)
    1bf4:	02010113          	addi	x2,x2,32
    1bf8:	00008067          	ret

00001bfc <.L33>:
    1bfc:	01049513          	slli	x10,x9,0x10
    1c00:	01055513          	srli	x10,x10,0x10
    1c04:	00048993          	mv	x19,x9
    1c08:	fb1ff06f          	j	1bb8 <.L26>

00001c0c <.L16>:
    1c0c:	02200693          	li	x13,34
    1c10:	00058713          	mv	x14,x11
    1c14:	00d5d463          	bge	x11,x13,1c1c <.L19>
    1c18:	02200713          	li	x14,34

00001c1c <.L19>:
    1c1c:	00241683          	lh	x13,2(x8)
    1c20:	00041603          	lh	x12,0(x8)
    1c24:	01442583          	lw	x11,20(x8)
    1c28:	01842503          	lw	x10,24(x8)
    1c2c:	0ff77713          	andi	x14,x14,255
    1c30:	b71ff0ef          	jal	x1,17a0 <core_bench_state>
    1c34:	03e45783          	lhu	x15,62(x8)
    1c38:	01051a13          	slli	x20,x10,0x10
    1c3c:	410a5a13          	srai	x20,x20,0x10
    1c40:	08079263          	bnez	x15,1cc4 <.L31>
    1c44:	03845783          	lhu	x15,56(x8)
    1c48:	02a41f23          	sh	x10,62(x8)
    1c4c:	ef1ff06f          	j	1b3c <.L18>

00001c50 <.L24>:
    1c50:	02200693          	li	x13,34
    1c54:	00058713          	mv	x14,x11
    1c58:	00d5d463          	bge	x11,x13,1c60 <.L27>
    1c5c:	02200713          	li	x14,34

00001c60 <.L27>:
    1c60:	00241683          	lh	x13,2(x8)
    1c64:	00041603          	lh	x12,0(x8)
    1c68:	01442583          	lw	x11,20(x8)
    1c6c:	01842503          	lw	x10,24(x8)
    1c70:	0ff77713          	andi	x14,x14,255
    1c74:	b2dff0ef          	jal	x1,17a0 <core_bench_state>
    1c78:	03e45783          	lhu	x15,62(x8)
    1c7c:	01051993          	slli	x19,x10,0x10
    1c80:	4109d993          	srai	x19,x19,0x10
    1c84:	02079c63          	bnez	x15,1cbc <.L32>
    1c88:	03845783          	lhu	x15,56(x8)
    1c8c:	02a41f23          	sh	x10,62(x8)
    1c90:	f29ff06f          	j	1bb8 <.L26>

00001c94 <.L17>:
    1c94:	00078613          	mv	x12,x15
    1c98:	02840513          	addi	x10,x8,40
    1c9c:	130010ef          	jal	x1,2dcc <core_bench_matrix>
    1ca0:	03c45783          	lhu	x15,60(x8)
    1ca4:	01051a13          	slli	x20,x10,0x10
    1ca8:	410a5a13          	srai	x20,x20,0x10
    1cac:	00079c63          	bnez	x15,1cc4 <.L31>
    1cb0:	03845783          	lhu	x15,56(x8)
    1cb4:	02a41e23          	sh	x10,60(x8)
    1cb8:	e85ff06f          	j	1b3c <.L18>

00001cbc <.L32>:
    1cbc:	03845783          	lhu	x15,56(x8)
    1cc0:	ef9ff06f          	j	1bb8 <.L26>

00001cc4 <.L31>:
    1cc4:	03845783          	lhu	x15,56(x8)
    1cc8:	e75ff06f          	j	1b3c <.L18>

00001ccc <cmp_idx>:
    1ccc:	00060a63          	beqz	x12,1ce0 <.L36>
    1cd0:	00251503          	lh	x10,2(x10)
    1cd4:	00259783          	lh	x15,2(x11)
    1cd8:	40f50533          	sub	x10,x10,x15
    1cdc:	00008067          	ret

00001ce0 <.L36>:
    1ce0:	00051783          	lh	x15,0(x10)
    1ce4:	01079713          	slli	x14,x15,0x10
    1ce8:	01075713          	srli	x14,x14,0x10
    1cec:	00875713          	srli	x14,x14,0x8
    1cf0:	f007f793          	andi	x15,x15,-256
    1cf4:	00e7e7b3          	or	x15,x15,x14
    1cf8:	00f51023          	sh	x15,0(x10)
    1cfc:	00059783          	lh	x15,0(x11)
    1d00:	00251503          	lh	x10,2(x10)
    1d04:	01079713          	slli	x14,x15,0x10
    1d08:	01075713          	srli	x14,x14,0x10
    1d0c:	00875713          	srli	x14,x14,0x8
    1d10:	f007f793          	andi	x15,x15,-256
    1d14:	00e7e7b3          	or	x15,x15,x14
    1d18:	00f59023          	sh	x15,0(x11)
    1d1c:	00259783          	lh	x15,2(x11)
    1d20:	40f50533          	sub	x10,x10,x15
    1d24:	00008067          	ret

00001d28 <copy_info>:
    1d28:	00059703          	lh	x14,0(x11)
    1d2c:	00259783          	lh	x15,2(x11)
    1d30:	00e51023          	sh	x14,0(x10)
    1d34:	00f51123          	sh	x15,2(x10)
    1d38:	00008067          	ret

00001d3c <core_bench_list>:
    1d3c:	00451883          	lh	x17,4(x10)
    1d40:	fc010113          	addi	x2,x2,-64
    1d44:	02812c23          	sw	x8,56(x2)
    1d48:	01b12623          	sw	x27,12(x2)
    1d4c:	02112e23          	sw	x1,60(x2)
    1d50:	02912a23          	sw	x9,52(x2)
    1d54:	03212823          	sw	x18,48(x2)
    1d58:	03312623          	sw	x19,44(x2)
    1d5c:	03412423          	sw	x20,40(x2)
    1d60:	03512223          	sw	x21,36(x2)
    1d64:	03612023          	sw	x22,32(x2)
    1d68:	01712e23          	sw	x23,28(x2)
    1d6c:	01812c23          	sw	x24,24(x2)
    1d70:	01912a23          	sw	x25,20(x2)
    1d74:	01a12823          	sw	x26,16(x2)
    1d78:	02452403          	lw	x8,36(x10)
    1d7c:	00050d93          	mv	x27,x10
    1d80:	00058513          	mv	x10,x11
    1d84:	43105263          	blez	x17,21a8 <.L98>
    1d88:	00058b93          	mv	x23,x11
    1d8c:	00000613          	li	x12,0
    1d90:	00000813          	li	x16,0
    1d94:	00000593          	li	x11,0
    1d98:	00000913          	li	x18,0

00001d9c <.L52>:
    1d9c:	0ff67c93          	andi	x25,x12,255
    1da0:	280bc063          	bltz	x23,2020 <.L147>
    1da4:	40040a63          	beqz	x8,21b8 <.L41>
    1da8:	00040793          	mv	x15,x8
    1dac:	00c0006f          	j	1db8 <.L43>

00001db0 <.L45>:
    1db0:	0007a783          	lw	x15,0(x15)
    1db4:	00078863          	beqz	x15,1dc4 <.L44>

00001db8 <.L43>:
    1db8:	0047a703          	lw	x14,4(x15)
    1dbc:	00271703          	lh	x14,2(x14)
    1dc0:	ff7718e3          	bne	x14,x23,1db0 <.L45>

00001dc4 <.L44>:
    1dc4:	00000693          	li	x13,0
    1dc8:	00c0006f          	j	1dd4 <.L47>

00001dcc <.L100>:
    1dcc:	00040693          	mv	x13,x8
    1dd0:	00070413          	mv	x8,x14

00001dd4 <.L47>:
    1dd4:	00042703          	lw	x14,0(x8)
    1dd8:	00d42023          	sw	x13,0(x8)
    1ddc:	fe0718e3          	bnez	x14,1dcc <.L100>
    1de0:	26078263          	beqz	x15,2044 <.L148>
    1de4:	0047a683          	lw	x13,4(x15)
    1de8:	00158593          	addi	x11,x11,1
    1dec:	01059593          	slli	x11,x11,0x10
    1df0:	00069703          	lh	x14,0(x13)
    1df4:	0105d593          	srli	x11,x11,0x10
    1df8:	00177693          	andi	x13,x14,1
    1dfc:	00068c63          	beqz	x13,1e14 <.L50>
    1e00:	40975713          	srai	x14,x14,0x9
    1e04:	00177713          	andi	x14,x14,1
    1e08:	00e90733          	add	x14,x18,x14
    1e0c:	01071913          	slli	x18,x14,0x10
    1e10:	01095913          	srli	x18,x18,0x10

00001e14 <.L50>:
    1e14:	0007a683          	lw	x13,0(x15)
    1e18:	00068c63          	beqz	x13,1e30 <.L49>
    1e1c:	0006a703          	lw	x14,0(x13)
    1e20:	00e7a023          	sw	x14,0(x15)
    1e24:	00042783          	lw	x15,0(x8)
    1e28:	00f6a023          	sw	x15,0(x13)
    1e2c:	00d42023          	sw	x13,0(x8)

00001e30 <.L49>:
    1e30:	000bc863          	bltz	x23,1e40 <.L51>
    1e34:	001b8b93          	addi	x23,x23,1
    1e38:	010b9b93          	slli	x23,x23,0x10
    1e3c:	410bdb93          	srai	x23,x23,0x10

00001e40 <.L51>:
    1e40:	00160613          	addi	x12,x12,1
    1e44:	01061613          	slli	x12,x12,0x10
    1e48:	41065613          	srai	x12,x12,0x10
    1e4c:	f4c898e3          	bne	x17,x12,1d9c <.L52>
    1e50:	00259793          	slli	x15,x11,0x2
    1e54:	410787b3          	sub	x15,x15,x16
    1e58:	00f907b3          	add	x15,x18,x15
    1e5c:	01079913          	slli	x18,x15,0x10
    1e60:	01095913          	srli	x18,x18,0x10

00001e64 <.L39>:
    1e64:	26a04a63          	bgtz	x10,20d8 <.L149>

00001e68 <.L53>:
    1e68:	00042783          	lw	x15,0(x8)
    1e6c:	00040493          	mv	x9,x8
    1e70:	0007a983          	lw	x19,0(x15)
    1e74:	0047a703          	lw	x14,4(x15)
    1e78:	0049a603          	lw	x12,4(x19)
    1e7c:	0009a683          	lw	x13,0(x19)
    1e80:	00c7a223          	sw	x12,4(x15)
    1e84:	00e9a223          	sw	x14,4(x19)
    1e88:	00d7a023          	sw	x13,0(x15)
    1e8c:	0009a023          	sw	x0,0(x19)
    1e90:	120bc663          	bltz	x23,1fbc <.L71>

00001e94 <.L70>:
    1e94:	0044a783          	lw	x15,4(x9)
    1e98:	00279783          	lh	x15,2(x15)
    1e9c:	01778a63          	beq	x15,x23,1eb0 <.L76>
    1ea0:	0004a483          	lw	x9,0(x9)
    1ea4:	fe0498e3          	bnez	x9,1e94 <.L70>
    1ea8:	00042483          	lw	x9,0(x8)
    1eac:	02048463          	beqz	x9,1ed4 <.L97>

00001eb0 <.L76>:
    1eb0:	00442783          	lw	x15,4(x8)
    1eb4:	00090593          	mv	x11,x18
    1eb8:	00079503          	lh	x10,0(x15)
    1ebc:	ab5fe0ef          	jal	x1,970 <crc16>
    1ec0:	0004a483          	lw	x9,0(x9)
    1ec4:	00050913          	mv	x18,x10
    1ec8:	fe0494e3          	bnez	x9,1eb0 <.L76>
    1ecc:	00042483          	lw	x9,0(x8)
    1ed0:	0049a703          	lw	x14,4(x19)

00001ed4 <.L97>:
    1ed4:	0044a683          	lw	x13,4(x9)
    1ed8:	0004a783          	lw	x15,0(x9)
    1edc:	00100e13          	li	x28,1
    1ee0:	00d9a223          	sw	x13,4(x19)
    1ee4:	00e4a223          	sw	x14,4(x9)
    1ee8:	00f9a023          	sw	x15,0(x19)
    1eec:	0134a023          	sw	x19,0(x9)
    1ef0:	00000613          	li	x12,0
    1ef4:	00000493          	li	x9,0
    1ef8:	00000f13          	li	x30,0
    1efc:	00100f93          	li	x31,1

00001f00 <.L77>:
    1f00:	001f0f13          	addi	x30,x30,1 # 1a001 <.L119+0x1535d>
    1f04:	00040793          	mv	x15,x8
    1f08:	00000713          	li	x14,0

00001f0c <.L80>:
    1f0c:	0007a783          	lw	x15,0(x15)
    1f10:	00170713          	addi	x14,x14,1
    1f14:	00078463          	beqz	x15,1f1c <.L81>
    1f18:	feee1ae3          	bne	x28,x14,1f0c <.L80>

00001f1c <.L81>:
    1f1c:	000e0593          	mv	x11,x28
    1f20:	06070c63          	beqz	x14,1f98 <.L150>

00001f24 <.L87>:
    1f24:	0a058c63          	beqz	x11,1fdc <.L145>
    1f28:	0a078a63          	beqz	x15,1fdc <.L145>
    1f2c:	00442883          	lw	x17,4(x8)
    1f30:	0047a803          	lw	x16,4(x15)
    1f34:	00089683          	lh	x13,0(x17)
    1f38:	00281e83          	lh	x29,2(x16)
    1f3c:	00289503          	lh	x10,2(x17)
    1f40:	01069313          	slli	x6,x13,0x10
    1f44:	01035313          	srli	x6,x6,0x10
    1f48:	f006f693          	andi	x13,x13,-256
    1f4c:	00835313          	srli	x6,x6,0x8
    1f50:	0066e6b3          	or	x13,x13,x6
    1f54:	00d89023          	sh	x13,0(x17)
    1f58:	00081683          	lh	x13,0(x16)
    1f5c:	41d50533          	sub	x10,x10,x29
    1f60:	01069893          	slli	x17,x13,0x10
    1f64:	0108d893          	srli	x17,x17,0x10
    1f68:	f006f693          	andi	x13,x13,-256
    1f6c:	0088d893          	srli	x17,x17,0x8
    1f70:	0116e6b3          	or	x13,x13,x17
    1f74:	00d81023          	sh	x13,0(x16)
    1f78:	06a05263          	blez	x10,1fdc <.L145>
    1f7c:	00078693          	mv	x13,x15
    1f80:	0007a783          	lw	x15,0(x15)
    1f84:	fff58593          	addi	x11,x11,-1

00001f88 <.L82>:
    1f88:	02060463          	beqz	x12,1fb0 <.L104>

00001f8c <.L151>:
    1f8c:	00d62023          	sw	x13,0(x12)
    1f90:	00068613          	mv	x12,x13

00001f94 <.L152>:
    1f94:	f80718e3          	bnez	x14,1f24 <.L87>

00001f98 <.L150>:
    1f98:	04058a63          	beqz	x11,1fec <.L88>
    1f9c:	04078e63          	beqz	x15,1ff8 <.L90>
    1fa0:	00078693          	mv	x13,x15
    1fa4:	fff58593          	addi	x11,x11,-1
    1fa8:	0007a783          	lw	x15,0(x15)
    1fac:	fe0610e3          	bnez	x12,1f8c <.L151>

00001fb0 <.L104>:
    1fb0:	00068493          	mv	x9,x13
    1fb4:	00068613          	mv	x12,x13
    1fb8:	fddff06f          	j	1f94 <.L152>

00001fbc <.L71>:
    1fbc:	0044a783          	lw	x15,4(x9)
    1fc0:	0007c783          	lbu	x15,0(x15)
    1fc4:	eefc86e3          	beq	x25,x15,1eb0 <.L76>
    1fc8:	0004a483          	lw	x9,0(x9)
    1fcc:	fe0498e3          	bnez	x9,1fbc <.L71>
    1fd0:	00042483          	lw	x9,0(x8)
    1fd4:	ec049ee3          	bnez	x9,1eb0 <.L76>
    1fd8:	efdff06f          	j	1ed4 <.L97>

00001fdc <.L145>:
    1fdc:	00040693          	mv	x13,x8
    1fe0:	fff70713          	addi	x14,x14,-1
    1fe4:	00042403          	lw	x8,0(x8)
    1fe8:	fa1ff06f          	j	1f88 <.L82>

00001fec <.L88>:
    1fec:	00078663          	beqz	x15,1ff8 <.L90>
    1ff0:	00078413          	mv	x8,x15
    1ff4:	f0dff06f          	j	1f00 <.L77>

00001ff8 <.L90>:
    1ff8:	00062023          	sw	x0,0(x12)
    1ffc:	07ff0c63          	beq	x30,x31,2074 <.L153>
    2000:	001e1e13          	slli	x28,x28,0x1
    2004:	06048463          	beqz	x9,206c <.L142>
    2008:	00048793          	mv	x15,x9
    200c:	00000f13          	li	x30,0
    2010:	00000613          	li	x12,0
    2014:	00000493          	li	x9,0
    2018:	00078413          	mv	x8,x15
    201c:	ee5ff06f          	j	1f00 <.L77>

00002020 <.L147>:
    2020:	18040c63          	beqz	x8,21b8 <.L41>
    2024:	00040793          	mv	x15,x8
    2028:	00c0006f          	j	2034 <.L42>

0000202c <.L46>:
    202c:	0007a783          	lw	x15,0(x15)
    2030:	d8078ae3          	beqz	x15,1dc4 <.L44>

00002034 <.L42>:
    2034:	0047a703          	lw	x14,4(x15)
    2038:	00074703          	lbu	x14,0(x14)
    203c:	feec98e3          	bne	x25,x14,202c <.L46>
    2040:	d85ff06f          	j	1dc4 <.L44>

00002044 <.L148>:
    2044:	0046a703          	lw	x14,4(x13)
    2048:	00180793          	addi	x15,x16,1
    204c:	01079813          	slli	x16,x15,0x10
    2050:	00170783          	lb	x15,1(x14)
    2054:	01085813          	srli	x16,x16,0x10
    2058:	0017f793          	andi	x15,x15,1
    205c:	00f907b3          	add	x15,x18,x15
    2060:	01079913          	slli	x18,x15,0x10
    2064:	01095913          	srli	x18,x18,0x10
    2068:	dc9ff06f          	j	1e30 <.L49>

0000206c <.L142>:
    206c:	00002023          	sw	x0,0(x0) # 0 <_start>
    2070:	00100073          	ebreak

00002074 <.L153>:
    2074:	0004a403          	lw	x8,0(x9)
    2078:	02040063          	beqz	x8,2098 <.L141>

0000207c <.L93>:
    207c:	0044a783          	lw	x15,4(x9)
    2080:	00090593          	mv	x11,x18
    2084:	00079503          	lh	x10,0(x15)
    2088:	8e9fe0ef          	jal	x1,970 <crc16>
    208c:	00042403          	lw	x8,0(x8)
    2090:	00050913          	mv	x18,x10
    2094:	fe0414e3          	bnez	x8,207c <.L93>

00002098 <.L141>:
    2098:	03c12083          	lw	x1,60(x2)
    209c:	03812403          	lw	x8,56(x2)
    20a0:	03412483          	lw	x9,52(x2)
    20a4:	02c12983          	lw	x19,44(x2)
    20a8:	02812a03          	lw	x20,40(x2)
    20ac:	02412a83          	lw	x21,36(x2)
    20b0:	02012b03          	lw	x22,32(x2)
    20b4:	01c12b83          	lw	x23,28(x2)
    20b8:	01812c03          	lw	x24,24(x2)
    20bc:	01412c83          	lw	x25,20(x2)
    20c0:	01012d03          	lw	x26,16(x2)
    20c4:	00c12d83          	lw	x27,12(x2)
    20c8:	00090513          	mv	x10,x18
    20cc:	03012903          	lw	x18,48(x2)
    20d0:	04010113          	addi	x2,x2,64
    20d4:	00008067          	ret

000020d8 <.L149>:
    20d8:	00100d13          	li	x26,1

000020dc <.L69>:
    20dc:	f80408e3          	beqz	x8,206c <.L142>
    20e0:	00000993          	li	x19,0
    20e4:	00000b13          	li	x22,0
    20e8:	00000c13          	li	x24,0

000020ec <.L68>:
    20ec:	001c0c13          	addi	x24,x24,1 # 1d001 <.L119+0x1835d>
    20f0:	00040793          	mv	x15,x8
    20f4:	00000493          	li	x9,0

000020f8 <.L57>:
    20f8:	0007a783          	lw	x15,0(x15)
    20fc:	00148493          	addi	x9,x9,1
    2100:	00078463          	beqz	x15,2108 <.L58>
    2104:	ffa49ae3          	bne	x9,x26,20f8 <.L57>

00002108 <.L58>:
    2108:	00040a93          	mv	x21,x8
    210c:	000d0a13          	mv	x20,x26
    2110:	00078413          	mv	x8,x15
    2114:	02048e63          	beqz	x9,2150 <.L154>

00002118 <.L64>:
    2118:	040a0e63          	beqz	x20,2174 <.L144>
    211c:	04040c63          	beqz	x8,2174 <.L144>
    2120:	00442583          	lw	x11,4(x8)
    2124:	004aa503          	lw	x10,4(x21)
    2128:	000d8613          	mv	x12,x27
    212c:	9a5ff0ef          	jal	x1,1ad0 <cmp_complex>
    2130:	04a05263          	blez	x10,2174 <.L144>
    2134:	00040793          	mv	x15,x8
    2138:	00042403          	lw	x8,0(x8)
    213c:	fffa0a13          	addi	x20,x20,-1

00002140 <.L59>:
    2140:	02098463          	beqz	x19,2168 <.L101>

00002144 <.L155>:
    2144:	00f9a023          	sw	x15,0(x19)
    2148:	00078993          	mv	x19,x15

0000214c <.L156>:
    214c:	fc0496e3          	bnez	x9,2118 <.L64>

00002150 <.L154>:
    2150:	020a0a63          	beqz	x20,2184 <.L65>
    2154:	02040a63          	beqz	x8,2188 <.L67>
    2158:	00040793          	mv	x15,x8
    215c:	fffa0a13          	addi	x20,x20,-1
    2160:	00042403          	lw	x8,0(x8)
    2164:	fe0990e3          	bnez	x19,2144 <.L155>

00002168 <.L101>:
    2168:	00078b13          	mv	x22,x15
    216c:	00078993          	mv	x19,x15
    2170:	fddff06f          	j	214c <.L156>

00002174 <.L144>:
    2174:	000a8793          	mv	x15,x21
    2178:	fff48493          	addi	x9,x9,-1
    217c:	000aaa83          	lw	x21,0(x21)
    2180:	fc1ff06f          	j	2140 <.L59>

00002184 <.L65>:
    2184:	f60414e3          	bnez	x8,20ec <.L68>

00002188 <.L67>:
    2188:	0009a023          	sw	x0,0(x19)
    218c:	00100793          	li	x15,1
    2190:	00fc0863          	beq	x24,x15,21a0 <.L102>
    2194:	001d1d13          	slli	x26,x26,0x1
    2198:	000b0413          	mv	x8,x22
    219c:	f41ff06f          	j	20dc <.L69>

000021a0 <.L102>:
    21a0:	000b0413          	mv	x8,x22
    21a4:	cc5ff06f          	j	1e68 <.L53>

000021a8 <.L98>:
    21a8:	00000c93          	li	x25,0
    21ac:	00058b93          	mv	x23,x11
    21b0:	00000913          	li	x18,0
    21b4:	cb1ff06f          	j	1e64 <.L39>

000021b8 <.L41>:
    21b8:	00002783          	lw	x15,0(x0) # 0 <_start>
    21bc:	00100073          	ebreak

000021c0 <core_list_init>:
    21c0:	fe010113          	addi	x2,x2,-32
    21c4:	00812c23          	sw	x8,24(x2)
    21c8:	00058413          	mv	x8,x11
    21cc:	01400593          	li	x11,20
    21d0:	00912a23          	sw	x9,20(x2)
    21d4:	01312623          	sw	x19,12(x2)
    21d8:	00112e23          	sw	x1,28(x2)
    21dc:	00060993          	mv	x19,x12
    21e0:	01212823          	sw	x18,16(x2)
    21e4:	6a1010ef          	jal	x1,4084 <__udivsi3>
    21e8:	ffe50513          	addi	x10,x10,-2
    21ec:	00351593          	slli	x11,x10,0x3
    21f0:	00b405b3          	add	x11,x8,x11
    21f4:	ffff87b7          	lui	x15,0xffff8
    21f8:	00042023          	sw	x0,0(x8)
    21fc:	00b42223          	sw	x11,4(x8)
    2200:	08078713          	addi	x14,x15,128 # ffff8080 <seed1_volatile+0xfffb79c0>
    2204:	00251e13          	slli	x28,x10,0x2
    2208:	00e59023          	sh	x14,0(x11)
    220c:	00059123          	sh	x0,2(x11)
    2210:	01040713          	addi	x14,x8,16
    2214:	01c58e33          	add	x28,x11,x28
    2218:	00840493          	addi	x9,x8,8
    221c:	00458613          	addi	x12,x11,4
    2220:	24b77863          	bgeu	x14,x11,2470 <.L189>
    2224:	00858693          	addi	x13,x11,8
    2228:	25c6f463          	bgeu	x13,x28,2470 <.L189>
    222c:	00c42623          	sw	x12,12(x8)
    2230:	00042423          	sw	x0,8(x8)
    2234:	00942023          	sw	x9,0(x8)
    2238:	fff7c793          	not	x15,x15
    223c:	fff00613          	li	x12,-1
    2240:	00c59223          	sh	x12,4(x11)
    2244:	00f59323          	sh	x15,6(x11)

00002248 <.L158>:
    2248:	06050a63          	beqz	x10,22bc <.L159>
    224c:	01099f13          	slli	x30,x19,0x10
    2250:	ffff8eb7          	lui	x29,0xffff8
    2254:	010f5f13          	srli	x30,x30,0x10
    2258:	00000613          	li	x12,0
    225c:	fffece93          	not	x29,x29

00002260 <.L164>:
    2260:	00870893          	addi	x17,x14,8
    2264:	04b8fc63          	bgeu	x17,x11,22bc <.L159>
    2268:	00468313          	addi	x6,x13,4
    226c:	05c37463          	bgeu	x6,x28,22b4 <.L161>
    2270:	01061813          	slli	x16,x12,0x10
    2274:	01085813          	srli	x16,x16,0x10
    2278:	01e847b3          	xor	x15,x16,x30
    227c:	00379793          	slli	x15,x15,0x3
    2280:	00787813          	andi	x16,x16,7
    2284:	0787f793          	andi	x15,x15,120
    2288:	00972023          	sw	x9,0(x14)
    228c:	0107e7b3          	or	x15,x15,x16
    2290:	00e42023          	sw	x14,0(x8)
    2294:	00879813          	slli	x16,x15,0x8
    2298:	00d72223          	sw	x13,4(x14)
    229c:	00f867b3          	or	x15,x16,x15
    22a0:	00f69023          	sh	x15,0(x13)
    22a4:	01d69123          	sh	x29,2(x13)
    22a8:	00070493          	mv	x9,x14
    22ac:	00030693          	mv	x13,x6
    22b0:	00088713          	mv	x14,x17

000022b4 <.L161>:
    22b4:	00160613          	addi	x12,x12,1
    22b8:	fac514e3          	bne	x10,x12,2260 <.L164>

000022bc <.L159>:
    22bc:	0004a903          	lw	x18,0(x9)
    22c0:	06090c63          	beqz	x18,2338 <.L169>
    22c4:	00500593          	li	x11,5
    22c8:	5bd010ef          	jal	x1,4084 <__udivsi3>
    22cc:	00004837          	lui	x16,0x4
    22d0:	20000793          	li	x15,512
    22d4:	00100713          	li	x14,1
    22d8:	fff80813          	addi	x16,x16,-1 # 3fff <.LBE5+0x3>
    22dc:	0280006f          	j	2304 <.L170>

000022e0 <.L206>:
    22e0:	00092683          	lw	x13,0(x18)
    22e4:	10078793          	addi	x15,x15,256
    22e8:	00e59123          	sh	x14,2(x11)
    22ec:	01079793          	slli	x15,x15,0x10
    22f0:	00170713          	addi	x14,x14,1
    22f4:	0107d793          	srli	x15,x15,0x10
    22f8:	04068063          	beqz	x13,2338 <.L169>

000022fc <.L168>:
    22fc:	00090493          	mv	x9,x18
    2300:	00068913          	mv	x18,x13

00002304 <.L170>:
    2304:	0044a583          	lw	x11,4(x9)
    2308:	fca76ce3          	bltu	x14,x10,22e0 <.L206>
    230c:	013746b3          	xor	x13,x14,x19
    2310:	7007f613          	andi	x12,x15,1792
    2314:	00d66633          	or	x12,x12,x13
    2318:	00092683          	lw	x13,0(x18)
    231c:	01067633          	and	x12,x12,x16
    2320:	10078793          	addi	x15,x15,256
    2324:	01079793          	slli	x15,x15,0x10
    2328:	00c59123          	sh	x12,2(x11)
    232c:	00170713          	addi	x14,x14,1
    2330:	0107d793          	srli	x15,x15,0x10
    2334:	fc0694e3          	bnez	x13,22fc <.L168>

00002338 <.L169>:
    2338:	00100e93          	li	x29,1
    233c:	00000593          	li	x11,0
    2340:	00000513          	li	x10,0
    2344:	00000f93          	li	x31,0
    2348:	00100293          	li	x5,1

0000234c <.L166>:
    234c:	001f8f93          	addi	x31,x31,1
    2350:	00040793          	mv	x15,x8
    2354:	00000713          	li	x14,0

00002358 <.L173>:
    2358:	0007a783          	lw	x15,0(x15)
    235c:	00170713          	addi	x14,x14,1
    2360:	00078463          	beqz	x15,2368 <.L174>
    2364:	ffd71ae3          	bne	x14,x29,2358 <.L173>

00002368 <.L174>:
    2368:	000e8613          	mv	x12,x29
    236c:	06070c63          	beqz	x14,23e4 <.L207>

00002370 <.L180>:
    2370:	08060c63          	beqz	x12,2408 <.L205>
    2374:	08078a63          	beqz	x15,2408 <.L205>
    2378:	00442303          	lw	x6,4(x8)
    237c:	0047a883          	lw	x17,4(x15)
    2380:	00031683          	lh	x13,0(x6) # 1a000 <.L119+0x1535c>
    2384:	00289f03          	lh	x30,2(x17)
    2388:	00231803          	lh	x16,2(x6)
    238c:	01069e13          	slli	x28,x13,0x10
    2390:	010e5e13          	srli	x28,x28,0x10
    2394:	f006f693          	andi	x13,x13,-256
    2398:	008e5e13          	srli	x28,x28,0x8
    239c:	01c6e6b3          	or	x13,x13,x28
    23a0:	00d31023          	sh	x13,0(x6)
    23a4:	00089683          	lh	x13,0(x17)
    23a8:	41e80833          	sub	x16,x16,x30
    23ac:	01069313          	slli	x6,x13,0x10
    23b0:	01035313          	srli	x6,x6,0x10
    23b4:	f006f693          	andi	x13,x13,-256
    23b8:	00835313          	srli	x6,x6,0x8
    23bc:	0066e6b3          	or	x13,x13,x6
    23c0:	00d89023          	sh	x13,0(x17)
    23c4:	05005263          	blez	x16,2408 <.L205>
    23c8:	00078693          	mv	x13,x15
    23cc:	0007a783          	lw	x15,0(x15)
    23d0:	fff60613          	addi	x12,x12,-1

000023d4 <.L175>:
    23d4:	02058463          	beqz	x11,23fc <.L190>

000023d8 <.L208>:
    23d8:	00d5a023          	sw	x13,0(x11)
    23dc:	00068593          	mv	x11,x13

000023e0 <.L209>:
    23e0:	f80718e3          	bnez	x14,2370 <.L180>

000023e4 <.L207>:
    23e4:	02060a63          	beqz	x12,2418 <.L181>
    23e8:	02078e63          	beqz	x15,2424 <.L183>
    23ec:	00078693          	mv	x13,x15
    23f0:	fff60613          	addi	x12,x12,-1
    23f4:	0007a783          	lw	x15,0(x15)
    23f8:	fe0590e3          	bnez	x11,23d8 <.L208>

000023fc <.L190>:
    23fc:	00068513          	mv	x10,x13
    2400:	00068593          	mv	x11,x13
    2404:	fddff06f          	j	23e0 <.L209>

00002408 <.L205>:
    2408:	00040693          	mv	x13,x8
    240c:	fff70713          	addi	x14,x14,-1
    2410:	00042403          	lw	x8,0(x8)
    2414:	fc1ff06f          	j	23d4 <.L175>

00002418 <.L181>:
    2418:	00078663          	beqz	x15,2424 <.L183>
    241c:	00078413          	mv	x8,x15
    2420:	f2dff06f          	j	234c <.L166>

00002424 <.L183>:
    2424:	0005a023          	sw	x0,0(x11)
    2428:	025f8263          	beq	x31,x5,244c <.L202>
    242c:	001e9e93          	slli	x29,x29,0x1
    2430:	02050c63          	beqz	x10,2468 <.L210>
    2434:	00050793          	mv	x15,x10
    2438:	00000f93          	li	x31,0
    243c:	00000593          	li	x11,0
    2440:	00000513          	li	x10,0
    2444:	00078413          	mv	x8,x15
    2448:	f05ff06f          	j	234c <.L166>

0000244c <.L202>:
    244c:	01c12083          	lw	x1,28(x2)
    2450:	01812403          	lw	x8,24(x2)
    2454:	01412483          	lw	x9,20(x2)
    2458:	01012903          	lw	x18,16(x2)
    245c:	00c12983          	lw	x19,12(x2)
    2460:	02010113          	addi	x2,x2,32
    2464:	00008067          	ret

00002468 <.L210>:
    2468:	00002023          	sw	x0,0(x0) # 0 <_start>
    246c:	00100073          	ebreak

00002470 <.L189>:
    2470:	00048713          	mv	x14,x9
    2474:	00060693          	mv	x13,x12
    2478:	00000493          	li	x9,0
    247c:	dcdff06f          	j	2248 <.L158>

00002480 <core_list_insert_new>:
    2480:	00062803          	lw	x16,0(x12)
    2484:	00880893          	addi	x17,x16,8
    2488:	04e8f663          	bgeu	x17,x14,24d4 <.L214>
    248c:	0006a703          	lw	x14,0(x13)
    2490:	00470313          	addi	x6,x14,4
    2494:	04f37063          	bgeu	x6,x15,24d4 <.L214>
    2498:	01162023          	sw	x17,0(x12)
    249c:	00052783          	lw	x15,0(x10)
    24a0:	00059883          	lh	x17,0(x11)
    24a4:	00259603          	lh	x12,2(x11)
    24a8:	00f82023          	sw	x15,0(x16)
    24ac:	01052023          	sw	x16,0(x10)
    24b0:	00e82223          	sw	x14,4(x16)
    24b4:	0006a783          	lw	x15,0(x13)
    24b8:	00080513          	mv	x10,x16
    24bc:	00478793          	addi	x15,x15,4
    24c0:	00f6a023          	sw	x15,0(x13)
    24c4:	00482783          	lw	x15,4(x16)
    24c8:	01179023          	sh	x17,0(x15)
    24cc:	00c79123          	sh	x12,2(x15)
    24d0:	00008067          	ret

000024d4 <.L214>:
    24d4:	00000813          	li	x16,0
    24d8:	00080513          	mv	x10,x16
    24dc:	00008067          	ret

000024e0 <core_list_remove>:
    24e0:	00050793          	mv	x15,x10
    24e4:	00052503          	lw	x10,0(x10)
    24e8:	0047a683          	lw	x13,4(x15)
    24ec:	00452603          	lw	x12,4(x10)
    24f0:	00052703          	lw	x14,0(x10)
    24f4:	00c7a223          	sw	x12,4(x15)
    24f8:	00d52223          	sw	x13,4(x10)
    24fc:	00e7a023          	sw	x14,0(x15)
    2500:	00052023          	sw	x0,0(x10)
    2504:	00008067          	ret

00002508 <core_list_undo_remove>:
    2508:	0045a603          	lw	x12,4(x11)
    250c:	00452683          	lw	x13,4(x10)
    2510:	0005a703          	lw	x14,0(x11)
    2514:	00c52223          	sw	x12,4(x10)
    2518:	00d5a223          	sw	x13,4(x11)
    251c:	00e52023          	sw	x14,0(x10)
    2520:	00a5a023          	sw	x10,0(x11)
    2524:	00008067          	ret

00002528 <core_list_find>:
    2528:	00259703          	lh	x14,2(x11)
    252c:	02074263          	bltz	x14,2550 <.L230>
    2530:	00051863          	bnez	x10,2540 <.L221>
    2534:	0480006f          	j	257c <.L231>

00002538 <.L222>:
    2538:	00052503          	lw	x10,0(x10)
    253c:	02050c63          	beqz	x10,2574 <.L225>

00002540 <.L221>:
    2540:	00452783          	lw	x15,4(x10)
    2544:	00279783          	lh	x15,2(x15)
    2548:	fee798e3          	bne	x15,x14,2538 <.L222>
    254c:	00008067          	ret

00002550 <.L230>:
    2550:	02050263          	beqz	x10,2574 <.L225>
    2554:	00059703          	lh	x14,0(x11)
    2558:	00c0006f          	j	2564 <.L220>

0000255c <.L223>:
    255c:	00052503          	lw	x10,0(x10)
    2560:	00050c63          	beqz	x10,2578 <.L217>

00002564 <.L220>:
    2564:	00452783          	lw	x15,4(x10)
    2568:	0007c783          	lbu	x15,0(x15)
    256c:	fee798e3          	bne	x15,x14,255c <.L223>
    2570:	00008067          	ret

00002574 <.L225>:
    2574:	00000513          	li	x10,0

00002578 <.L217>:
    2578:	00008067          	ret

0000257c <.L231>:
    257c:	00008067          	ret

00002580 <core_list_reverse>:
    2580:	02050063          	beqz	x10,25a0 <.L233>
    2584:	00000713          	li	x14,0
    2588:	0080006f          	j	2590 <.L234>

0000258c <.L235>:
    258c:	00078513          	mv	x10,x15

00002590 <.L234>:
    2590:	00052783          	lw	x15,0(x10)
    2594:	00e52023          	sw	x14,0(x10)
    2598:	00050713          	mv	x14,x10
    259c:	fe0798e3          	bnez	x15,258c <.L235>

000025a0 <.L233>:
    25a0:	00008067          	ret

000025a4 <core_list_mergesort>:
    25a4:	fd010113          	addi	x2,x2,-48
    25a8:	02912223          	sw	x9,36(x2)
    25ac:	01512a23          	sw	x21,20(x2)
    25b0:	01712623          	sw	x23,12(x2)
    25b4:	01912223          	sw	x25,4(x2)
    25b8:	01a12023          	sw	x26,0(x2)
    25bc:	02112623          	sw	x1,44(x2)
    25c0:	02812423          	sw	x8,40(x2)
    25c4:	03212023          	sw	x18,32(x2)
    25c8:	01312e23          	sw	x19,28(x2)
    25cc:	01412c23          	sw	x20,24(x2)
    25d0:	01612823          	sw	x22,16(x2)
    25d4:	01812423          	sw	x24,8(x2)
    25d8:	00050493          	mv	x9,x10
    25dc:	00058b93          	mv	x23,x11
    25e0:	00060d13          	mv	x26,x12
    25e4:	00100a93          	li	x21,1
    25e8:	00100c93          	li	x25,1

000025ec <.L256>:
    25ec:	0c048063          	beqz	x9,26ac <.L240>
    25f0:	00000c13          	li	x24,0
    25f4:	00000913          	li	x18,0
    25f8:	00000b13          	li	x22,0

000025fc <.L254>:
    25fc:	001c0c13          	addi	x24,x24,1
    2600:	00048793          	mv	x15,x9
    2604:	00000413          	li	x8,0

00002608 <.L243>:
    2608:	0007a783          	lw	x15,0(x15)
    260c:	00140413          	addi	x8,x8,1
    2610:	00078463          	beqz	x15,2618 <.L244>
    2614:	fe8a9ae3          	bne	x21,x8,2608 <.L243>

00002618 <.L244>:
    2618:	00048a13          	mv	x20,x9
    261c:	000a8993          	mv	x19,x21
    2620:	00078493          	mv	x9,x15
    2624:	02040e63          	beqz	x8,2660 <.L266>

00002628 <.L250>:
    2628:	04098e63          	beqz	x19,2684 <.L265>
    262c:	04048c63          	beqz	x9,2684 <.L265>
    2630:	0044a583          	lw	x11,4(x9)
    2634:	004a2503          	lw	x10,4(x20)
    2638:	000d0613          	mv	x12,x26
    263c:	000b80e7          	jalr	x23
    2640:	04a05263          	blez	x10,2684 <.L265>
    2644:	00048793          	mv	x15,x9
    2648:	0004a483          	lw	x9,0(x9)
    264c:	fff98993          	addi	x19,x19,-1

00002650 <.L245>:
    2650:	02090463          	beqz	x18,2678 <.L257>

00002654 <.L267>:
    2654:	00f92023          	sw	x15,0(x18)
    2658:	00078913          	mv	x18,x15

0000265c <.L268>:
    265c:	fc0416e3          	bnez	x8,2628 <.L250>

00002660 <.L266>:
    2660:	02098a63          	beqz	x19,2694 <.L251>
    2664:	02048a63          	beqz	x9,2698 <.L253>
    2668:	00048793          	mv	x15,x9
    266c:	fff98993          	addi	x19,x19,-1
    2670:	0004a483          	lw	x9,0(x9)
    2674:	fe0910e3          	bnez	x18,2654 <.L267>

00002678 <.L257>:
    2678:	00078b13          	mv	x22,x15
    267c:	00078913          	mv	x18,x15
    2680:	fddff06f          	j	265c <.L268>

00002684 <.L265>:
    2684:	000a0793          	mv	x15,x20
    2688:	fff40413          	addi	x8,x8,-1
    268c:	000a2a03          	lw	x20,0(x20)
    2690:	fc1ff06f          	j	2650 <.L245>

00002694 <.L251>:
    2694:	f60494e3          	bnez	x9,25fc <.L254>

00002698 <.L253>:
    2698:	00092023          	sw	x0,0(x18)
    269c:	019c0c63          	beq	x24,x25,26b4 <.L263>
    26a0:	001a9a93          	slli	x21,x21,0x1
    26a4:	000b0493          	mv	x9,x22
    26a8:	f45ff06f          	j	25ec <.L256>

000026ac <.L240>:
    26ac:	00002023          	sw	x0,0(x0) # 0 <_start>
    26b0:	00100073          	ebreak

000026b4 <.L263>:
    26b4:	02c12083          	lw	x1,44(x2)
    26b8:	02812403          	lw	x8,40(x2)
    26bc:	02412483          	lw	x9,36(x2)
    26c0:	02012903          	lw	x18,32(x2)
    26c4:	01c12983          	lw	x19,28(x2)
    26c8:	01812a03          	lw	x20,24(x2)
    26cc:	01412a83          	lw	x21,20(x2)
    26d0:	00c12b83          	lw	x23,12(x2)
    26d4:	00812c03          	lw	x24,8(x2)
    26d8:	00412c83          	lw	x25,4(x2)
    26dc:	00012d03          	lw	x26,0(x2)
    26e0:	000b0513          	mv	x10,x22
    26e4:	01012b03          	lw	x22,16(x2)
    26e8:	03010113          	addi	x2,x2,48
    26ec:	00008067          	ret

000026f0 <barebones_clock>:
    26f0:	00000513          	li	x10,0
    26f4:	00008067          	ret

000026f8 <start_time>:
    26f8:	000407b7          	lui	x15,0x40
    26fc:	6a07aa23          	sw	x0,1716(x15) # 406b4 <start_time_val>
    2700:	00008067          	ret

00002704 <stop_time>:
    2704:	000407b7          	lui	x15,0x40
    2708:	6a07a823          	sw	x0,1712(x15) # 406b0 <stop_time_val>
    270c:	00008067          	ret

00002710 <get_time>:
    2710:	000407b7          	lui	x15,0x40
    2714:	6b07a503          	lw	x10,1712(x15) # 406b0 <stop_time_val>
    2718:	000407b7          	lui	x15,0x40
    271c:	6b47a783          	lw	x15,1716(x15) # 406b4 <start_time_val>
    2720:	40f50533          	sub	x10,x10,x15
    2724:	00008067          	ret

00002728 <time_in_secs>:
    2728:	00000513          	li	x10,0
    272c:	00000593          	li	x11,0
    2730:	00008067          	ret

00002734 <portable_init>:
    2734:	00100793          	li	x15,1
    2738:	00f50023          	sb	x15,0(x10)
    273c:	00008067          	ret

00002740 <portable_fini>:
    2740:	00050023          	sb	x0,0(x10)
    2744:	00008067          	ret

00002748 <iterate>:
    2748:	ff010113          	addi	x2,x2,-16
    274c:	01212023          	sw	x18,0(x2)
    2750:	01c52903          	lw	x18,28(x10)
    2754:	00112623          	sw	x1,12(x2)
    2758:	00812423          	sw	x8,8(x2)
    275c:	00912223          	sw	x9,4(x2)
    2760:	02052c23          	sw	x0,56(x10)
    2764:	02052e23          	sw	x0,60(x10)
    2768:	04090463          	beqz	x18,27b0 <.L2>
    276c:	00050413          	mv	x8,x10
    2770:	00000493          	li	x9,0

00002774 <.L5>:
    2774:	00100593          	li	x11,1
    2778:	00040513          	mv	x10,x8
    277c:	dc0ff0ef          	jal	x1,1d3c <core_bench_list>
    2780:	03845583          	lhu	x11,56(x8)
    2784:	a4dfd0ef          	jal	x1,1d0 <crcu16>
    2788:	02a41c23          	sh	x10,56(x8)
    278c:	fff00593          	li	x11,-1
    2790:	00040513          	mv	x10,x8
    2794:	da8ff0ef          	jal	x1,1d3c <core_bench_list>
    2798:	03845583          	lhu	x11,56(x8)
    279c:	a35fd0ef          	jal	x1,1d0 <crcu16>
    27a0:	02a41c23          	sh	x10,56(x8)
    27a4:	02048463          	beqz	x9,27cc <.L12>
    27a8:	00148493          	addi	x9,x9,1
    27ac:	fc9914e3          	bne	x18,x9,2774 <.L5>

000027b0 <.L2>:
    27b0:	00c12083          	lw	x1,12(x2)
    27b4:	00812403          	lw	x8,8(x2)
    27b8:	00412483          	lw	x9,4(x2)
    27bc:	00012903          	lw	x18,0(x2)
    27c0:	00000513          	li	x10,0
    27c4:	01010113          	addi	x2,x2,16
    27c8:	00008067          	ret

000027cc <.L12>:
    27cc:	02a41d23          	sh	x10,58(x8)
    27d0:	00100793          	li	x15,1
    27d4:	fcf90ee3          	beq	x18,x15,27b0 <.L2>
    27d8:	00100493          	li	x9,1
    27dc:	f99ff06f          	j	2774 <.L5>

000027e0 <matrix_test>:
    27e0:	f9010113          	addi	x2,x2,-112
    27e4:	07212023          	sw	x18,96(x2)
    27e8:	06112623          	sw	x1,108(x2)
    27ec:	fffff937          	lui	x18,0xfffff
    27f0:	06812423          	sw	x8,104(x2)
    27f4:	06912223          	sw	x9,100(x2)
    27f8:	05312e23          	sw	x19,92(x2)
    27fc:	05412c23          	sw	x20,88(x2)
    2800:	05512a23          	sw	x21,84(x2)
    2804:	05612823          	sw	x22,80(x2)
    2808:	05712623          	sw	x23,76(x2)
    280c:	05812423          	sw	x24,72(x2)
    2810:	05912223          	sw	x25,68(x2)
    2814:	05a12023          	sw	x26,64(x2)
    2818:	03b12e23          	sw	x27,60(x2)
    281c:	00b12623          	sw	x11,12(x2)
    2820:	00c12823          	sw	x12,16(x2)
    2824:	00d12a23          	sw	x13,20(x2)
    2828:	01276933          	or	x18,x14,x18
    282c:	56050863          	beqz	x10,2d9c <.L2>
    2830:	40a00ab3          	neg	x21,x10
    2834:	00151493          	slli	x9,x10,0x1
    2838:	001a9793          	slli	x15,x21,0x1
    283c:	009609b3          	add	x19,x12,x9
    2840:	01071b13          	slli	x22,x14,0x10
    2844:	00070d13          	mv	x26,x14
    2848:	00050813          	mv	x16,x10
    284c:	010b5b13          	srli	x22,x22,0x10
    2850:	00f12c23          	sw	x15,24(x2)
    2854:	00098693          	mv	x13,x19
    2858:	00000a13          	li	x20,0
    285c:	002a9a93          	slli	x21,x21,0x2

00002860 <.L3>:
    2860:	01812783          	lw	x15,24(x2)
    2864:	00f68633          	add	x12,x13,x15
    2868:	00060793          	mv	x15,x12

0000286c <.L4>:
    286c:	0007d703          	lhu	x14,0(x15)
    2870:	00278793          	addi	x15,x15,2
    2874:	00eb0733          	add	x14,x22,x14
    2878:	fee79f23          	sh	x14,-2(x15)
    287c:	fed798e3          	bne	x15,x13,286c <.L4>
    2880:	001a0413          	addi	x8,x20,1
    2884:	415606b3          	sub	x13,x12,x21
    2888:	00880663          	beq	x16,x8,2894 <.L5>
    288c:	00040a13          	mv	x20,x8
    2890:	fd1ff06f          	j	2860 <.L3>

00002894 <.L5>:
    2894:	00000c93          	li	x25,0
    2898:	00000d93          	li	x27,0

0000289c <.L7>:
    289c:	01812783          	lw	x15,24(x2)
    28a0:	002c9713          	slli	x14,x25,0x2
    28a4:	01378bb3          	add	x23,x15,x19
    28a8:	00c12783          	lw	x15,12(x2)
    28ac:	01712e23          	sw	x23,28(x2)
    28b0:	00f70c33          	add	x24,x14,x15

000028b4 <.L6>:
    28b4:	000b9503          	lh	x10,0(x23)
    28b8:	000d0593          	mv	x11,x26
    28bc:	002b8b93          	addi	x23,x23,2
    28c0:	798010ef          	jal	x1,4058 <__mulsi3>
    28c4:	00ac2023          	sw	x10,0(x24)
    28c8:	004c0c13          	addi	x24,x24,4
    28cc:	ff3b94e3          	bne	x23,x19,28b4 <.L6>
    28d0:	01c12703          	lw	x14,28(x2)
    28d4:	001d8793          	addi	x15,x27,1
    28d8:	008c8cb3          	add	x25,x25,x8
    28dc:	415709b3          	sub	x19,x14,x21
    28e0:	014d8663          	beq	x27,x20,28ec <.L69>
    28e4:	00078d93          	mv	x27,x15
    28e8:	fb5ff06f          	j	289c <.L7>

000028ec <.L69>:
    28ec:	00c12703          	lw	x14,12(x2)
    28f0:	00241793          	slli	x15,x8,0x2
    28f4:	40800e33          	neg	x28,x8
    28f8:	00f70cb3          	add	x25,x14,x15
    28fc:	02f12023          	sw	x15,32(x2)
    2900:	000c8813          	mv	x16,x25
    2904:	00000513          	li	x10,0
    2908:	00000713          	li	x14,0
    290c:	00000613          	li	x12,0
    2910:	00000893          	li	x17,0
    2914:	003e1e13          	slli	x28,x28,0x3

00002918 <.L8>:
    2918:	01580333          	add	x6,x16,x21
    291c:	00030793          	mv	x15,x6
    2920:	0140006f          	j	2934 <.L11>

00002924 <.L71>:
    2924:	01051513          	slli	x10,x10,0x10
    2928:	00478793          	addi	x15,x15,4
    292c:	41055513          	srai	x10,x10,0x10
    2930:	03078e63          	beq	x15,x16,296c <.L70>

00002934 <.L11>:
    2934:	00070693          	mv	x13,x14
    2938:	0007a703          	lw	x14,0(x15)
    293c:	01051513          	slli	x10,x10,0x10
    2940:	01055513          	srli	x10,x10,0x10
    2944:	00e6a6b3          	slt	x13,x13,x14
    2948:	00e60633          	add	x12,x12,x14
    294c:	00a50593          	addi	x11,x10,10
    2950:	00d50533          	add	x10,x10,x13
    2954:	fcc958e3          	bge	x18,x12,2924 <.L71>
    2958:	01059513          	slli	x10,x11,0x10
    295c:	00478793          	addi	x15,x15,4
    2960:	41055513          	srai	x10,x10,0x10
    2964:	00000613          	li	x12,0
    2968:	fd0796e3          	bne	x15,x16,2934 <.L11>

0000296c <.L70>:
    296c:	00188793          	addi	x15,x17,1
    2970:	41c30833          	sub	x16,x6,x28
    2974:	011a0663          	beq	x20,x17,2980 <.L72>
    2978:	00078893          	mv	x17,x15
    297c:	f9dff06f          	j	2918 <.L8>

00002980 <.L72>:
    2980:	00000593          	li	x11,0
    2984:	fedfd0ef          	jal	x1,970 <crc16>
    2988:	00c12a03          	lw	x20,12(x2)
    298c:	01412783          	lw	x15,20(x2)
    2990:	02012603          	lw	x12,32(x2)
    2994:	00050d13          	mv	x26,x10
    2998:	00000593          	li	x11,0
    299c:	000a0513          	mv	x10,x20
    29a0:	009789b3          	add	x19,x15,x9
    29a4:	00000a93          	li	x21,0
    29a8:	331000ef          	jal	x1,34d8 <memset>

000029ac <.L14>:
    29ac:	01012703          	lw	x14,16(x2)
    29b0:	01412d83          	lw	x27,20(x2)
    29b4:	001a9793          	slli	x15,x21,0x1
    29b8:	00f70c33          	add	x24,x14,x15
    29bc:	00000b93          	li	x23,0

000029c0 <.L13>:
    29c0:	000d9583          	lh	x11,0(x27)
    29c4:	000c1503          	lh	x10,0(x24)
    29c8:	002d8d93          	addi	x27,x27,2
    29cc:	002c0c13          	addi	x24,x24,2
    29d0:	688010ef          	jal	x1,4058 <__mulsi3>
    29d4:	00ab8bb3          	add	x23,x23,x10
    29d8:	ff3d94e3          	bne	x27,x19,29c0 <.L13>
    29dc:	017a2023          	sw	x23,0(x20)
    29e0:	004a0a13          	addi	x20,x20,4
    29e4:	008a8ab3          	add	x21,x21,x8
    29e8:	fd9a12e3          	bne	x20,x25,29ac <.L14>
    29ec:	00000313          	li	x6,0
    29f0:	00000513          	li	x10,0
    29f4:	00000793          	li	x15,0
    29f8:	00000693          	li	x13,0
    29fc:	00000893          	li	x17,0

00002a00 <.L18>:
    2a00:	00c12703          	lw	x14,12(x2)
    2a04:	00231613          	slli	x12,x6,0x2
    2a08:	00000593          	li	x11,0
    2a0c:	00c70633          	add	x12,x14,x12
    2a10:	0180006f          	j	2a28 <.L17>

00002a14 <.L74>:
    2a14:	01051513          	slli	x10,x10,0x10
    2a18:	00158593          	addi	x11,x11,1
    2a1c:	41055513          	srai	x10,x10,0x10
    2a20:	00460613          	addi	x12,x12,4
    2a24:	0485f063          	bgeu	x11,x8,2a64 <.L73>

00002a28 <.L17>:
    2a28:	00078713          	mv	x14,x15
    2a2c:	00062783          	lw	x15,0(x12)
    2a30:	01051513          	slli	x10,x10,0x10
    2a34:	01055513          	srli	x10,x10,0x10
    2a38:	00f72733          	slt	x14,x14,x15
    2a3c:	00f686b3          	add	x13,x13,x15
    2a40:	00a50813          	addi	x16,x10,10
    2a44:	00e50533          	add	x10,x10,x14
    2a48:	fcd956e3          	bge	x18,x13,2a14 <.L74>
    2a4c:	01081513          	slli	x10,x16,0x10
    2a50:	00158593          	addi	x11,x11,1
    2a54:	41055513          	srai	x10,x10,0x10
    2a58:	00000693          	li	x13,0
    2a5c:	00460613          	addi	x12,x12,4
    2a60:	fc85e4e3          	bltu	x11,x8,2a28 <.L17>

00002a64 <.L73>:
    2a64:	00188893          	addi	x17,x17,1
    2a68:	00830333          	add	x6,x6,x8
    2a6c:	f888eae3          	bltu	x17,x8,2a00 <.L18>
    2a70:	000d0593          	mv	x11,x26
    2a74:	efdfd0ef          	jal	x1,970 <crc16>
    2a78:	00400793          	li	x15,4
    2a7c:	02a12623          	sw	x10,44(x2)
    2a80:	02f12223          	sw	x15,36(x2)
    2a84:	30041663          	bnez	x8,2d90 <.L75>

00002a88 <.L39>:
    2a88:	00c12783          	lw	x15,12(x2)
    2a8c:	00012e23          	sw	x0,28(x2)
    2a90:	02012423          	sw	x0,40(x2)
    2a94:	00f12c23          	sw	x15,24(x2)

00002a98 <.L40>:
    2a98:	01812a03          	lw	x20,24(x2)
    2a9c:	02412603          	lw	x12,36(x2)
    2aa0:	00000593          	li	x11,0
    2aa4:	000a0513          	mv	x10,x20
    2aa8:	231000ef          	jal	x1,34d8 <memset>
    2aac:	01c12783          	lw	x15,28(x2)
    2ab0:	01412a83          	lw	x21,20(x2)
    2ab4:	00000993          	li	x19,0
    2ab8:	00179d13          	slli	x26,x15,0x1
    2abc:	01012783          	lw	x15,16(x2)
    2ac0:	01a78d33          	add	x26,x15,x26

00002ac4 <.L21>:
    2ac4:	000a8d93          	mv	x27,x21
    2ac8:	000d0c93          	mv	x25,x26
    2acc:	00000b93          	li	x23,0
    2ad0:	00000c13          	li	x24,0

00002ad4 <.L20>:
    2ad4:	000d9583          	lh	x11,0(x27)
    2ad8:	000c9503          	lh	x10,0(x25)
    2adc:	001c0c13          	addi	x24,x24,1
    2ae0:	002c8c93          	addi	x25,x25,2
    2ae4:	574010ef          	jal	x1,4058 <__mulsi3>
    2ae8:	00ab8bb3          	add	x23,x23,x10
    2aec:	009d8db3          	add	x27,x27,x9
    2af0:	fe8c62e3          	bltu	x24,x8,2ad4 <.L20>
    2af4:	017a2023          	sw	x23,0(x20)
    2af8:	00198993          	addi	x19,x19,1
    2afc:	004a0a13          	addi	x20,x20,4
    2b00:	002a8a93          	addi	x21,x21,2
    2b04:	fc89e0e3          	bltu	x19,x8,2ac4 <.L21>
    2b08:	01812703          	lw	x14,24(x2)
    2b0c:	02012683          	lw	x13,32(x2)
    2b10:	02812783          	lw	x15,40(x2)
    2b14:	00d70733          	add	x14,x14,x13
    2b18:	00e12c23          	sw	x14,24(x2)
    2b1c:	01c12703          	lw	x14,28(x2)
    2b20:	00178793          	addi	x15,x15,1
    2b24:	02f12423          	sw	x15,40(x2)
    2b28:	00870733          	add	x14,x14,x8
    2b2c:	00e12e23          	sw	x14,28(x2)
    2b30:	f687e4e3          	bltu	x15,x8,2a98 <.L40>
    2b34:	00000313          	li	x6,0
    2b38:	00000513          	li	x10,0
    2b3c:	00000793          	li	x15,0
    2b40:	00000693          	li	x13,0
    2b44:	00000893          	li	x17,0

00002b48 <.L22>:
    2b48:	00c12703          	lw	x14,12(x2)
    2b4c:	00231613          	slli	x12,x6,0x2
    2b50:	00000593          	li	x11,0
    2b54:	00c70633          	add	x12,x14,x12
    2b58:	0180006f          	j	2b70 <.L25>

00002b5c <.L77>:
    2b5c:	01051513          	slli	x10,x10,0x10
    2b60:	00158593          	addi	x11,x11,1
    2b64:	41055513          	srai	x10,x10,0x10
    2b68:	00460613          	addi	x12,x12,4
    2b6c:	0485f063          	bgeu	x11,x8,2bac <.L76>

00002b70 <.L25>:
    2b70:	00078713          	mv	x14,x15
    2b74:	00062783          	lw	x15,0(x12)
    2b78:	01051513          	slli	x10,x10,0x10
    2b7c:	01055513          	srli	x10,x10,0x10
    2b80:	00f72733          	slt	x14,x14,x15
    2b84:	00f686b3          	add	x13,x13,x15
    2b88:	00a50813          	addi	x16,x10,10
    2b8c:	00e50533          	add	x10,x10,x14
    2b90:	fcd956e3          	bge	x18,x13,2b5c <.L77>
    2b94:	01081513          	slli	x10,x16,0x10
    2b98:	00158593          	addi	x11,x11,1
    2b9c:	41055513          	srai	x10,x10,0x10
    2ba0:	00000693          	li	x13,0
    2ba4:	00460613          	addi	x12,x12,4
    2ba8:	fc85e4e3          	bltu	x11,x8,2b70 <.L25>

00002bac <.L76>:
    2bac:	00188893          	addi	x17,x17,1
    2bb0:	00830333          	add	x6,x6,x8
    2bb4:	f888eae3          	bltu	x17,x8,2b48 <.L22>
    2bb8:	02c12583          	lw	x11,44(x2)
    2bbc:	db5fd0ef          	jal	x1,970 <crc16>
    2bc0:	00c12783          	lw	x15,12(x2)
    2bc4:	02a12623          	sw	x10,44(x2)
    2bc8:	00012e23          	sw	x0,28(x2)
    2bcc:	00f12c23          	sw	x15,24(x2)
    2bd0:	02012423          	sw	x0,40(x2)

00002bd4 <.L37>:
    2bd4:	01812a03          	lw	x20,24(x2)
    2bd8:	02412603          	lw	x12,36(x2)
    2bdc:	00000593          	li	x11,0
    2be0:	000a0513          	mv	x10,x20
    2be4:	0f5000ef          	jal	x1,34d8 <memset>
    2be8:	01c12783          	lw	x15,28(x2)
    2bec:	01412a83          	lw	x21,20(x2)
    2bf0:	00000993          	li	x19,0
    2bf4:	00179d13          	slli	x26,x15,0x1
    2bf8:	01012783          	lw	x15,16(x2)
    2bfc:	01a78d33          	add	x26,x15,x26

00002c00 <.L28>:
    2c00:	000a8d93          	mv	x27,x21
    2c04:	000d0b93          	mv	x23,x26
    2c08:	00000c93          	li	x25,0
    2c0c:	00000c13          	li	x24,0

00002c10 <.L27>:
    2c10:	000d9583          	lh	x11,0(x27)
    2c14:	000b9503          	lh	x10,0(x23)
    2c18:	001c0c13          	addi	x24,x24,1
    2c1c:	002b8b93          	addi	x23,x23,2
    2c20:	438010ef          	jal	x1,4058 <__mulsi3>
    2c24:	40255813          	srai	x16,x10,0x2
    2c28:	40555593          	srai	x11,x10,0x5
    2c2c:	07f5f593          	andi	x11,x11,127
    2c30:	00f87513          	andi	x10,x16,15
    2c34:	424010ef          	jal	x1,4058 <__mulsi3>
    2c38:	00ac8cb3          	add	x25,x25,x10
    2c3c:	009d8db3          	add	x27,x27,x9
    2c40:	fc8c68e3          	bltu	x24,x8,2c10 <.L27>
    2c44:	019a2023          	sw	x25,0(x20)
    2c48:	00198993          	addi	x19,x19,1
    2c4c:	004a0a13          	addi	x20,x20,4
    2c50:	002a8a93          	addi	x21,x21,2
    2c54:	fa89e6e3          	bltu	x19,x8,2c00 <.L28>
    2c58:	01812703          	lw	x14,24(x2)
    2c5c:	02012683          	lw	x13,32(x2)
    2c60:	02812783          	lw	x15,40(x2)
    2c64:	00d70733          	add	x14,x14,x13
    2c68:	00e12c23          	sw	x14,24(x2)
    2c6c:	01c12703          	lw	x14,28(x2)
    2c70:	00178793          	addi	x15,x15,1
    2c74:	02f12423          	sw	x15,40(x2)
    2c78:	00870733          	add	x14,x14,x8
    2c7c:	00e12e23          	sw	x14,28(x2)
    2c80:	f487eae3          	bltu	x15,x8,2bd4 <.L37>
    2c84:	00000313          	li	x6,0
    2c88:	00000513          	li	x10,0
    2c8c:	00000793          	li	x15,0
    2c90:	00000693          	li	x13,0
    2c94:	00000893          	li	x17,0

00002c98 <.L29>:
    2c98:	00c12703          	lw	x14,12(x2)
    2c9c:	00231613          	slli	x12,x6,0x2
    2ca0:	00000593          	li	x11,0
    2ca4:	00c70633          	add	x12,x14,x12
    2ca8:	0180006f          	j	2cc0 <.L32>

00002cac <.L79>:
    2cac:	01051513          	slli	x10,x10,0x10
    2cb0:	00158593          	addi	x11,x11,1
    2cb4:	41055513          	srai	x10,x10,0x10
    2cb8:	00460613          	addi	x12,x12,4
    2cbc:	0485f063          	bgeu	x11,x8,2cfc <.L78>

00002cc0 <.L32>:
    2cc0:	00078713          	mv	x14,x15
    2cc4:	00062783          	lw	x15,0(x12)
    2cc8:	01051513          	slli	x10,x10,0x10
    2ccc:	01055513          	srli	x10,x10,0x10
    2cd0:	00f72733          	slt	x14,x14,x15
    2cd4:	00f686b3          	add	x13,x13,x15
    2cd8:	00a50813          	addi	x16,x10,10
    2cdc:	00e50533          	add	x10,x10,x14
    2ce0:	fcd956e3          	bge	x18,x13,2cac <.L79>
    2ce4:	01081513          	slli	x10,x16,0x10
    2ce8:	00158593          	addi	x11,x11,1
    2cec:	41055513          	srai	x10,x10,0x10
    2cf0:	00000693          	li	x13,0
    2cf4:	00460613          	addi	x12,x12,4
    2cf8:	fc85e4e3          	bltu	x11,x8,2cc0 <.L32>

00002cfc <.L78>:
    2cfc:	00188893          	addi	x17,x17,1
    2d00:	00830333          	add	x6,x6,x8
    2d04:	f888eae3          	bltu	x17,x8,2c98 <.L29>
    2d08:	02c12583          	lw	x11,44(x2)
    2d0c:	c65fd0ef          	jal	x1,970 <crc16>
    2d10:	00000593          	li	x11,0
    2d14:	00000613          	li	x12,0

00002d18 <.L36>:
    2d18:	01012703          	lw	x14,16(x2)
    2d1c:	00159793          	slli	x15,x11,0x1
    2d20:	00000693          	li	x13,0
    2d24:	00f707b3          	add	x15,x14,x15

00002d28 <.L34>:
    2d28:	0007d703          	lhu	x14,0(x15)
    2d2c:	00278793          	addi	x15,x15,2
    2d30:	00168693          	addi	x13,x13,1
    2d34:	41670733          	sub	x14,x14,x22
    2d38:	fee79f23          	sh	x14,-2(x15)
    2d3c:	fe86e6e3          	bltu	x13,x8,2d28 <.L34>
    2d40:	00160613          	addi	x12,x12,1
    2d44:	008585b3          	add	x11,x11,x8
    2d48:	fc8668e3          	bltu	x12,x8,2d18 <.L36>

00002d4c <.L35>:
    2d4c:	06c12083          	lw	x1,108(x2)
    2d50:	06812403          	lw	x8,104(x2)
    2d54:	01051513          	slli	x10,x10,0x10
    2d58:	06412483          	lw	x9,100(x2)
    2d5c:	06012903          	lw	x18,96(x2)
    2d60:	05c12983          	lw	x19,92(x2)
    2d64:	05812a03          	lw	x20,88(x2)
    2d68:	05412a83          	lw	x21,84(x2)
    2d6c:	05012b03          	lw	x22,80(x2)
    2d70:	04c12b83          	lw	x23,76(x2)
    2d74:	04812c03          	lw	x24,72(x2)
    2d78:	04412c83          	lw	x25,68(x2)
    2d7c:	04012d03          	lw	x26,64(x2)
    2d80:	03c12d83          	lw	x27,60(x2)
    2d84:	41055513          	srai	x10,x10,0x10
    2d88:	07010113          	addi	x2,x2,112
    2d8c:	00008067          	ret

00002d90 <.L75>:
    2d90:	02012783          	lw	x15,32(x2)
    2d94:	02f12223          	sw	x15,36(x2)
    2d98:	cf1ff06f          	j	2a88 <.L39>

00002d9c <.L2>:
    2d9c:	00000593          	li	x11,0
    2da0:	bd1fd0ef          	jal	x1,970 <crc16>
    2da4:	00050593          	mv	x11,x10
    2da8:	00000513          	li	x10,0
    2dac:	bc5fd0ef          	jal	x1,970 <crc16>
    2db0:	00050593          	mv	x11,x10
    2db4:	00000513          	li	x10,0
    2db8:	bb9fd0ef          	jal	x1,970 <crc16>
    2dbc:	00050593          	mv	x11,x10
    2dc0:	00000513          	li	x10,0
    2dc4:	badfd0ef          	jal	x1,970 <crc16>
    2dc8:	f85ff06f          	j	2d4c <.L35>

00002dcc <core_bench_matrix>:
    2dcc:	ff010113          	addi	x2,x2,-16
    2dd0:	00812423          	sw	x8,8(x2)
    2dd4:	00852683          	lw	x13,8(x10)
    2dd8:	00060413          	mv	x8,x12
    2ddc:	00058713          	mv	x14,x11
    2de0:	00452603          	lw	x12,4(x10)
    2de4:	00c52583          	lw	x11,12(x10)
    2de8:	00052503          	lw	x10,0(x10)
    2dec:	00112623          	sw	x1,12(x2)
    2df0:	9f1ff0ef          	jal	x1,27e0 <matrix_test>
    2df4:	00040593          	mv	x11,x8
    2df8:	00812403          	lw	x8,8(x2)
    2dfc:	00c12083          	lw	x1,12(x2)
    2e00:	01010113          	addi	x2,x2,16
    2e04:	b6dfd06f          	j	970 <crc16>

00002e08 <core_init_matrix>:
    2e08:	fb010113          	addi	x2,x2,-80
    2e0c:	05212023          	sw	x18,64(x2)
    2e10:	01b12e23          	sw	x27,28(x2)
    2e14:	04112623          	sw	x1,76(x2)
    2e18:	04812423          	sw	x8,72(x2)
    2e1c:	04912223          	sw	x9,68(x2)
    2e20:	03312e23          	sw	x19,60(x2)
    2e24:	03412c23          	sw	x20,56(x2)
    2e28:	03512a23          	sw	x21,52(x2)
    2e2c:	03612823          	sw	x22,48(x2)
    2e30:	03712623          	sw	x23,44(x2)
    2e34:	03812423          	sw	x24,40(x2)
    2e38:	03912223          	sw	x25,36(x2)
    2e3c:	03a12023          	sw	x26,32(x2)
    2e40:	00d12623          	sw	x13,12(x2)
    2e44:	00050913          	mv	x18,x10
    2e48:	00100d93          	li	x27,1
    2e4c:	00060463          	beqz	x12,2e54 <.L83>
    2e50:	00060d93          	mv	x27,x12

00002e54 <.L83>:
    2e54:	fff58593          	addi	x11,x11,-1
    2e58:	ffc5fb13          	andi	x22,x11,-4
    2e5c:	004b0793          	addi	x15,x22,4
    2e60:	00f12023          	sw	x15,0(x2)
    2e64:	00000493          	li	x9,0
    2e68:	14090e63          	beqz	x18,2fc4 <.L104>

00002e6c <.L84>:
    2e6c:	00048413          	mv	x8,x9
    2e70:	00148493          	addi	x9,x9,1
    2e74:	00048593          	mv	x11,x9
    2e78:	00048513          	mv	x10,x9
    2e7c:	1dc010ef          	jal	x1,4058 <__mulsi3>
    2e80:	00351513          	slli	x10,x10,0x3
    2e84:	ff2564e3          	bltu	x10,x18,2e6c <.L84>
    2e88:	00040593          	mv	x11,x8
    2e8c:	00040513          	mv	x10,x8
    2e90:	1c8010ef          	jal	x1,4058 <__mulsi3>
    2e94:	00012703          	lw	x14,0(x2)
    2e98:	00151793          	slli	x15,x10,0x1
    2e9c:	00f12223          	sw	x15,4(x2)
    2ea0:	00812423          	sw	x8,8(x2)
    2ea4:	00f70b33          	add	x22,x14,x15
    2ea8:	0a040663          	beqz	x8,2f54 <.L88>

00002eac <.L87>:
    2eac:	00012783          	lw	x15,0(x2)
    2eb0:	000104b7          	lui	x9,0x10
    2eb4:	00000a93          	li	x21,0
    2eb8:	00000a13          	li	x20,0
    2ebc:	00100993          	li	x19,1
    2ec0:	41678933          	sub	x18,x15,x22
    2ec4:	fff48493          	addi	x9,x9,-1 # ffff <.L119+0xb35b>
    2ec8:	fff40c93          	addi	x25,x8,-1

00002ecc <.L92>:
    2ecc:	001a9693          	slli	x13,x21,0x1
    2ed0:	01668c33          	add	x24,x13,x22
    2ed4:	00098d13          	mv	x26,x19
    2ed8:	00000b93          	li	x23,0

00002edc <.L89>:
    2edc:	000d0593          	mv	x11,x26
    2ee0:	000d8513          	mv	x10,x27
    2ee4:	174010ef          	jal	x1,4058 <__mulsi3>
    2ee8:	41f55613          	srai	x12,x10,0x1f
    2eec:	01065713          	srli	x14,x12,0x10
    2ef0:	00e50633          	add	x12,x10,x14
    2ef4:	010d1793          	slli	x15,x26,0x10
    2ef8:	00967633          	and	x12,x12,x9
    2efc:	0107d793          	srli	x15,x15,0x10
    2f00:	40e60db3          	sub	x27,x12,x14
    2f04:	01b78733          	add	x14,x15,x27
    2f08:	01071713          	slli	x14,x14,0x10
    2f0c:	01075713          	srli	x14,x14,0x10
    2f10:	00f707b3          	add	x15,x14,x15
    2f14:	00ec1023          	sh	x14,0(x24)
    2f18:	0ff7f793          	andi	x15,x15,255
    2f1c:	01890733          	add	x14,x18,x24
    2f20:	00f71023          	sh	x15,0(x14)
    2f24:	001b8b93          	addi	x23,x23,1
    2f28:	001d0d13          	addi	x26,x26,1 # 18001 <.L119+0x1335d>
    2f2c:	002c0c13          	addi	x24,x24,2
    2f30:	fa8be6e3          	bltu	x23,x8,2edc <.L89>
    2f34:	00198993          	addi	x19,x19,1
    2f38:	00000793          	li	x15,0
    2f3c:	00040463          	beqz	x8,2f44 <.L91>
    2f40:	000c8793          	mv	x15,x25

00002f44 <.L91>:
    2f44:	001a0a13          	addi	x20,x20,1
    2f48:	013789b3          	add	x19,x15,x19
    2f4c:	008a8ab3          	add	x21,x21,x8
    2f50:	f68a6ee3          	bltu	x20,x8,2ecc <.L92>

00002f54 <.L88>:
    2f54:	00412783          	lw	x15,4(x2)
    2f58:	00c12703          	lw	x14,12(x2)
    2f5c:	00012683          	lw	x13,0(x2)
    2f60:	00fb07b3          	add	x15,x22,x15
    2f64:	fff78793          	addi	x15,x15,-1
    2f68:	ffc7f793          	andi	x15,x15,-4
    2f6c:	00478793          	addi	x15,x15,4
    2f70:	00f72623          	sw	x15,12(x14)
    2f74:	00812783          	lw	x15,8(x2)
    2f78:	04c12083          	lw	x1,76(x2)
    2f7c:	00040513          	mv	x10,x8
    2f80:	04812403          	lw	x8,72(x2)
    2f84:	01672423          	sw	x22,8(x14)
    2f88:	00d72223          	sw	x13,4(x14)
    2f8c:	00f72023          	sw	x15,0(x14)
    2f90:	04412483          	lw	x9,68(x2)
    2f94:	04012903          	lw	x18,64(x2)
    2f98:	03c12983          	lw	x19,60(x2)
    2f9c:	03812a03          	lw	x20,56(x2)
    2fa0:	03412a83          	lw	x21,52(x2)
    2fa4:	03012b03          	lw	x22,48(x2)
    2fa8:	02c12b83          	lw	x23,44(x2)
    2fac:	02812c03          	lw	x24,40(x2)
    2fb0:	02412c83          	lw	x25,36(x2)
    2fb4:	02012d03          	lw	x26,32(x2)
    2fb8:	01c12d83          	lw	x27,28(x2)
    2fbc:	05010113          	addi	x2,x2,80
    2fc0:	00008067          	ret

00002fc4 <.L104>:
    2fc4:	fff00793          	li	x15,-1
    2fc8:	00f12423          	sw	x15,8(x2)
    2fcc:	00200793          	li	x15,2
    2fd0:	006b0b13          	addi	x22,x22,6
    2fd4:	fff00413          	li	x8,-1
    2fd8:	00f12223          	sw	x15,4(x2)
    2fdc:	ed1ff06f          	j	2eac <.L87>

00002fe0 <matrix_sum>:
    2fe0:	00050e93          	mv	x29,x10
    2fe4:	08050663          	beqz	x10,3070 <.L111>
    2fe8:	40a00f33          	neg	x30,x10
    2fec:	00251893          	slli	x17,x10,0x2
    2ff0:	011588b3          	add	x17,x11,x17
    2ff4:	002f1f93          	slli	x31,x30,0x2
    2ff8:	00000313          	li	x6,0
    2ffc:	00000513          	li	x10,0
    3000:	00000713          	li	x14,0
    3004:	00000593          	li	x11,0
    3008:	003f1f13          	slli	x30,x30,0x3

0000300c <.L110>:
    300c:	011f8e33          	add	x28,x31,x17
    3010:	000e0793          	mv	x15,x28
    3014:	0140006f          	j	3028 <.L109>

00003018 <.L115>:
    3018:	01051513          	slli	x10,x10,0x10
    301c:	00478793          	addi	x15,x15,4
    3020:	41055513          	srai	x10,x10,0x10
    3024:	02f88e63          	beq	x17,x15,3060 <.L114>

00003028 <.L109>:
    3028:	00070693          	mv	x13,x14
    302c:	0007a703          	lw	x14,0(x15)
    3030:	01051513          	slli	x10,x10,0x10
    3034:	01055513          	srli	x10,x10,0x10
    3038:	00e6a6b3          	slt	x13,x13,x14
    303c:	00e585b3          	add	x11,x11,x14
    3040:	00a50813          	addi	x16,x10,10
    3044:	00d50533          	add	x10,x10,x13
    3048:	fcb658e3          	bge	x12,x11,3018 <.L115>
    304c:	01081513          	slli	x10,x16,0x10
    3050:	00478793          	addi	x15,x15,4
    3054:	41055513          	srai	x10,x10,0x10
    3058:	00000593          	li	x11,0
    305c:	fcf896e3          	bne	x17,x15,3028 <.L109>

00003060 <.L114>:
    3060:	00130313          	addi	x6,x6,1
    3064:	41ee08b3          	sub	x17,x28,x30
    3068:	fa6e92e3          	bne	x29,x6,300c <.L110>
    306c:	00008067          	ret

00003070 <.L111>:
    3070:	00000513          	li	x10,0
    3074:	00008067          	ret

00003078 <matrix_mul_const>:
    3078:	0c050a63          	beqz	x10,314c <.L125>
    307c:	fd010113          	addi	x2,x2,-48
    3080:	03212023          	sw	x18,32(x2)
    3084:	01712623          	sw	x23,12(x2)
    3088:	00151913          	slli	x18,x10,0x1
    308c:	40a00bb3          	neg	x23,x10
    3090:	01312e23          	sw	x19,28(x2)
    3094:	01412c23          	sw	x20,24(x2)
    3098:	01612823          	sw	x22,16(x2)
    309c:	01812423          	sw	x24,8(x2)
    30a0:	01912223          	sw	x25,4(x2)
    30a4:	01a12023          	sw	x26,0(x2)
    30a8:	001b9c93          	slli	x25,x23,0x1
    30ac:	02112623          	sw	x1,44(x2)
    30b0:	02812423          	sw	x8,40(x2)
    30b4:	02912223          	sw	x9,36(x2)
    30b8:	01512a23          	sw	x21,20(x2)
    30bc:	00050b13          	mv	x22,x10
    30c0:	00058c13          	mv	x24,x11
    30c4:	00068d13          	mv	x26,x13
    30c8:	01260933          	add	x18,x12,x18
    30cc:	00000a13          	li	x20,0
    30d0:	00000993          	li	x19,0
    30d4:	002b9b93          	slli	x23,x23,0x2

000030d8 <.L118>:
    30d8:	012c8ab3          	add	x21,x25,x18
    30dc:	002a1493          	slli	x9,x20,0x2
    30e0:	009c04b3          	add	x9,x24,x9
    30e4:	000a8413          	mv	x8,x21

000030e8 <.L119>:
    30e8:	00041503          	lh	x10,0(x8)
    30ec:	000d0593          	mv	x11,x26
    30f0:	00240413          	addi	x8,x8,2
    30f4:	765000ef          	jal	x1,4058 <__mulsi3>
    30f8:	00a4a023          	sw	x10,0(x9)
    30fc:	00448493          	addi	x9,x9,4
    3100:	fe8914e3          	bne	x18,x8,30e8 <.L119>
    3104:	00198993          	addi	x19,x19,1
    3108:	016a0a33          	add	x20,x20,x22
    310c:	417a8933          	sub	x18,x21,x23
    3110:	fd3b14e3          	bne	x22,x19,30d8 <.L118>
    3114:	02c12083          	lw	x1,44(x2)
    3118:	02812403          	lw	x8,40(x2)
    311c:	02412483          	lw	x9,36(x2)
    3120:	02012903          	lw	x18,32(x2)
    3124:	01c12983          	lw	x19,28(x2)
    3128:	01812a03          	lw	x20,24(x2)
    312c:	01412a83          	lw	x21,20(x2)
    3130:	01012b03          	lw	x22,16(x2)
    3134:	00c12b83          	lw	x23,12(x2)
    3138:	00812c03          	lw	x24,8(x2)
    313c:	00412c83          	lw	x25,4(x2)
    3140:	00012d03          	lw	x26,0(x2)
    3144:	03010113          	addi	x2,x2,48
    3148:	00008067          	ret

0000314c <.L125>:
    314c:	00008067          	ret

00003150 <matrix_add_const>:
    3150:	04050663          	beqz	x10,319c <.L128>
    3154:	40a008b3          	neg	x17,x10
    3158:	00151693          	slli	x13,x10,0x1
    315c:	01061613          	slli	x12,x12,0x10
    3160:	00d586b3          	add	x13,x11,x13
    3164:	00189313          	slli	x6,x17,0x1
    3168:	01065613          	srli	x12,x12,0x10
    316c:	00000593          	li	x11,0
    3170:	00289893          	slli	x17,x17,0x2

00003174 <.L130>:
    3174:	00d30833          	add	x16,x6,x13
    3178:	00080793          	mv	x15,x16

0000317c <.L131>:
    317c:	0007d703          	lhu	x14,0(x15)
    3180:	00278793          	addi	x15,x15,2
    3184:	00e60733          	add	x14,x12,x14
    3188:	fee79f23          	sh	x14,-2(x15)
    318c:	fed798e3          	bne	x15,x13,317c <.L131>
    3190:	00158593          	addi	x11,x11,1
    3194:	411806b3          	sub	x13,x16,x17
    3198:	fcb51ee3          	bne	x10,x11,3174 <.L130>

0000319c <.L128>:
    319c:	00008067          	ret

000031a0 <matrix_mul_vect>:
    31a0:	0c050c63          	beqz	x10,3278 <.L144>
    31a4:	fd010113          	addi	x2,x2,-48
    31a8:	01412c23          	sw	x20,24(x2)
    31ac:	01512a23          	sw	x21,20(x2)
    31b0:	00058a13          	mv	x20,x11
    31b4:	01712623          	sw	x23,12(x2)
    31b8:	00050a93          	mv	x21,x10
    31bc:	00251b93          	slli	x23,x10,0x2
    31c0:	01312e23          	sw	x19,28(x2)
    31c4:	01612823          	sw	x22,16(x2)
    31c8:	01812423          	sw	x24,8(x2)
    31cc:	00068b13          	mv	x22,x13
    31d0:	00060c13          	mv	x24,x12
    31d4:	00000593          	li	x11,0
    31d8:	000b8613          	mv	x12,x23
    31dc:	000a0513          	mv	x10,x20
    31e0:	001a9993          	slli	x19,x21,0x1
    31e4:	01912223          	sw	x25,4(x2)
    31e8:	02112623          	sw	x1,44(x2)
    31ec:	02812423          	sw	x8,40(x2)
    31f0:	02912223          	sw	x9,36(x2)
    31f4:	03212023          	sw	x18,32(x2)
    31f8:	017a0bb3          	add	x23,x20,x23
    31fc:	2dc000ef          	jal	x1,34d8 <memset>
    3200:	013b09b3          	add	x19,x22,x19
    3204:	00000c93          	li	x25,0

00003208 <.L139>:
    3208:	001c9493          	slli	x9,x25,0x1
    320c:	009c04b3          	add	x9,x24,x9
    3210:	000b0413          	mv	x8,x22
    3214:	00000913          	li	x18,0

00003218 <.L138>:
    3218:	00041583          	lh	x11,0(x8)
    321c:	00049503          	lh	x10,0(x9)
    3220:	00240413          	addi	x8,x8,2
    3224:	00248493          	addi	x9,x9,2
    3228:	631000ef          	jal	x1,4058 <__mulsi3>
    322c:	00a90933          	add	x18,x18,x10
    3230:	fe8994e3          	bne	x19,x8,3218 <.L138>
    3234:	012a2023          	sw	x18,0(x20)
    3238:	004a0a13          	addi	x20,x20,4
    323c:	015c8cb3          	add	x25,x25,x21
    3240:	fd4b94e3          	bne	x23,x20,3208 <.L139>
    3244:	02c12083          	lw	x1,44(x2)
    3248:	02812403          	lw	x8,40(x2)
    324c:	02412483          	lw	x9,36(x2)
    3250:	02012903          	lw	x18,32(x2)
    3254:	01c12983          	lw	x19,28(x2)
    3258:	01812a03          	lw	x20,24(x2)
    325c:	01412a83          	lw	x21,20(x2)
    3260:	01012b03          	lw	x22,16(x2)
    3264:	00c12b83          	lw	x23,12(x2)
    3268:	00812c03          	lw	x24,8(x2)
    326c:	00412c83          	lw	x25,4(x2)
    3270:	03010113          	addi	x2,x2,48
    3274:	00008067          	ret

00003278 <.L144>:
    3278:	00008067          	ret

0000327c <matrix_mul_matrix>:
    327c:	fb010113          	addi	x2,x2,-80
    3280:	04112623          	sw	x1,76(x2)
    3284:	04812423          	sw	x8,72(x2)
    3288:	04912223          	sw	x9,68(x2)
    328c:	05212023          	sw	x18,64(x2)
    3290:	03312e23          	sw	x19,60(x2)
    3294:	03412c23          	sw	x20,56(x2)
    3298:	03512a23          	sw	x21,52(x2)
    329c:	03612823          	sw	x22,48(x2)
    32a0:	03712623          	sw	x23,44(x2)
    32a4:	03812423          	sw	x24,40(x2)
    32a8:	03912223          	sw	x25,36(x2)
    32ac:	03a12023          	sw	x26,32(x2)
    32b0:	01b12e23          	sw	x27,28(x2)
    32b4:	00b12423          	sw	x11,8(x2)
    32b8:	00d12623          	sw	x13,12(x2)
    32bc:	0a050463          	beqz	x10,3364 <.L147>
    32c0:	00151413          	slli	x8,x10,0x1
    32c4:	00251793          	slli	x15,x10,0x2
    32c8:	00050b13          	mv	x22,x10
    32cc:	00060a93          	mv	x21,x12
    32d0:	008604b3          	add	x9,x12,x8
    32d4:	00f12223          	sw	x15,4(x2)
    32d8:	00000b93          	li	x23,0
    32dc:	00000c13          	li	x24,0

000032e0 <.L149>:
    32e0:	00812783          	lw	x15,8(x2)
    32e4:	00412603          	lw	x12,4(x2)
    32e8:	002b9913          	slli	x18,x23,0x2
    32ec:	01278933          	add	x18,x15,x18
    32f0:	00000593          	li	x11,0
    32f4:	00090513          	mv	x10,x18
    32f8:	1e0000ef          	jal	x1,34d8 <memset>
    32fc:	00c12983          	lw	x19,12(x2)
    3300:	00000a13          	li	x20,0

00003304 <.L151>:
    3304:	00098d93          	mv	x27,x19
    3308:	000a8d13          	mv	x26,x21
    330c:	00000c93          	li	x25,0

00003310 <.L150>:
    3310:	000d9583          	lh	x11,0(x27)
    3314:	000d1503          	lh	x10,0(x26)
    3318:	002d0d13          	addi	x26,x26,2
    331c:	008d8db3          	add	x27,x27,x8
    3320:	539000ef          	jal	x1,4058 <__mulsi3>
    3324:	00ac8cb3          	add	x25,x25,x10
    3328:	fe9d14e3          	bne	x26,x9,3310 <.L150>
    332c:	01992023          	sw	x25,0(x18) # fffff000 <seed1_volatile+0xfffbe940>
    3330:	001a0793          	addi	x15,x20,1
    3334:	00490913          	addi	x18,x18,4
    3338:	00298993          	addi	x19,x19,2
    333c:	00fb0663          	beq	x22,x15,3348 <.L158>
    3340:	00078a13          	mv	x20,x15
    3344:	fc1ff06f          	j	3304 <.L151>

00003348 <.L158>:
    3348:	001c0793          	addi	x15,x24,1
    334c:	008a8ab3          	add	x21,x21,x8
    3350:	016b8bb3          	add	x23,x23,x22
    3354:	008484b3          	add	x9,x9,x8
    3358:	014c0663          	beq	x24,x20,3364 <.L147>
    335c:	00078c13          	mv	x24,x15
    3360:	f81ff06f          	j	32e0 <.L149>

00003364 <.L147>:
    3364:	04c12083          	lw	x1,76(x2)
    3368:	04812403          	lw	x8,72(x2)
    336c:	04412483          	lw	x9,68(x2)
    3370:	04012903          	lw	x18,64(x2)
    3374:	03c12983          	lw	x19,60(x2)
    3378:	03812a03          	lw	x20,56(x2)
    337c:	03412a83          	lw	x21,52(x2)
    3380:	03012b03          	lw	x22,48(x2)
    3384:	02c12b83          	lw	x23,44(x2)
    3388:	02812c03          	lw	x24,40(x2)
    338c:	02412c83          	lw	x25,36(x2)
    3390:	02012d03          	lw	x26,32(x2)
    3394:	01c12d83          	lw	x27,28(x2)
    3398:	05010113          	addi	x2,x2,80
    339c:	00008067          	ret

000033a0 <matrix_mul_matrix_bitextract>:
    33a0:	fb010113          	addi	x2,x2,-80
    33a4:	04112623          	sw	x1,76(x2)
    33a8:	04812423          	sw	x8,72(x2)
    33ac:	04912223          	sw	x9,68(x2)
    33b0:	05212023          	sw	x18,64(x2)
    33b4:	03312e23          	sw	x19,60(x2)
    33b8:	03412c23          	sw	x20,56(x2)
    33bc:	03512a23          	sw	x21,52(x2)
    33c0:	03612823          	sw	x22,48(x2)
    33c4:	03712623          	sw	x23,44(x2)
    33c8:	03812423          	sw	x24,40(x2)
    33cc:	03912223          	sw	x25,36(x2)
    33d0:	03a12023          	sw	x26,32(x2)
    33d4:	01b12e23          	sw	x27,28(x2)
    33d8:	00b12423          	sw	x11,8(x2)
    33dc:	00d12623          	sw	x13,12(x2)
    33e0:	0a050e63          	beqz	x10,349c <.L159>
    33e4:	00151413          	slli	x8,x10,0x1
    33e8:	00251793          	slli	x15,x10,0x2
    33ec:	00050b13          	mv	x22,x10
    33f0:	00060a93          	mv	x21,x12
    33f4:	008604b3          	add	x9,x12,x8
    33f8:	00f12223          	sw	x15,4(x2)
    33fc:	00000b93          	li	x23,0
    3400:	00000c13          	li	x24,0

00003404 <.L161>:
    3404:	00812783          	lw	x15,8(x2)
    3408:	00412603          	lw	x12,4(x2)
    340c:	002b9913          	slli	x18,x23,0x2
    3410:	01278933          	add	x18,x15,x18
    3414:	00000593          	li	x11,0
    3418:	00090513          	mv	x10,x18
    341c:	0bc000ef          	jal	x1,34d8 <memset>
    3420:	00c12983          	lw	x19,12(x2)
    3424:	00000a13          	li	x20,0

00003428 <.L163>:
    3428:	00098d93          	mv	x27,x19
    342c:	000a8d13          	mv	x26,x21
    3430:	00000c93          	li	x25,0

00003434 <.L162>:
    3434:	000d9583          	lh	x11,0(x27)
    3438:	000d1503          	lh	x10,0(x26)
    343c:	002d0d13          	addi	x26,x26,2
    3440:	008d8db3          	add	x27,x27,x8
    3444:	415000ef          	jal	x1,4058 <__mulsi3>
    3448:	40255613          	srai	x12,x10,0x2
    344c:	40555593          	srai	x11,x10,0x5
    3450:	07f5f593          	andi	x11,x11,127
    3454:	00f67513          	andi	x10,x12,15
    3458:	401000ef          	jal	x1,4058 <__mulsi3>
    345c:	00ac8cb3          	add	x25,x25,x10
    3460:	fc9d1ae3          	bne	x26,x9,3434 <.L162>
    3464:	01992023          	sw	x25,0(x18)
    3468:	001a0793          	addi	x15,x20,1
    346c:	00490913          	addi	x18,x18,4
    3470:	00298993          	addi	x19,x19,2
    3474:	00fb0663          	beq	x22,x15,3480 <.L170>
    3478:	00078a13          	mv	x20,x15
    347c:	fadff06f          	j	3428 <.L163>

00003480 <.L170>:
    3480:	001c0793          	addi	x15,x24,1
    3484:	008a8ab3          	add	x21,x21,x8
    3488:	016b8bb3          	add	x23,x23,x22
    348c:	008484b3          	add	x9,x9,x8
    3490:	014c0663          	beq	x24,x20,349c <.L159>
    3494:	00078c13          	mv	x24,x15
    3498:	f6dff06f          	j	3404 <.L161>

0000349c <.L159>:
    349c:	04c12083          	lw	x1,76(x2)
    34a0:	04812403          	lw	x8,72(x2)
    34a4:	04412483          	lw	x9,68(x2)
    34a8:	04012903          	lw	x18,64(x2)
    34ac:	03c12983          	lw	x19,60(x2)
    34b0:	03812a03          	lw	x20,56(x2)
    34b4:	03412a83          	lw	x21,52(x2)
    34b8:	03012b03          	lw	x22,48(x2)
    34bc:	02c12b83          	lw	x23,44(x2)
    34c0:	02812c03          	lw	x24,40(x2)
    34c4:	02412c83          	lw	x25,36(x2)
    34c8:	02012d03          	lw	x26,32(x2)
    34cc:	01c12d83          	lw	x27,28(x2)
    34d0:	05010113          	addi	x2,x2,80
    34d4:	00008067          	ret

000034d8 <memset>:
    34d8:	00f00313          	li	x6,15
    34dc:	00050713          	mv	x14,x10
    34e0:	02c37e63          	bgeu	x6,x12,351c <.Ltiny>
    34e4:	00f77793          	andi	x15,x14,15
    34e8:	0a079063          	bnez	x15,3588 <.Lmisaligned>

000034ec <.Laligned>:
    34ec:	08059263          	bnez	x11,3570 <.Lwordify>

000034f0 <.Lwordified>:
    34f0:	ff067693          	andi	x13,x12,-16
    34f4:	00f67613          	andi	x12,x12,15
    34f8:	00e686b3          	add	x13,x13,x14

000034fc <.L1^B1>:
    34fc:	00b72023          	sw	x11,0(x14)
    3500:	00b72223          	sw	x11,4(x14)
    3504:	00b72423          	sw	x11,8(x14)
    3508:	00b72623          	sw	x11,12(x14)
    350c:	01070713          	addi	x14,x14,16
    3510:	fed766e3          	bltu	x14,x13,34fc <.L1^B1>
    3514:	00061463          	bnez	x12,351c <.Ltiny>
    3518:	00008067          	ret

0000351c <.Ltiny>:
    351c:	40c306b3          	sub	x13,x6,x12
    3520:	00269693          	slli	x13,x13,0x2

00003524 <.L1^B2>:
    3524:	00000297          	auipc	x5,0x0
    3528:	005686b3          	add	x13,x13,x5

0000352c <.Ltable_misaligned>:
    352c:	00c68067          	jr	12(x13)

00003530 <.Ltable>:
    3530:	00b70723          	sb	x11,14(x14)
    3534:	00b706a3          	sb	x11,13(x14)
    3538:	00b70623          	sb	x11,12(x14)
    353c:	00b705a3          	sb	x11,11(x14)
    3540:	00b70523          	sb	x11,10(x14)
    3544:	00b704a3          	sb	x11,9(x14)
    3548:	00b70423          	sb	x11,8(x14)
    354c:	00b703a3          	sb	x11,7(x14)
    3550:	00b70323          	sb	x11,6(x14)
    3554:	00b702a3          	sb	x11,5(x14)
    3558:	00b70223          	sb	x11,4(x14)
    355c:	00b701a3          	sb	x11,3(x14)
    3560:	00b70123          	sb	x11,2(x14)
    3564:	00b700a3          	sb	x11,1(x14)
    3568:	00b70023          	sb	x11,0(x14)
    356c:	00008067          	ret

00003570 <.Lwordify>:
    3570:	0ff5f593          	andi	x11,x11,255
    3574:	00859693          	slli	x13,x11,0x8
    3578:	00d5e5b3          	or	x11,x11,x13
    357c:	01059693          	slli	x13,x11,0x10
    3580:	00d5e5b3          	or	x11,x11,x13
    3584:	f6dff06f          	j	34f0 <.Lwordified>

00003588 <.Lmisaligned>:
    3588:	00279693          	slli	x13,x15,0x2

0000358c <.L1^B3>:
    358c:	00000297          	auipc	x5,0x0
    3590:	005686b3          	add	x13,x13,x5
    3594:	00008293          	mv	x5,x1
    3598:	fa0680e7          	jalr	-96(x13)
    359c:	00028093          	mv	x1,x5
    35a0:	ff078793          	addi	x15,x15,-16
    35a4:	40f70733          	sub	x14,x14,x15
    35a8:	00f60633          	add	x12,x12,x15
    35ac:	f6c378e3          	bgeu	x6,x12,351c <.Ltiny>
    35b0:	f3dff06f          	j	34ec <.Laligned>

000035b4 <__divdf3>:
    35b4:	fb010113          	addi	x2,x2,-80
    35b8:	05212023          	sw	x18,64(x2)

000035bc <.LBB3>:
    35bc:	0145d913          	srli	x18,x11,0x14

000035c0 <.LBE3>:
    35c0:	04912223          	sw	x9,68(x2)
    35c4:	03312e23          	sw	x19,60(x2)
    35c8:	03512a23          	sw	x21,52(x2)
    35cc:	03612823          	sw	x22,48(x2)
    35d0:	03712623          	sw	x23,44(x2)

000035d4 <.LBB4>:
    35d4:	00c59493          	slli	x9,x11,0xc

000035d8 <.LBE4>:
    35d8:	04112623          	sw	x1,76(x2)
    35dc:	04812423          	sw	x8,72(x2)
    35e0:	03412c23          	sw	x20,56(x2)
    35e4:	03812423          	sw	x24,40(x2)
    35e8:	03912223          	sw	x25,36(x2)
    35ec:	03a12023          	sw	x26,32(x2)
    35f0:	01b12e23          	sw	x27,28(x2)

000035f4 <.LBB5>:
    35f4:	7ff97913          	andi	x18,x18,2047

000035f8 <.LBE5>:
    35f8:	00050993          	mv	x19,x10
    35fc:	00060b93          	mv	x23,x12
    3600:	00068b13          	mv	x22,x13

00003604 <.LBB6>:
    3604:	00c4d493          	srli	x9,x9,0xc

00003608 <.LVL1>:
    3608:	01f5da93          	srli	x21,x11,0x1f

0000360c <.LBE6>:
    360c:	0a090063          	beqz	x18,36ac <.L2>
    3610:	7ff00793          	li	x15,2047
    3614:	0ef90e63          	beq	x18,x15,3710 <.L3>

00003618 <.LVL3>:
    3618:	01d55c93          	srli	x25,x10,0x1d
    361c:	00349493          	slli	x9,x9,0x3

00003620 <.LVL4>:
    3620:	009ce4b3          	or	x9,x25,x9
    3624:	00800cb7          	lui	x25,0x800
    3628:	0194ecb3          	or	x25,x9,x25

0000362c <.LVL5>:
    362c:	00351413          	slli	x8,x10,0x3

00003630 <.LVL6>:
    3630:	c0190913          	addi	x18,x18,-1023

00003634 <.L85>:
    3634:	00000c13          	li	x24,0

00003638 <.L4>:
    3638:	014b5513          	srli	x10,x22,0x14
    363c:	00cb1593          	slli	x11,x22,0xc
    3640:	7ff57513          	andi	x10,x10,2047
    3644:	00c5d993          	srli	x19,x11,0xc

00003648 <.LVL9>:
    3648:	01fb5b13          	srli	x22,x22,0x1f

0000364c <.LBE11>:
    364c:	10050063          	beqz	x10,374c <.L9>
    3650:	7ff00793          	li	x15,2047
    3654:	16f50063          	beq	x10,x15,37b4 <.L10>

00003658 <.LVL11>:
    3658:	00399593          	slli	x11,x19,0x3
    365c:	01dbd793          	srli	x15,x23,0x1d
    3660:	00b7e5b3          	or	x11,x15,x11
    3664:	008009b7          	lui	x19,0x800

00003668 <.LVL12>:
    3668:	0135e9b3          	or	x19,x11,x19

0000366c <.LVL13>:
    366c:	003b9693          	slli	x13,x23,0x3

00003670 <.LVL14>:
    3670:	c0150513          	addi	x10,x10,-1023

00003674 <.L86>:
    3674:	00000793          	li	x15,0

00003678 <.L11>:
    3678:	002c1713          	slli	x14,x24,0x2
    367c:	00f76733          	or	x14,x14,x15
    3680:	fff70713          	addi	x14,x14,-1
    3684:	00e00613          	li	x12,14
    3688:	016ac4b3          	xor	x9,x21,x22

0000368c <.LVL17>:
    368c:	40a90933          	sub	x18,x18,x10

00003690 <.LVL18>:
    3690:	14e66e63          	bltu	x12,x14,37ec <.L16>
    3694:	00040637          	lui	x12,0x40
    3698:	00271713          	slli	x14,x14,0x2
    369c:	07460613          	addi	x12,x12,116 # 40074 <.L18>
    36a0:	00c70733          	add	x14,x14,x12
    36a4:	00072703          	lw	x14,0(x14)
    36a8:	00070067          	jr	x14

000036ac <.L2>:
    36ac:	00a4ecb3          	or	x25,x9,x10
    36b0:	060c8e63          	beqz	x25,372c <.L51>

000036b4 <.LBB16>:
    36b4:	04048063          	beqz	x9,36f4 <.L5>
    36b8:	00048513          	mv	x10,x9

000036bc <.LVL20>:
    36bc:	275000ef          	jal	x1,4130 <__clzsi2>

000036c0 <.L6>:
    36c0:	ff550793          	addi	x15,x10,-11

000036c4 <.LVL22>:
    36c4:	01c00713          	li	x14,28
    36c8:	02f74c63          	blt	x14,x15,3700 <.L7>
    36cc:	01d00c93          	li	x25,29
    36d0:	ff850413          	addi	x8,x10,-8
    36d4:	40fc8cb3          	sub	x25,x25,x15
    36d8:	008494b3          	sll	x9,x9,x8

000036dc <.LVL23>:
    36dc:	0199dcb3          	srl	x25,x19,x25
    36e0:	009cecb3          	or	x25,x25,x9

000036e4 <.LVL24>:
    36e4:	00899433          	sll	x8,x19,x8

000036e8 <.L8>:
    36e8:	c0d00913          	li	x18,-1011

000036ec <.LVL26>:
    36ec:	40a90933          	sub	x18,x18,x10
    36f0:	f45ff06f          	j	3634 <.L85>

000036f4 <.L5>:
    36f4:	23d000ef          	jal	x1,4130 <__clzsi2>

000036f8 <.LVL28>:
    36f8:	02050513          	addi	x10,x10,32
    36fc:	fc5ff06f          	j	36c0 <.L6>

00003700 <.L7>:
    3700:	fd850493          	addi	x9,x10,-40

00003704 <.LVL31>:
    3704:	00999cb3          	sll	x25,x19,x9

00003708 <.LVL32>:
    3708:	00000413          	li	x8,0
    370c:	fddff06f          	j	36e8 <.L8>

00003710 <.L3>:
    3710:	00a4ecb3          	or	x25,x9,x10
    3714:	020c8463          	beqz	x25,373c <.L52>
    3718:	00050413          	mv	x8,x10

0000371c <.LBB17>:
    371c:	00048c93          	mv	x25,x9

00003720 <.LBE17>:
    3720:	7ff00913          	li	x18,2047

00003724 <.LVL34>:
    3724:	00300c13          	li	x24,3
    3728:	f11ff06f          	j	3638 <.L4>

0000372c <.L51>:
    372c:	00000413          	li	x8,0
    3730:	00000913          	li	x18,0

00003734 <.LVL36>:
    3734:	00100c13          	li	x24,1
    3738:	f01ff06f          	j	3638 <.L4>

0000373c <.L52>:
    373c:	00000413          	li	x8,0
    3740:	7ff00913          	li	x18,2047

00003744 <.LVL38>:
    3744:	00200c13          	li	x24,2
    3748:	ef1ff06f          	j	3638 <.L4>

0000374c <.L9>:
    374c:	0179e6b3          	or	x13,x19,x23
    3750:	06068e63          	beqz	x13,37cc <.L53>

00003754 <.LBB18>:
    3754:	04098063          	beqz	x19,3794 <.L12>
    3758:	00098513          	mv	x10,x19

0000375c <.LVL40>:
    375c:	1d5000ef          	jal	x1,4130 <__clzsi2>

00003760 <.L13>:
    3760:	ff550793          	addi	x15,x10,-11

00003764 <.LVL42>:
    3764:	01c00713          	li	x14,28
    3768:	02f74e63          	blt	x14,x15,37a4 <.L14>
    376c:	01d00613          	li	x12,29
    3770:	ff850693          	addi	x13,x10,-8
    3774:	40f60633          	sub	x12,x12,x15
    3778:	00d995b3          	sll	x11,x19,x13
    377c:	00cbd633          	srl	x12,x23,x12
    3780:	00b669b3          	or	x19,x12,x11
    3784:	00db96b3          	sll	x13,x23,x13

00003788 <.L15>:
    3788:	c0d00713          	li	x14,-1011
    378c:	40a70533          	sub	x10,x14,x10
    3790:	ee5ff06f          	j	3674 <.L86>

00003794 <.L12>:
    3794:	000b8513          	mv	x10,x23

00003798 <.LVL46>:
    3798:	199000ef          	jal	x1,4130 <__clzsi2>

0000379c <.LVL47>:
    379c:	02050513          	addi	x10,x10,32
    37a0:	fc1ff06f          	j	3760 <.L13>

000037a4 <.L14>:
    37a4:	fd850593          	addi	x11,x10,-40
    37a8:	00bb99b3          	sll	x19,x23,x11

000037ac <.LVL50>:
    37ac:	00000693          	li	x13,0
    37b0:	fd9ff06f          	j	3788 <.L15>

000037b4 <.L10>:
    37b4:	0179e6b3          	or	x13,x19,x23
    37b8:	02068263          	beqz	x13,37dc <.L54>
    37bc:	000b8693          	mv	x13,x23
    37c0:	7ff00513          	li	x10,2047

000037c4 <.LVL52>:
    37c4:	00300793          	li	x15,3
    37c8:	eb1ff06f          	j	3678 <.L11>

000037cc <.L53>:
    37cc:	00000993          	li	x19,0

000037d0 <.LVL54>:
    37d0:	00000513          	li	x10,0

000037d4 <.LVL55>:
    37d4:	00100793          	li	x15,1
    37d8:	ea1ff06f          	j	3678 <.L11>

000037dc <.L54>:
    37dc:	00000993          	li	x19,0

000037e0 <.LVL57>:
    37e0:	7ff00513          	li	x10,2047

000037e4 <.LVL58>:
    37e4:	00200793          	li	x15,2
    37e8:	e91ff06f          	j	3678 <.L11>

000037ec <.L16>:
    37ec:	0199e663          	bltu	x19,x25,37f8 <.L24>
    37f0:	453c9a63          	bne	x25,x19,3c44 <.L25>
    37f4:	44d46863          	bltu	x8,x13,3c44 <.L25>

000037f8 <.L24>:
    37f8:	01fc9713          	slli	x14,x25,0x1f
    37fc:	00145793          	srli	x15,x8,0x1

00003800 <.LVL61>:
    3800:	01f41d93          	slli	x27,x8,0x1f

00003804 <.LVL62>:
    3804:	001cdc93          	srli	x25,x25,0x1

00003808 <.LVL63>:
    3808:	00f76433          	or	x8,x14,x15

0000380c <.L26>:
    380c:	00899593          	slli	x11,x19,0x8
    3810:	0186da93          	srli	x21,x13,0x18

00003814 <.LVL65>:
    3814:	00baeab3          	or	x21,x21,x11

00003818 <.LBB21>:
    3818:	0105db93          	srli	x23,x11,0x10
    381c:	000b8593          	mv	x11,x23
    3820:	010a9c13          	slli	x24,x21,0x10

00003824 <.LVL67>:
    3824:	000c8513          	mv	x10,x25

00003828 <.LBE21>:
    3828:	00869b13          	slli	x22,x13,0x8

0000382c <.LBB23>:
    382c:	010c5c13          	srli	x24,x24,0x10

00003830 <.LVL70>:
    3830:	055000ef          	jal	x1,4084 <__udivsi3>

00003834 <.LVL71>:
    3834:	00050593          	mv	x11,x10
    3838:	00050d13          	mv	x26,x10

0000383c <.LVL72>:
    383c:	000c0513          	mv	x10,x24

00003840 <.LVL73>:
    3840:	019000ef          	jal	x1,4058 <__mulsi3>

00003844 <.LVL74>:
    3844:	00050993          	mv	x19,x10

00003848 <.LVL75>:
    3848:	000b8593          	mv	x11,x23
    384c:	000c8513          	mv	x10,x25

00003850 <.LVL76>:
    3850:	07d000ef          	jal	x1,40cc <__umodsi3>

00003854 <.LVL77>:
    3854:	01051513          	slli	x10,x10,0x10
    3858:	01045713          	srli	x14,x8,0x10
    385c:	00a76733          	or	x14,x14,x10

00003860 <.LVL78>:
    3860:	000d0a13          	mv	x20,x26
    3864:	01377e63          	bgeu	x14,x19,3880 <.L27>
    3868:	01570733          	add	x14,x14,x21

0000386c <.LVL79>:
    386c:	fffd0a13          	addi	x20,x26,-1

00003870 <.LVL80>:
    3870:	01576863          	bltu	x14,x21,3880 <.L27>
    3874:	01377663          	bgeu	x14,x19,3880 <.L27>
    3878:	ffed0a13          	addi	x20,x26,-2
    387c:	01570733          	add	x14,x14,x21

00003880 <.L27>:
    3880:	413709b3          	sub	x19,x14,x19

00003884 <.LVL83>:
    3884:	000b8593          	mv	x11,x23
    3888:	00098513          	mv	x10,x19
    388c:	7f8000ef          	jal	x1,4084 <__udivsi3>

00003890 <.LVL84>:
    3890:	00050593          	mv	x11,x10
    3894:	00050d13          	mv	x26,x10

00003898 <.LVL85>:
    3898:	000c0513          	mv	x10,x24

0000389c <.LVL86>:
    389c:	7bc000ef          	jal	x1,4058 <__mulsi3>

000038a0 <.LVL87>:
    38a0:	00050c93          	mv	x25,x10

000038a4 <.LVL88>:
    38a4:	000b8593          	mv	x11,x23
    38a8:	00098513          	mv	x10,x19

000038ac <.LVL89>:
    38ac:	021000ef          	jal	x1,40cc <__umodsi3>

000038b0 <.LVL90>:
    38b0:	01041413          	slli	x8,x8,0x10

000038b4 <.LVL91>:
    38b4:	01051513          	slli	x10,x10,0x10
    38b8:	01045413          	srli	x8,x8,0x10
    38bc:	00a46433          	or	x8,x8,x10

000038c0 <.LVL92>:
    38c0:	000d0793          	mv	x15,x26
    38c4:	01947e63          	bgeu	x8,x25,38e0 <.L28>
    38c8:	01540433          	add	x8,x8,x21

000038cc <.LVL93>:
    38cc:	fffd0793          	addi	x15,x26,-1

000038d0 <.LVL94>:
    38d0:	01546863          	bltu	x8,x21,38e0 <.L28>
    38d4:	01947663          	bgeu	x8,x25,38e0 <.L28>
    38d8:	ffed0793          	addi	x15,x26,-2
    38dc:	01540433          	add	x8,x8,x21

000038e0 <.L28>:
    38e0:	010a1813          	slli	x16,x20,0x10
    38e4:	00010e37          	lui	x28,0x10
    38e8:	00f86833          	or	x16,x16,x15
    38ec:	41940433          	sub	x8,x8,x25

000038f0 <.LBB24>:
    38f0:	fffe0c93          	addi	x25,x28,-1 # ffff <.L119+0xb35b>

000038f4 <.LVL98>:
    38f4:	019878b3          	and	x17,x16,x25
    38f8:	019b7cb3          	and	x25,x22,x25
    38fc:	01085713          	srli	x14,x16,0x10

00003900 <.LVL99>:
    3900:	010b5d13          	srli	x26,x22,0x10

00003904 <.LBB25>:
    3904:	00088513          	mv	x10,x17
    3908:	000c8593          	mv	x11,x25
    390c:	74c000ef          	jal	x1,4058 <__mulsi3>
    3910:	00050793          	mv	x15,x10

00003914 <.LBB26>:
    3914:	000d0593          	mv	x11,x26
    3918:	00088513          	mv	x10,x17

0000391c <.LVL102>:
    391c:	73c000ef          	jal	x1,4058 <__mulsi3>
    3920:	00050893          	mv	x17,x10

00003924 <.LBB27>:
    3924:	000c8593          	mv	x11,x25
    3928:	00070513          	mv	x10,x14

0000392c <.LVL104>:
    392c:	72c000ef          	jal	x1,4058 <__mulsi3>
    3930:	00050313          	mv	x6,x10

00003934 <.LBB28>:
    3934:	000d0593          	mv	x11,x26
    3938:	00070513          	mv	x10,x14
    393c:	71c000ef          	jal	x1,4058 <__mulsi3>

00003940 <.LBE28>:
    3940:	0107d713          	srli	x14,x15,0x10

00003944 <.LVL106>:
    3944:	006888b3          	add	x17,x17,x6

00003948 <.LVL107>:
    3948:	01170733          	add	x14,x14,x17

0000394c <.LBB29>:
    394c:	00050613          	mv	x12,x10

00003950 <.LBE29>:
    3950:	00677463          	bgeu	x14,x6,3958 <.L29>
    3954:	01c50633          	add	x12,x10,x28

00003958 <.L29>:
    3958:	00010537          	lui	x10,0x10
    395c:	fff50513          	addi	x10,x10,-1 # ffff <.L119+0xb35b>
    3960:	01075693          	srli	x13,x14,0x10
    3964:	00a77a33          	and	x20,x14,x10

00003968 <.LVL110>:
    3968:	010a1a13          	slli	x20,x20,0x10
    396c:	00a7f7b3          	and	x15,x15,x10

00003970 <.LVL111>:
    3970:	00c686b3          	add	x13,x13,x12

00003974 <.LVL112>:
    3974:	00fa0a33          	add	x20,x20,x15

00003978 <.LBE24>:
    3978:	00d46863          	bltu	x8,x13,3988 <.L30>

0000397c <.LBB30>:
    397c:	00080993          	mv	x19,x16

00003980 <.LBE30>:
    3980:	04d41463          	bne	x8,x13,39c8 <.L31>
    3984:	054df263          	bgeu	x27,x20,39c8 <.L31>

00003988 <.L30>:
    3988:	016d8db3          	add	x27,x27,x22

0000398c <.LVL115>:
    398c:	016db7b3          	sltu	x15,x27,x22
    3990:	015787b3          	add	x15,x15,x21
    3994:	00f40433          	add	x8,x8,x15

00003998 <.LBE31>:
    3998:	fff80993          	addi	x19,x16,-1

0000399c <.LBB32>:
    399c:	008ae663          	bltu	x21,x8,39a8 <.L32>
    39a0:	028a9463          	bne	x21,x8,39c8 <.L31>
    39a4:	036de263          	bltu	x27,x22,39c8 <.L31>

000039a8 <.L32>:
    39a8:	00d46663          	bltu	x8,x13,39b4 <.L33>
    39ac:	00869e63          	bne	x13,x8,39c8 <.L31>
    39b0:	014dfc63          	bgeu	x27,x20,39c8 <.L31>

000039b4 <.L33>:
    39b4:	016d8db3          	add	x27,x27,x22

000039b8 <.LVL118>:
    39b8:	016db7b3          	sltu	x15,x27,x22
    39bc:	015787b3          	add	x15,x15,x21

000039c0 <.LBE33>:
    39c0:	ffe80993          	addi	x19,x16,-2

000039c4 <.LBB34>:
    39c4:	00f40433          	add	x8,x8,x15

000039c8 <.L31>:
    39c8:	414d8a33          	sub	x20,x27,x20

000039cc <.LVL121>:
    39cc:	40d40433          	sub	x8,x8,x13

000039d0 <.LVL122>:
    39d0:	014db7b3          	sltu	x15,x27,x20
    39d4:	40f40433          	sub	x8,x8,x15

000039d8 <.LBE35>:
    39d8:	fff00693          	li	x13,-1

000039dc <.LVL124>:
    39dc:	1a8a8263          	beq	x21,x8,3b80 <.L34>

000039e0 <.LBB36>:
    39e0:	000b8593          	mv	x11,x23
    39e4:	00040513          	mv	x10,x8
    39e8:	69c000ef          	jal	x1,4084 <__udivsi3>

000039ec <.LVL126>:
    39ec:	00050593          	mv	x11,x10
    39f0:	00a12623          	sw	x10,12(x2)
    39f4:	000c0513          	mv	x10,x24

000039f8 <.LVL127>:
    39f8:	660000ef          	jal	x1,4058 <__mulsi3>

000039fc <.LVL128>:
    39fc:	00a12423          	sw	x10,8(x2)

00003a00 <.LVL129>:
    3a00:	000b8593          	mv	x11,x23
    3a04:	00040513          	mv	x10,x8

00003a08 <.LVL130>:
    3a08:	6c4000ef          	jal	x1,40cc <__umodsi3>

00003a0c <.LVL131>:
    3a0c:	00c12683          	lw	x13,12(x2)
    3a10:	00812703          	lw	x14,8(x2)
    3a14:	01051513          	slli	x10,x10,0x10
    3a18:	010a5793          	srli	x15,x20,0x10
    3a1c:	00a7e7b3          	or	x15,x15,x10

00003a20 <.LVL132>:
    3a20:	00068d93          	mv	x27,x13
    3a24:	00e7fe63          	bgeu	x15,x14,3a40 <.L35>
    3a28:	015787b3          	add	x15,x15,x21

00003a2c <.LVL133>:
    3a2c:	fff68d93          	addi	x27,x13,-1

00003a30 <.LVL134>:
    3a30:	0157e863          	bltu	x15,x21,3a40 <.L35>
    3a34:	00e7f663          	bgeu	x15,x14,3a40 <.L35>
    3a38:	ffe68d93          	addi	x27,x13,-2
    3a3c:	015787b3          	add	x15,x15,x21

00003a40 <.L35>:
    3a40:	40e78433          	sub	x8,x15,x14

00003a44 <.LVL137>:
    3a44:	000b8593          	mv	x11,x23
    3a48:	00040513          	mv	x10,x8
    3a4c:	638000ef          	jal	x1,4084 <__udivsi3>

00003a50 <.LVL138>:
    3a50:	00050593          	mv	x11,x10
    3a54:	00a12423          	sw	x10,8(x2)

00003a58 <.LVL139>:
    3a58:	000c0513          	mv	x10,x24

00003a5c <.LVL140>:
    3a5c:	5fc000ef          	jal	x1,4058 <__mulsi3>

00003a60 <.LVL141>:
    3a60:	00050c13          	mv	x24,x10

00003a64 <.LVL142>:
    3a64:	000b8593          	mv	x11,x23
    3a68:	00040513          	mv	x10,x8

00003a6c <.LVL143>:
    3a6c:	660000ef          	jal	x1,40cc <__umodsi3>

00003a70 <.LVL144>:
    3a70:	00812703          	lw	x14,8(x2)
    3a74:	010a1a13          	slli	x20,x20,0x10

00003a78 <.LVL145>:
    3a78:	01051793          	slli	x15,x10,0x10
    3a7c:	010a5a13          	srli	x20,x20,0x10
    3a80:	00fa67b3          	or	x15,x20,x15

00003a84 <.LVL146>:
    3a84:	00070693          	mv	x13,x14
    3a88:	0187fe63          	bgeu	x15,x24,3aa4 <.L36>
    3a8c:	015787b3          	add	x15,x15,x21

00003a90 <.LVL147>:
    3a90:	fff70693          	addi	x13,x14,-1

00003a94 <.LVL148>:
    3a94:	0157e863          	bltu	x15,x21,3aa4 <.L36>
    3a98:	0187f663          	bgeu	x15,x24,3aa4 <.L36>
    3a9c:	ffe70693          	addi	x13,x14,-2
    3aa0:	015787b3          	add	x15,x15,x21

00003aa4 <.L36>:
    3aa4:	010d9813          	slli	x16,x27,0x10
    3aa8:	00d86833          	or	x16,x16,x13
    3aac:	01081893          	slli	x17,x16,0x10
    3ab0:	0108d893          	srli	x17,x17,0x10
    3ab4:	418787b3          	sub	x15,x15,x24

00003ab8 <.LBB37>:
    3ab8:	01085713          	srli	x14,x16,0x10

00003abc <.LBB38>:
    3abc:	00088513          	mv	x10,x17
    3ac0:	000c8593          	mv	x11,x25
    3ac4:	594000ef          	jal	x1,4058 <__mulsi3>

00003ac8 <.LVL153>:
    3ac8:	00050313          	mv	x6,x10

00003acc <.LBB39>:
    3acc:	000d0593          	mv	x11,x26
    3ad0:	00088513          	mv	x10,x17
    3ad4:	584000ef          	jal	x1,4058 <__mulsi3>
    3ad8:	00050893          	mv	x17,x10

00003adc <.LBB40>:
    3adc:	000c8593          	mv	x11,x25
    3ae0:	00070513          	mv	x10,x14

00003ae4 <.LVL156>:
    3ae4:	574000ef          	jal	x1,4058 <__mulsi3>
    3ae8:	00050e13          	mv	x28,x10

00003aec <.LBB41>:
    3aec:	000d0593          	mv	x11,x26
    3af0:	00070513          	mv	x10,x14

00003af4 <.LVL158>:
    3af4:	564000ef          	jal	x1,4058 <__mulsi3>

00003af8 <.LBE41>:
    3af8:	01035713          	srli	x14,x6,0x10

00003afc <.LVL159>:
    3afc:	01c888b3          	add	x17,x17,x28

00003b00 <.LVL160>:
    3b00:	01170733          	add	x14,x14,x17

00003b04 <.LBB42>:
    3b04:	00050693          	mv	x13,x10

00003b08 <.LBE42>:
    3b08:	01c77663          	bgeu	x14,x28,3b14 <.L37>
    3b0c:	00010637          	lui	x12,0x10
    3b10:	00c506b3          	add	x13,x10,x12

00003b14 <.L37>:
    3b14:	00010537          	lui	x10,0x10
    3b18:	fff50513          	addi	x10,x10,-1 # ffff <.L119+0xb35b>
    3b1c:	01075613          	srli	x12,x14,0x10
    3b20:	00a77733          	and	x14,x14,x10

00003b24 <.LVL163>:
    3b24:	01071713          	slli	x14,x14,0x10
    3b28:	00a37533          	and	x10,x6,x10
    3b2c:	00d60633          	add	x12,x12,x13

00003b30 <.LVL164>:
    3b30:	00a70533          	add	x10,x14,x10

00003b34 <.LBE37>:
    3b34:	00c7e863          	bltu	x15,x12,3b44 <.L38>
    3b38:	24c79a63          	bne	x15,x12,3d8c <.L39>

00003b3c <.LBB43>:
    3b3c:	00080693          	mv	x13,x16

00003b40 <.LBE43>:
    3b40:	04050063          	beqz	x10,3b80 <.L34>

00003b44 <.L38>:
    3b44:	00fa87b3          	add	x15,x21,x15

00003b48 <.LBE44>:
    3b48:	fff80693          	addi	x13,x16,-1

00003b4c <.LBB45>:
    3b4c:	0357e463          	bltu	x15,x21,3b74 <.L40>
    3b50:	00c7e663          	bltu	x15,x12,3b5c <.L41>
    3b54:	22c79a63          	bne	x15,x12,3d88 <.L65>
    3b58:	02ab7063          	bgeu	x22,x10,3b78 <.L42>

00003b5c <.L41>:
    3b5c:	001b1713          	slli	x14,x22,0x1
    3b60:	01673b33          	sltu	x22,x14,x22

00003b64 <.LVL169>:
    3b64:	015b0ab3          	add	x21,x22,x21

00003b68 <.LBE46>:
    3b68:	ffe80693          	addi	x13,x16,-2

00003b6c <.LBB47>:
    3b6c:	015787b3          	add	x15,x15,x21

00003b70 <.LVL172>:
    3b70:	00070b13          	mv	x22,x14

00003b74 <.L40>:
    3b74:	00c79463          	bne	x15,x12,3b7c <.L43>

00003b78 <.L42>:
    3b78:	00ab0463          	beq	x22,x10,3b80 <.L34>

00003b7c <.L43>:
    3b7c:	0016e693          	ori	x13,x13,1

00003b80 <.L34>:
    3b80:	3ff90793          	addi	x15,x18,1023

00003b84 <.LVL177>:
    3b84:	12f05063          	blez	x15,3ca4 <.L44>
    3b88:	0076f713          	andi	x14,x13,7
    3b8c:	02070063          	beqz	x14,3bac <.L45>
    3b90:	00f6f713          	andi	x14,x13,15
    3b94:	00400613          	li	x12,4
    3b98:	00c70a63          	beq	x14,x12,3bac <.L45>

00003b9c <.LBB49>:
    3b9c:	00468613          	addi	x12,x13,4

00003ba0 <.LVL178>:
    3ba0:	00d636b3          	sltu	x13,x12,x13

00003ba4 <.LVL179>:
    3ba4:	00d989b3          	add	x19,x19,x13

00003ba8 <.LVL180>:
    3ba8:	00060693          	mv	x13,x12

00003bac <.L45>:
    3bac:	01000737          	lui	x14,0x1000
    3bb0:	00e9f733          	and	x14,x19,x14
    3bb4:	00070a63          	beqz	x14,3bc8 <.L46>
    3bb8:	ff0007b7          	lui	x15,0xff000

00003bbc <.LVL182>:
    3bbc:	fff78793          	addi	x15,x15,-1 # feffffff <seed1_volatile+0xfefbf93f>
    3bc0:	00f9f9b3          	and	x19,x19,x15
    3bc4:	40090793          	addi	x15,x18,1024

00003bc8 <.L46>:
    3bc8:	7fe00713          	li	x14,2046
    3bcc:	0af74663          	blt	x14,x15,3c78 <.L69>
    3bd0:	0036d693          	srli	x13,x13,0x3

00003bd4 <.LVL185>:
    3bd4:	01d99713          	slli	x14,x19,0x1d

00003bd8 <.LVL186>:
    3bd8:	00d76733          	or	x14,x14,x13

00003bdc <.LVL187>:
    3bdc:	0039d593          	srli	x11,x19,0x3

00003be0 <.L23>:
    3be0:	01479793          	slli	x15,x15,0x14

00003be4 <.LVL189>:
    3be4:	7ff006b7          	lui	x13,0x7ff00
    3be8:	00c59593          	slli	x11,x11,0xc

00003bec <.LBE52>:
    3bec:	04c12083          	lw	x1,76(x2)
    3bf0:	04812403          	lw	x8,72(x2)

00003bf4 <.LBB53>:
    3bf4:	00d7f7b3          	and	x15,x15,x13
    3bf8:	00c5d593          	srli	x11,x11,0xc
    3bfc:	00b7e5b3          	or	x11,x15,x11
    3c00:	01f49493          	slli	x9,x9,0x1f

00003c04 <.LVL191>:
    3c04:	0095e7b3          	or	x15,x11,x9

00003c08 <.LBE53>:
    3c08:	04012903          	lw	x18,64(x2)
    3c0c:	04412483          	lw	x9,68(x2)
    3c10:	03c12983          	lw	x19,60(x2)
    3c14:	03812a03          	lw	x20,56(x2)
    3c18:	03412a83          	lw	x21,52(x2)
    3c1c:	03012b03          	lw	x22,48(x2)
    3c20:	02c12b83          	lw	x23,44(x2)
    3c24:	02812c03          	lw	x24,40(x2)
    3c28:	02412c83          	lw	x25,36(x2)
    3c2c:	02012d03          	lw	x26,32(x2)
    3c30:	01c12d83          	lw	x27,28(x2)
    3c34:	00070513          	mv	x10,x14
    3c38:	00078593          	mv	x11,x15
    3c3c:	05010113          	addi	x2,x2,80
    3c40:	00008067          	ret

00003c44 <.L25>:
    3c44:	fff90913          	addi	x18,x18,-1

00003c48 <.LVL194>:
    3c48:	00000d93          	li	x27,0
    3c4c:	bc1ff06f          	j	380c <.L26>

00003c50 <.L19>:
    3c50:	000a8493          	mv	x9,x21

00003c54 <.LBE55>:
    3c54:	000c8993          	mv	x19,x25

00003c58 <.LVL197>:
    3c58:	00040693          	mv	x13,x8

00003c5c <.LVL198>:
    3c5c:	000c0793          	mv	x15,x24

00003c60 <.L17>:
    3c60:	00300713          	li	x14,3
    3c64:	0ee78a63          	beq	x15,x14,3d58 <.L66>
    3c68:	00100713          	li	x14,1
    3c6c:	10e78063          	beq	x15,x14,3d6c <.L70>
    3c70:	00200713          	li	x14,2
    3c74:	f0e796e3          	bne	x15,x14,3b80 <.L34>

00003c78 <.L69>:
    3c78:	00000593          	li	x11,0
    3c7c:	00000713          	li	x14,0
    3c80:	7ff00793          	li	x15,2047
    3c84:	f5dff06f          	j	3be0 <.L23>

00003c88 <.L20>:
    3c88:	000b0493          	mv	x9,x22

00003c8c <.LBE56>:
    3c8c:	fd5ff06f          	j	3c60 <.L17>

00003c90 <.L56>:
    3c90:	000809b7          	lui	x19,0x80

00003c94 <.LVL204>:
    3c94:	00000693          	li	x13,0

00003c98 <.LVL205>:
    3c98:	00000493          	li	x9,0

00003c9c <.LVL206>:
    3c9c:	00300793          	li	x15,3

00003ca0 <.LVL207>:
    3ca0:	fc1ff06f          	j	3c60 <.L17>

00003ca4 <.L44>:
    3ca4:	00100593          	li	x11,1
    3ca8:	40f585b3          	sub	x11,x11,x15

00003cac <.LVL209>:
    3cac:	03800713          	li	x14,56
    3cb0:	0ab74e63          	blt	x14,x11,3d6c <.L70>
    3cb4:	01f00713          	li	x14,31
    3cb8:	06b74663          	blt	x14,x11,3d24 <.L47>
    3cbc:	41e90913          	addi	x18,x18,1054
    3cc0:	012997b3          	sll	x15,x19,x18
    3cc4:	00b6d733          	srl	x14,x13,x11
    3cc8:	01269933          	sll	x18,x13,x18
    3ccc:	00e7e7b3          	or	x15,x15,x14
    3cd0:	01203933          	snez	x18,x18
    3cd4:	0127e7b3          	or	x15,x15,x18

00003cd8 <.LVL210>:
    3cd8:	00b9d5b3          	srl	x11,x19,x11

00003cdc <.L48>:
    3cdc:	0077f713          	andi	x14,x15,7
    3ce0:	02070063          	beqz	x14,3d00 <.L50>
    3ce4:	00f7f713          	andi	x14,x15,15
    3ce8:	00400693          	li	x13,4
    3cec:	00d70a63          	beq	x14,x13,3d00 <.L50>

00003cf0 <.LBB59>:
    3cf0:	00478713          	addi	x14,x15,4

00003cf4 <.LVL212>:
    3cf4:	00f737b3          	sltu	x15,x14,x15

00003cf8 <.LVL213>:
    3cf8:	00f585b3          	add	x11,x11,x15

00003cfc <.LVL214>:
    3cfc:	00070793          	mv	x15,x14

00003d00 <.L50>:
    3d00:	00800737          	lui	x14,0x800
    3d04:	00e5f733          	and	x14,x11,x14
    3d08:	06071863          	bnez	x14,3d78 <.L72>

00003d0c <.LVL216>:
    3d0c:	01d59713          	slli	x14,x11,0x1d
    3d10:	0037d793          	srli	x15,x15,0x3

00003d14 <.LVL217>:
    3d14:	00f76733          	or	x14,x14,x15

00003d18 <.LVL218>:
    3d18:	0035d593          	srli	x11,x11,0x3

00003d1c <.L87>:
    3d1c:	00000793          	li	x15,0
    3d20:	ec1ff06f          	j	3be0 <.L23>

00003d24 <.L47>:
    3d24:	fe100713          	li	x14,-31
    3d28:	40f707b3          	sub	x15,x14,x15
    3d2c:	02000613          	li	x12,32
    3d30:	00f9d7b3          	srl	x15,x19,x15
    3d34:	00000713          	li	x14,0
    3d38:	00c58663          	beq	x11,x12,3d44 <.L49>
    3d3c:	43e90713          	addi	x14,x18,1086
    3d40:	00e99733          	sll	x14,x19,x14

00003d44 <.L49>:
    3d44:	00d76733          	or	x14,x14,x13
    3d48:	00e03733          	snez	x14,x14
    3d4c:	00e7e7b3          	or	x15,x15,x14

00003d50 <.LVL221>:
    3d50:	00000593          	li	x11,0

00003d54 <.LVL222>:
    3d54:	f89ff06f          	j	3cdc <.L48>

00003d58 <.L66>:
    3d58:	000805b7          	lui	x11,0x80
    3d5c:	00000713          	li	x14,0
    3d60:	7ff00793          	li	x15,2047
    3d64:	00000493          	li	x9,0

00003d68 <.LVL224>:
    3d68:	e79ff06f          	j	3be0 <.L23>

00003d6c <.L70>:
    3d6c:	00000593          	li	x11,0
    3d70:	00000713          	li	x14,0
    3d74:	fa9ff06f          	j	3d1c <.L87>

00003d78 <.L72>:
    3d78:	00000593          	li	x11,0

00003d7c <.LVL227>:
    3d7c:	00000713          	li	x14,0
    3d80:	00100793          	li	x15,1

00003d84 <.LVL228>:
    3d84:	e5dff06f          	j	3be0 <.L23>

00003d88 <.L65>:
    3d88:	00068813          	mv	x16,x13

00003d8c <.L39>:
    3d8c:	00080693          	mv	x13,x16
    3d90:	dedff06f          	j	3b7c <.L43>

00003d94 <__gedf2>:
    3d94:	00100737          	lui	x14,0x100
    3d98:	fff70713          	addi	x14,x14,-1 # fffff <seed1_volatile+0xbf93f>
    3d9c:	0145d813          	srli	x16,x11,0x14
    3da0:	00b778b3          	and	x17,x14,x11

00003da4 <.LBE2>:
    3da4:	00050793          	mv	x15,x10
    3da8:	00050313          	mv	x6,x10

00003dac <.LBB3>:
    3dac:	7ff87813          	andi	x16,x16,2047
    3db0:	01f5d513          	srli	x10,x11,0x1f

00003db4 <.LBB4>:
    3db4:	7ff00e93          	li	x29,2047

00003db8 <.LBB5>:
    3db8:	0146d593          	srli	x11,x13,0x14
    3dbc:	00d77733          	and	x14,x14,x13
    3dc0:	00060e13          	mv	x28,x12

00003dc4 <.LVL4>:
    3dc4:	7ff5f593          	andi	x11,x11,2047
    3dc8:	01f6d693          	srli	x13,x13,0x1f

00003dcc <.LBE5>:
    3dcc:	01d81a63          	bne	x16,x29,3de0 <.L2>
    3dd0:	00f8eeb3          	or	x29,x17,x15
    3dd4:	080e8a63          	beqz	x29,3e68 <.L34>

00003dd8 <.L23>:
    3dd8:	ffe00513          	li	x10,-2

00003ddc <.LVL7>:
    3ddc:	00008067          	ret

00003de0 <.L2>:
    3de0:	01d59663          	bne	x11,x29,3dec <.L5>

00003de4 <.L21>:
    3de4:	00c76eb3          	or	x29,x14,x12
    3de8:	fe0e98e3          	bnez	x29,3dd8 <.L23>

00003dec <.L5>:
    3dec:	08081063          	bnez	x16,3e6c <.L6>
    3df0:	00f8e7b3          	or	x15,x17,x15
    3df4:	0017b793          	seqz	x15,x15

00003df8 <.LVL9>:
    3df8:	00059663          	bnez	x11,3e04 <.L7>

00003dfc <.L20>:
    3dfc:	00c76633          	or	x12,x14,x12

00003e00 <.LVL11>:
    3e00:	04060c63          	beqz	x12,3e58 <.L8>

00003e04 <.L7>:
    3e04:	00079c63          	bnez	x15,3e1c <.L16>

00003e08 <.L17>:
    3e08:	00d51463          	bne	x10,x13,3e10 <.L13>
    3e0c:	0305d063          	bge	x11,x16,3e2c <.L11>

00003e10 <.L13>:
    3e10:	04050063          	beqz	x10,3e50 <.L29>

00003e14 <.L31>:
    3e14:	fff00513          	li	x10,-1

00003e18 <.LVL15>:
    3e18:	00008067          	ret

00003e1c <.L16>:
    3e1c:	fff00513          	li	x10,-1

00003e20 <.LVL17>:
    3e20:	00068a63          	beqz	x13,3e34 <.L1>
    3e24:	00068513          	mv	x10,x13
    3e28:	00008067          	ret

00003e2c <.L11>:
    3e2c:	00b85663          	bge	x16,x11,3e38 <.L12>

00003e30 <.L19>:
    3e30:	fe0502e3          	beqz	x10,3e14 <.L31>

00003e34 <.L1>:
    3e34:	00008067          	ret

00003e38 <.L12>:
    3e38:	fd176ce3          	bltu	x14,x17,3e10 <.L13>
    3e3c:	02e89263          	bne	x17,x14,3e60 <.L14>
    3e40:	fc6e68e3          	bltu	x28,x6,3e10 <.L13>
    3e44:	ffc366e3          	bltu	x6,x28,3e30 <.L19>

00003e48 <.L39>:
    3e48:	00000513          	li	x10,0

00003e4c <.LVL22>:
    3e4c:	00008067          	ret

00003e50 <.L29>:
    3e50:	00100513          	li	x10,1

00003e54 <.LVL24>:
    3e54:	00008067          	ret

00003e58 <.L8>:
    3e58:	fe0798e3          	bnez	x15,3e48 <.L39>
    3e5c:	fb5ff06f          	j	3e10 <.L13>

00003e60 <.L14>:
    3e60:	fce8e8e3          	bltu	x17,x14,3e30 <.L19>
    3e64:	fe5ff06f          	j	3e48 <.L39>

00003e68 <.L34>:
    3e68:	f7058ee3          	beq	x11,x16,3de4 <.L21>

00003e6c <.L6>:
    3e6c:	f8059ee3          	bnez	x11,3e08 <.L17>
    3e70:	00000793          	li	x15,0
    3e74:	f89ff06f          	j	3dfc <.L20>

00003e78 <__ledf2>:
    3e78:	00100737          	lui	x14,0x100
    3e7c:	fff70713          	addi	x14,x14,-1 # fffff <seed1_volatile+0xbf93f>
    3e80:	0145d813          	srli	x16,x11,0x14
    3e84:	00b778b3          	and	x17,x14,x11

00003e88 <.LBE2>:
    3e88:	00050793          	mv	x15,x10
    3e8c:	00050313          	mv	x6,x10

00003e90 <.LBB3>:
    3e90:	7ff87813          	andi	x16,x16,2047
    3e94:	01f5d513          	srli	x10,x11,0x1f

00003e98 <.LBB4>:
    3e98:	7ff00e93          	li	x29,2047

00003e9c <.LBB5>:
    3e9c:	0146d593          	srli	x11,x13,0x14
    3ea0:	00d77733          	and	x14,x14,x13
    3ea4:	00060e13          	mv	x28,x12

00003ea8 <.LVL4>:
    3ea8:	7ff5f593          	andi	x11,x11,2047
    3eac:	01f6d693          	srli	x13,x13,0x1f

00003eb0 <.LBE5>:
    3eb0:	01d81a63          	bne	x16,x29,3ec4 <.L2>
    3eb4:	00f8eeb3          	or	x29,x17,x15
    3eb8:	080e8a63          	beqz	x29,3f4c <.L34>

00003ebc <.L23>:
    3ebc:	00200513          	li	x10,2

00003ec0 <.LVL7>:
    3ec0:	00008067          	ret

00003ec4 <.L2>:
    3ec4:	01d59663          	bne	x11,x29,3ed0 <.L5>

00003ec8 <.L21>:
    3ec8:	00c76eb3          	or	x29,x14,x12
    3ecc:	fe0e98e3          	bnez	x29,3ebc <.L23>

00003ed0 <.L5>:
    3ed0:	08081063          	bnez	x16,3f50 <.L6>
    3ed4:	00f8e7b3          	or	x15,x17,x15
    3ed8:	0017b793          	seqz	x15,x15

00003edc <.LVL9>:
    3edc:	00059663          	bnez	x11,3ee8 <.L7>

00003ee0 <.L20>:
    3ee0:	00c76633          	or	x12,x14,x12

00003ee4 <.LVL11>:
    3ee4:	04060c63          	beqz	x12,3f3c <.L8>

00003ee8 <.L7>:
    3ee8:	00079c63          	bnez	x15,3f00 <.L16>

00003eec <.L17>:
    3eec:	00d51463          	bne	x10,x13,3ef4 <.L13>
    3ef0:	0305d063          	bge	x11,x16,3f10 <.L11>

00003ef4 <.L13>:
    3ef4:	04050063          	beqz	x10,3f34 <.L29>

00003ef8 <.L31>:
    3ef8:	fff00513          	li	x10,-1

00003efc <.LVL15>:
    3efc:	00008067          	ret

00003f00 <.L16>:
    3f00:	fff00513          	li	x10,-1

00003f04 <.LVL17>:
    3f04:	00068a63          	beqz	x13,3f18 <.L1>
    3f08:	00068513          	mv	x10,x13
    3f0c:	00008067          	ret

00003f10 <.L11>:
    3f10:	00b85663          	bge	x16,x11,3f1c <.L12>

00003f14 <.L19>:
    3f14:	fe0502e3          	beqz	x10,3ef8 <.L31>

00003f18 <.L1>:
    3f18:	00008067          	ret

00003f1c <.L12>:
    3f1c:	fd176ce3          	bltu	x14,x17,3ef4 <.L13>
    3f20:	02e89263          	bne	x17,x14,3f44 <.L14>
    3f24:	fc6e68e3          	bltu	x28,x6,3ef4 <.L13>
    3f28:	ffc366e3          	bltu	x6,x28,3f14 <.L19>

00003f2c <.L39>:
    3f2c:	00000513          	li	x10,0

00003f30 <.LVL22>:
    3f30:	00008067          	ret

00003f34 <.L29>:
    3f34:	00100513          	li	x10,1

00003f38 <.LVL24>:
    3f38:	00008067          	ret

00003f3c <.L8>:
    3f3c:	fe0798e3          	bnez	x15,3f2c <.L39>
    3f40:	fb5ff06f          	j	3ef4 <.L13>

00003f44 <.L14>:
    3f44:	fce8e8e3          	bltu	x17,x14,3f14 <.L19>
    3f48:	fe5ff06f          	j	3f2c <.L39>

00003f4c <.L34>:
    3f4c:	f7058ee3          	beq	x11,x16,3ec8 <.L21>

00003f50 <.L6>:
    3f50:	f8059ee3          	bnez	x11,3eec <.L17>
    3f54:	00000793          	li	x15,0
    3f58:	f89ff06f          	j	3ee0 <.L20>

00003f5c <__fixunsdfsi>:
    3f5c:	0145d713          	srli	x14,x11,0x14
    3f60:	00100837          	lui	x16,0x100
    3f64:	fff80793          	addi	x15,x16,-1 # fffff <seed1_volatile+0xbf93f>
    3f68:	7ff77713          	andi	x14,x14,2047

00003f6c <.LBE2>:
    3f6c:	3fe00613          	li	x12,1022

00003f70 <.LBB3>:
    3f70:	00b7f7b3          	and	x15,x15,x11

00003f74 <.LBE3>:
    3f74:	00050693          	mv	x13,x10

00003f78 <.LBB4>:
    3f78:	01f5d593          	srli	x11,x11,0x1f

00003f7c <.LBE4>:
    3f7c:	04e65a63          	bge	x12,x14,3fd0 <.L6>
    3f80:	41f00613          	li	x12,1055
    3f84:	40b60633          	sub	x12,x12,x11
    3f88:	fff58513          	addi	x10,x11,-1 # 7ffff <seed1_volatile+0x3f93f>

00003f8c <.LVL3>:
    3f8c:	04c75463          	bge	x14,x12,3fd4 <.L1>
    3f90:	00000513          	li	x10,0
    3f94:	04059063          	bnez	x11,3fd4 <.L1>

00003f98 <.LBB5>:
    3f98:	43300513          	li	x10,1075
    3f9c:	40e50533          	sub	x10,x10,x14
    3fa0:	01f00613          	li	x12,31
    3fa4:	0107e7b3          	or	x15,x15,x16
    3fa8:	00a64c63          	blt	x12,x10,3fc0 <.L5>

00003fac <.LVL6>:
    3fac:	bed70713          	addi	x14,x14,-1043

00003fb0 <.LVL7>:
    3fb0:	00e797b3          	sll	x15,x15,x14

00003fb4 <.LVL8>:
    3fb4:	00a6d533          	srl	x10,x13,x10
    3fb8:	00a7e533          	or	x10,x15,x10

00003fbc <.LVL9>:
    3fbc:	00008067          	ret

00003fc0 <.L5>:
    3fc0:	41300513          	li	x10,1043
    3fc4:	40e50533          	sub	x10,x10,x14
    3fc8:	00a7d533          	srl	x10,x15,x10

00003fcc <.LVL11>:
    3fcc:	00008067          	ret

00003fd0 <.L6>:
    3fd0:	00000513          	li	x10,0

00003fd4 <.L1>:
    3fd4:	00008067          	ret

00003fd8 <__floatunsidf>:
    3fd8:	ff010113          	addi	x2,x2,-16
    3fdc:	00812423          	sw	x8,8(x2)
    3fe0:	00112623          	sw	x1,12(x2)
    3fe4:	00050413          	mv	x8,x10

00003fe8 <.LBB10>:
    3fe8:	06050263          	beqz	x10,404c <.L4>

00003fec <.LBB3>:
    3fec:	144000ef          	jal	x1,4130 <__clzsi2>

00003ff0 <.LVL2>:
    3ff0:	41e00713          	li	x14,1054

00003ff4 <.LBE4>:
    3ff4:	00a00793          	li	x15,10

00003ff8 <.LBB5>:
    3ff8:	40a70733          	sub	x14,x14,x10

00003ffc <.LBE5>:
    3ffc:	04a7c063          	blt	x15,x10,403c <.L3>
    4000:	00b00793          	li	x15,11
    4004:	40a787b3          	sub	x15,x15,x10
    4008:	01550513          	addi	x10,x10,21

0000400c <.LVL4>:
    400c:	00f457b3          	srl	x15,x8,x15

00004010 <.LVL5>:
    4010:	00a41433          	sll	x8,x8,x10

00004014 <.L2>:
    4014:	00c12083          	lw	x1,12(x2)
    4018:	00040513          	mv	x10,x8

0000401c <.LBB12>:
    401c:	00c79793          	slli	x15,x15,0xc

00004020 <.LBE12>:
    4020:	00812403          	lw	x8,8(x2)

00004024 <.LBB13>:
    4024:	01471713          	slli	x14,x14,0x14

00004028 <.LVL9>:
    4028:	00c7d793          	srli	x15,x15,0xc
    402c:	00f766b3          	or	x13,x14,x15

00004030 <.LBE13>:
    4030:	00068593          	mv	x11,x13
    4034:	01010113          	addi	x2,x2,16
    4038:	00008067          	ret

0000403c <.L3>:
    403c:	ff550793          	addi	x15,x10,-11
    4040:	00f417b3          	sll	x15,x8,x15

00004044 <.LVL12>:
    4044:	00000413          	li	x8,0

00004048 <.LVL13>:
    4048:	fcdff06f          	j	4014 <.L2>

0000404c <.L4>:
    404c:	00000793          	li	x15,0
    4050:	00000713          	li	x14,0
    4054:	fc1ff06f          	j	4014 <.L2>

00004058 <__mulsi3>:
    4058:	00050613          	mv	x12,x10
    405c:	00000513          	li	x10,0

00004060 <.L1>:
    4060:	0015f693          	andi	x13,x11,1
    4064:	00068463          	beqz	x13,406c <.L2>
    4068:	00c50533          	add	x10,x10,x12

0000406c <.L2>:
    406c:	0015d593          	srli	x11,x11,0x1
    4070:	00161613          	slli	x12,x12,0x1
    4074:	fe0596e3          	bnez	x11,4060 <.L1>
    4078:	00008067          	ret

0000407c <__divsi3>:
    407c:	06054063          	bltz	x10,40dc <.L10>
    4080:	0605c663          	bltz	x11,40ec <.L11>

00004084 <__udivsi3>:
    4084:	00058613          	mv	x12,x11
    4088:	00050593          	mv	x11,x10
    408c:	fff00513          	li	x10,-1
    4090:	02060c63          	beqz	x12,40c8 <.L5>
    4094:	00100693          	li	x13,1
    4098:	00b67a63          	bgeu	x12,x11,40ac <.L2>

0000409c <.L1>:
    409c:	00c05863          	blez	x12,40ac <.L2>
    40a0:	00161613          	slli	x12,x12,0x1
    40a4:	00169693          	slli	x13,x13,0x1
    40a8:	feb66ae3          	bltu	x12,x11,409c <.L1>

000040ac <.L2>:
    40ac:	00000513          	li	x10,0

000040b0 <.L3>:
    40b0:	00c5e663          	bltu	x11,x12,40bc <.L4>
    40b4:	40c585b3          	sub	x11,x11,x12
    40b8:	00d56533          	or	x10,x10,x13

000040bc <.L4>:
    40bc:	0016d693          	srli	x13,x13,0x1
    40c0:	00165613          	srli	x12,x12,0x1
    40c4:	fe0696e3          	bnez	x13,40b0 <.L3>

000040c8 <.L5>:
    40c8:	00008067          	ret

000040cc <__umodsi3>:
    40cc:	00008293          	mv	x5,x1
    40d0:	fb5ff0ef          	jal	x1,4084 <__udivsi3>
    40d4:	00058513          	mv	x10,x11
    40d8:	00028067          	jr	x5 # 358c <.L1^B3>

000040dc <.L10>:
    40dc:	40a00533          	neg	x10,x10
    40e0:	00b04863          	bgtz	x11,40f0 <.L12>
    40e4:	40b005b3          	neg	x11,x11
    40e8:	f9dff06f          	j	4084 <__udivsi3>

000040ec <.L11>:
    40ec:	40b005b3          	neg	x11,x11

000040f0 <.L12>:
    40f0:	00008293          	mv	x5,x1
    40f4:	f91ff0ef          	jal	x1,4084 <__udivsi3>
    40f8:	40a00533          	neg	x10,x10
    40fc:	00028067          	jr	x5

00004100 <__modsi3>:
    4100:	00008293          	mv	x5,x1
    4104:	0005ca63          	bltz	x11,4118 <.L31>
    4108:	00054c63          	bltz	x10,4120 <.L32>

0000410c <.L30>:
    410c:	f79ff0ef          	jal	x1,4084 <__udivsi3>
    4110:	00058513          	mv	x10,x11
    4114:	00028067          	jr	x5

00004118 <.L31>:
    4118:	40b005b3          	neg	x11,x11
    411c:	fe0558e3          	bgez	x10,410c <.L30>

00004120 <.L32>:
    4120:	40a00533          	neg	x10,x10
    4124:	f61ff0ef          	jal	x1,4084 <__udivsi3>
    4128:	40b00533          	neg	x10,x11
    412c:	00028067          	jr	x5

00004130 <__clzsi2>:
    4130:	000107b7          	lui	x15,0x10
    4134:	02f57a63          	bgeu	x10,x15,4168 <.L2>
    4138:	0ff00793          	li	x15,255
    413c:	00a7b7b3          	sltu	x15,x15,x10
    4140:	00379793          	slli	x15,x15,0x3

00004144 <.L3>:
    4144:	00040737          	lui	x14,0x40
    4148:	02000693          	li	x13,32
    414c:	40f686b3          	sub	x13,x13,x15
    4150:	00f55533          	srl	x10,x10,x15

00004154 <.LVL2>:
    4154:	0b070793          	addi	x15,x14,176 # 400b0 <__clz_tab>

00004158 <.LVL3>:
    4158:	00a78533          	add	x10,x15,x10
    415c:	00054503          	lbu	x10,0(x10)

00004160 <.LBE3>:
    4160:	40a68533          	sub	x10,x13,x10
    4164:	00008067          	ret

00004168 <.L2>:
    4168:	01000737          	lui	x14,0x1000
    416c:	01000793          	li	x15,16
    4170:	fce56ae3          	bltu	x10,x14,4144 <.L3>
    4174:	01800793          	li	x15,24
    4178:	fcdff06f          	j	4144 <.L3>

Disassembly of section .text.startup:

0000417c <main>:
    417c:	81010113          	addi	x2,x2,-2032
    4180:	00001737          	lui	x14,0x1
    4184:	7e112623          	sw	x1,2028(x2)
    4188:	7e812423          	sw	x8,2024(x2)
    418c:	7e912223          	sw	x9,2020(x2)
    4190:	7f212023          	sw	x18,2016(x2)
    4194:	7d312e23          	sw	x19,2012(x2)
    4198:	7d412c23          	sw	x20,2008(x2)
    419c:	7d512a23          	sw	x21,2004(x2)
    41a0:	7d612823          	sw	x22,2000(x2)
    41a4:	7d712623          	sw	x23,1996(x2)
    41a8:	7d812423          	sw	x24,1992(x2)
    41ac:	7d912223          	sw	x25,1988(x2)
    41b0:	7da12023          	sw	x26,1984(x2)
    41b4:	7bb12e23          	sw	x27,1980(x2)
    41b8:	fffff7b7          	lui	x15,0xfffff
    41bc:	f8010113          	addi	x2,x2,-128
    41c0:	83070713          	addi	x14,x14,-2000 # 830 <.L134+0x1c>
    41c4:	00270733          	add	x14,x14,x2
    41c8:	7dc78793          	addi	x15,x15,2012 # fffff7dc <seed1_volatile+0xfffbf11c>
    41cc:	00058613          	mv	x12,x11
    41d0:	00a12623          	sw	x10,12(x2)
    41d4:	00f705b3          	add	x11,x14,x15
    41d8:	05e10513          	addi	x10,x2,94
    41dc:	d58fe0ef          	jal	x1,2734 <portable_init>
    41e0:	00100513          	li	x10,1
    41e4:	e4dfb0ef          	jal	x1,30 <get_seed_32>
    41e8:	00050793          	mv	x15,x10
    41ec:	00200513          	li	x10,2
    41f0:	00f11e23          	sh	x15,28(x2)
    41f4:	e3dfb0ef          	jal	x1,30 <get_seed_32>
    41f8:	00050793          	mv	x15,x10
    41fc:	00300513          	li	x10,3
    4200:	00f11f23          	sh	x15,30(x2)
    4204:	e2dfb0ef          	jal	x1,30 <get_seed_32>
    4208:	00050793          	mv	x15,x10
    420c:	00400513          	li	x10,4
    4210:	02f11023          	sh	x15,32(x2)
    4214:	e1dfb0ef          	jal	x1,30 <get_seed_32>
    4218:	00050793          	mv	x15,x10
    421c:	00500513          	li	x10,5
    4220:	02f12c23          	sw	x15,56(x2)
    4224:	e0dfb0ef          	jal	x1,30 <get_seed_32>
    4228:	080508e3          	beqz	x10,4ab8 <.L14>
    422c:	02a12e23          	sw	x10,60(x2)

00004230 <.L15>:
    4230:	00001737          	lui	x14,0x1
    4234:	83070713          	addi	x14,x14,-2000 # 830 <.L134+0x1c>
    4238:	fffff7b7          	lui	x15,0xfffff
    423c:	00270733          	add	x14,x14,x2
    4240:	00f707b3          	add	x15,x14,x15
    4244:	00f12223          	sw	x15,4(x2)
    4248:	7ec7a783          	lw	x15,2028(x15) # fffff7ec <seed1_volatile+0xfffbf12c>
    424c:	02079ee3          	bnez	x15,4a88 <.L16>
    4250:	00412783          	lw	x15,4(x2)
    4254:	7f079783          	lh	x15,2032(x15)
    4258:	0e078ce3          	beqz	x15,4b50 <.L121>

0000425c <.L17>:
    425c:	03c12403          	lw	x8,60(x2)
    4260:	00001737          	lui	x14,0x1
    4264:	83070713          	addi	x14,x14,-2000 # 830 <.L134+0x1c>
    4268:	00270733          	add	x14,x14,x2
    426c:	fffff7b7          	lui	x15,0xfffff
    4270:	00247493          	andi	x9,x8,2
    4274:	00f707b3          	add	x15,x14,x15
    4278:	00147a93          	andi	x21,x8,1
    427c:	00903933          	snez	x18,x9
    4280:	06010713          	addi	x14,x2,96
    4284:	012a8933          	add	x18,x21,x18
    4288:	00f12223          	sw	x15,4(x2)
    428c:	7ee7aa23          	sw	x14,2036(x15) # fffff7f4 <seed1_volatile+0xfffbf134>
    4290:	04011e23          	sh	x0,92(x2)
    4294:	00447a13          	andi	x20,x8,4
    4298:	000a8b13          	mv	x22,x21
    429c:	00190593          	addi	x11,x18,1
    42a0:	000a1463          	bnez	x20,42a8 <.L69>
    42a4:	00090593          	mv	x11,x18

000042a8 <.L69>:
    42a8:	7d000513          	li	x10,2000
    42ac:	dd9ff0ef          	jal	x1,4084 <__udivsi3>
    42b0:	02a12a23          	sw	x10,52(x2)
    42b4:	00050993          	mv	x19,x10
    42b8:	fffff7b7          	lui	x15,0xfffff
    42bc:	000b14e3          	bnez	x22,4ac4 <.L122>
    42c0:	040494e3          	bnez	x9,4b08 <.L123>

000042c4 <.L19>:
    42c4:	020a12e3          	bnez	x20,4ae8 <.L124>

000042c8 <.L20>:
    42c8:	360b1263          	bnez	x22,462c <.L125>

000042cc <.L21>:
    42cc:	38049c63          	bnez	x9,4664 <.L126>

000042d0 <.L22>:
    42d0:	00447413          	andi	x8,x8,4
    42d4:	02040663          	beqz	x8,4300 <.L23>
    42d8:	00001737          	lui	x14,0x1
    42dc:	83070713          	addi	x14,x14,-2000 # 830 <.L134+0x1c>
    42e0:	fffff7b7          	lui	x15,0xfffff
    42e4:	00270733          	add	x14,x14,x2
    42e8:	00f707b3          	add	x15,x14,x15
    42ec:	03012603          	lw	x12,48(x2)
    42f0:	7ec79583          	lh	x11,2028(x15) # fffff7ec <seed1_volatile+0xfffbf12c>
    42f4:	03412503          	lw	x10,52(x2)
    42f8:	00f12223          	sw	x15,4(x2)
    42fc:	f99fc0ef          	jal	x1,1294 <core_init_state>

00004300 <.L23>:
    4300:	03812783          	lw	x15,56(x2)
    4304:	0e079663          	bnez	x15,43f0 <.L24>
    4308:	000407b7          	lui	x15,0x40
    430c:	6a07a903          	lw	x18,1696(x15) # 406a0 <.LC0>
    4310:	6a47a983          	lw	x19,1700(x15)
    4314:	00100793          	li	x15,1
    4318:	02f12c23          	sw	x15,56(x2)
    431c:	000017b7          	lui	x15,0x1
    4320:	fffff4b7          	lui	x9,0xfffff
    4324:	83078793          	addi	x15,x15,-2000 # 830 <.L134+0x1c>
    4328:	7ec48493          	addi	x9,x9,2028 # fffff7ec <seed1_volatile+0xfffbf12c>
    432c:	002787b3          	add	x15,x15,x2
    4330:	009784b3          	add	x9,x15,x9

00004334 <.L26>:
    4334:	03812703          	lw	x14,56(x2)
    4338:	00000413          	li	x8,0
    433c:	00271793          	slli	x15,x14,0x2
    4340:	00e787b3          	add	x15,x15,x14
    4344:	00179793          	slli	x15,x15,0x1
    4348:	02f12c23          	sw	x15,56(x2)
    434c:	bacfe0ef          	jal	x1,26f8 <start_time>
    4350:	03812a03          	lw	x20,56(x2)
    4354:	04012a23          	sw	x0,84(x2)
    4358:	04012c23          	sw	x0,88(x2)
    435c:	040a0263          	beqz	x20,43a0 <.L30>

00004360 <.L25>:
    4360:	00100593          	li	x11,1
    4364:	00048513          	mv	x10,x9
    4368:	9d5fd0ef          	jal	x1,1d3c <core_bench_list>
    436c:	05415583          	lhu	x11,84(x2)
    4370:	e61fb0ef          	jal	x1,1d0 <crcu16>
    4374:	00050793          	mv	x15,x10
    4378:	fff00593          	li	x11,-1
    437c:	00048513          	mv	x10,x9
    4380:	04f11a23          	sh	x15,84(x2)
    4384:	9b9fd0ef          	jal	x1,1d3c <core_bench_list>
    4388:	05415583          	lhu	x11,84(x2)
    438c:	e45fb0ef          	jal	x1,1d0 <crcu16>
    4390:	04a11a23          	sh	x10,84(x2)
    4394:	30040a63          	beqz	x8,46a8 <.L127>
    4398:	00140413          	addi	x8,x8,1
    439c:	fc8a12e3          	bne	x20,x8,4360 <.L25>

000043a0 <.L30>:
    43a0:	b64fe0ef          	jal	x1,2704 <stop_time>
    43a4:	b6cfe0ef          	jal	x1,2710 <get_time>
    43a8:	b80fe0ef          	jal	x1,2728 <time_in_secs>
    43ac:	00090613          	mv	x12,x18
    43b0:	00098693          	mv	x13,x19
    43b4:	00050a13          	mv	x20,x10
    43b8:	00058413          	mv	x8,x11
    43bc:	abdff0ef          	jal	x1,3e78 <__ledf2>
    43c0:	f6054ae3          	bltz	x10,4334 <.L26>
    43c4:	00040593          	mv	x11,x8
    43c8:	000a0513          	mv	x10,x20
    43cc:	b91ff0ef          	jal	x1,3f5c <__fixunsdfsi>
    43d0:	00050593          	mv	x11,x10
    43d4:	78050663          	beqz	x10,4b60 <.L128>

000043d8 <.L31>:
    43d8:	00a00513          	li	x10,10
    43dc:	ca9ff0ef          	jal	x1,4084 <__udivsi3>
    43e0:	03812583          	lw	x11,56(x2)
    43e4:	00150513          	addi	x10,x10,1
    43e8:	c71ff0ef          	jal	x1,4058 <__mulsi3>
    43ec:	02a12c23          	sw	x10,56(x2)

000043f0 <.L24>:
    43f0:	00040537          	lui	x10,0x40
    43f4:	26050513          	addi	x10,x10,608 # 40260 <.LC1>
    43f8:	b1dfc0ef          	jal	x1,f14 <ee_printf>
    43fc:	afcfe0ef          	jal	x1,26f8 <start_time>
    4400:	000404b7          	lui	x9,0x40
    4404:	00000593          	li	x11,0
    4408:	26848513          	addi	x10,x9,616 # 40268 <.LC2>
    440c:	b09fc0ef          	jal	x1,f14 <ee_printf>
    4410:	00001937          	lui	x18,0x1
    4414:	fffff437          	lui	x8,0xfffff
    4418:	83090793          	addi	x15,x18,-2000 # 830 <.L134+0x1c>
    441c:	002787b3          	add	x15,x15,x2
    4420:	7ec40513          	addi	x10,x8,2028 # fffff7ec <seed1_volatile+0xfffbf12c>
    4424:	00a78533          	add	x10,x15,x10
    4428:	b20fe0ef          	jal	x1,2748 <iterate>
    442c:	ad8fe0ef          	jal	x1,2704 <stop_time>
    4430:	00040537          	lui	x10,0x40
    4434:	26c50513          	addi	x10,x10,620 # 4026c <.LC3>
    4438:	addfc0ef          	jal	x1,f14 <ee_printf>
    443c:	00000593          	li	x11,0
    4440:	26848513          	addi	x10,x9,616
    4444:	ad1fc0ef          	jal	x1,f14 <ee_printf>
    4448:	ac8fe0ef          	jal	x1,2710 <get_time>
    444c:	83090793          	addi	x15,x18,-2000
    4450:	002787b3          	add	x15,x15,x2
    4454:	008787b3          	add	x15,x15,x8
    4458:	00050a13          	mv	x20,x10
    445c:	7ec79503          	lh	x10,2028(x15)
    4460:	00000593          	li	x11,0
    4464:	00f12223          	sw	x15,4(x2)
    4468:	d08fc0ef          	jal	x1,970 <crc16>
    446c:	00412783          	lw	x15,4(x2)
    4470:	00050593          	mv	x11,x10
    4474:	7ee79503          	lh	x10,2030(x15)
    4478:	cf8fc0ef          	jal	x1,970 <crc16>
    447c:	00412783          	lw	x15,4(x2)
    4480:	00050593          	mv	x11,x10
    4484:	7f079503          	lh	x10,2032(x15)
    4488:	ce8fc0ef          	jal	x1,970 <crc16>
    448c:	00050593          	mv	x11,x10
    4490:	03411503          	lh	x10,52(x2)
    4494:	cdcfc0ef          	jal	x1,970 <crc16>
    4498:	000087b7          	lui	x15,0x8
    449c:	b0578793          	addi	x15,x15,-1275 # 7b05 <.L119+0x2e61>
    44a0:	00050913          	mv	x18,x10
    44a4:	76f50063          	beq	x10,x15,4c04 <.L32>
    44a8:	24a7e063          	bltu	x15,x10,46e8 <.L33>
    44ac:	000027b7          	lui	x15,0x2
    44b0:	8f278793          	addi	x15,x15,-1806 # 18f2 <.L118+0x32>
    44b4:	78f50263          	beq	x10,x15,4c38 <.L34>
    44b8:	00005b37          	lui	x22,0x5
    44bc:	eafb0793          	addi	x15,x22,-337 # 4eaf <.L119+0x20b>
    44c0:	7ef51263          	bne	x10,x15,4ca4 <.L119>
    44c4:	00040537          	lui	x10,0x40
    44c8:	2d050513          	addi	x10,x10,720 # 402d0 <.LC6>
    44cc:	a49fc0ef          	jal	x1,f14 <ee_printf>
    44d0:	608b0b13          	addi	x22,x22,1544
    44d4:	0000e9b7          	lui	x19,0xe
    44d8:	00007ab7          	lui	x21,0x7
    44dc:	00200793          	li	x15,2
    44e0:	5a498993          	addi	x19,x19,1444 # e5a4 <.L119+0x9900>
    44e4:	000b0c13          	mv	x24,x22
    44e8:	a79a8a93          	addi	x21,x21,-1415 # 6a79 <.L119+0x1dd5>
    44ec:	00f12423          	sw	x15,8(x2)

000044f0 <.L39>:
    44f0:	00040bb7          	lui	x23,0x40
    44f4:	05cba783          	lw	x15,92(x23) # 4005c <default_num_contexts>
    44f8:	00000d13          	li	x26,0
    44fc:	00000d93          	li	x27,0
    4500:	22078863          	beqz	x15,4730 <.L115>
    4504:	00001737          	lui	x14,0x1
    4508:	83070713          	addi	x14,x14,-2000 # 830 <.L134+0x1c>
    450c:	fffff7b7          	lui	x15,0xfffff
    4510:	00270733          	add	x14,x14,x2
    4514:	00f707b3          	add	x15,x14,x15
    4518:	00f12223          	sw	x15,4(x2)
    451c:	00001cb7          	lui	x25,0x1
    4520:	0440006f          	j	4564 <.L45>

00004524 <.L129>:
    4524:	00412783          	lw	x15,4(x2)
    4528:	01b406b3          	add	x13,x8,x27
    452c:	00269693          	slli	x13,x13,0x2
    4530:	00d786b3          	add	x13,x15,x13
    4534:	00dc86b3          	add	x13,x25,x13
    4538:	82c6d683          	lhu	x13,-2004(x13) # 7feff82c <seed1_volatile+0x7febf16c>

0000453c <.L43>:
    453c:	001d8593          	addi	x11,x27,1
    4540:	05cba603          	lw	x12,92(x23)
    4544:	01a68833          	add	x16,x13,x26
    4548:	01059d93          	slli	x27,x11,0x10
    454c:	01081413          	slli	x8,x16,0x10
    4550:	01081d13          	slli	x26,x16,0x10
    4554:	010ddd93          	srli	x27,x27,0x10
    4558:	01045413          	srli	x8,x8,0x10
    455c:	410d5d13          	srai	x26,x26,0x10
    4560:	1ccdfa63          	bgeu	x27,x12,4734 <.L36>

00004564 <.L45>:
    4564:	00412783          	lw	x15,4(x2)
    4568:	004d9413          	slli	x8,x27,0x4
    456c:	01b404b3          	add	x9,x8,x27
    4570:	00249493          	slli	x9,x9,0x2
    4574:	009784b3          	add	x9,x15,x9
    4578:	009c84b3          	add	x9,x25,x9
    457c:	80c4a683          	lw	x13,-2036(x9)
    4580:	82049623          	sh	x0,-2004(x9)
    4584:	0016f693          	andi	x13,x13,1
    4588:	02068663          	beqz	x13,45b4 <.L40>
    458c:	8264d603          	lhu	x12,-2010(x9)
    4590:	03560263          	beq	x12,x21,45b4 <.L40>
    4594:	000407b7          	lui	x15,0x40
    4598:	000a8693          	mv	x13,x21
    459c:	000d8593          	mv	x11,x27
    45a0:	36078513          	addi	x10,x15,864 # 40360 <.LC9>
    45a4:	971fc0ef          	jal	x1,f14 <ee_printf>
    45a8:	82c4d683          	lhu	x13,-2004(x9)
    45ac:	00168693          	addi	x13,x13,1
    45b0:	82d49623          	sh	x13,-2004(x9)

000045b4 <.L40>:
    45b4:	00412783          	lw	x15,4(x2)
    45b8:	01b404b3          	add	x9,x8,x27
    45bc:	00249493          	slli	x9,x9,0x2
    45c0:	009784b3          	add	x9,x15,x9
    45c4:	009c84b3          	add	x9,x25,x9
    45c8:	80c4a683          	lw	x13,-2036(x9)
    45cc:	0026f613          	andi	x12,x13,2
    45d0:	02060863          	beqz	x12,4600 <.L41>
    45d4:	8284d603          	lhu	x12,-2008(x9)
    45d8:	03860463          	beq	x12,x24,4600 <.L41>
    45dc:	000407b7          	lui	x15,0x40
    45e0:	000b0693          	mv	x13,x22
    45e4:	000d8593          	mv	x11,x27
    45e8:	38c78513          	addi	x10,x15,908 # 4038c <.LC10>
    45ec:	929fc0ef          	jal	x1,f14 <ee_printf>
    45f0:	82c4d603          	lhu	x12,-2004(x9)
    45f4:	80c4a683          	lw	x13,-2036(x9)
    45f8:	00160613          	addi	x12,x12,1 # 10001 <.L119+0xb35d>
    45fc:	82c49623          	sh	x12,-2004(x9)

00004600 <.L41>:
    4600:	0046f693          	andi	x13,x13,4
    4604:	f20680e3          	beqz	x13,4524 <.L129>
    4608:	00412783          	lw	x15,4(x2)
    460c:	01b40433          	add	x8,x8,x27
    4610:	00241413          	slli	x8,x8,0x2
    4614:	00878433          	add	x8,x15,x8
    4618:	008c8433          	add	x8,x25,x8
    461c:	82a45603          	lhu	x12,-2006(x8)
    4620:	09361e63          	bne	x12,x19,46bc <.L44>
    4624:	82c45683          	lhu	x13,-2004(x8)
    4628:	f15ff06f          	j	453c <.L43>

0000462c <.L125>:
    462c:	00001737          	lui	x14,0x1
    4630:	83070713          	addi	x14,x14,-2000 # 830 <.L134+0x1c>
    4634:	00270733          	add	x14,x14,x2
    4638:	fffff7b7          	lui	x15,0xfffff
    463c:	00f707b3          	add	x15,x14,x15
    4640:	7ec79603          	lh	x12,2028(x15) # fffff7ec <seed1_volatile+0xfffbf12c>
    4644:	7f87a583          	lw	x11,2040(x15)
    4648:	00098513          	mv	x10,x19
    464c:	00f12223          	sw	x15,4(x2)
    4650:	b71fd0ef          	jal	x1,21c0 <core_list_init>
    4654:	03c12403          	lw	x8,60(x2)
    4658:	04a12023          	sw	x10,64(x2)
    465c:	00247493          	andi	x9,x8,2
    4660:	c60488e3          	beqz	x9,42d0 <.L22>

00004664 <.L126>:
    4664:	00001737          	lui	x14,0x1
    4668:	83070713          	addi	x14,x14,-2000 # 830 <.L134+0x1c>
    466c:	00270733          	add	x14,x14,x2
    4670:	fffff7b7          	lui	x15,0xfffff
    4674:	00f707b3          	add	x15,x14,x15
    4678:	00f12223          	sw	x15,4(x2)
    467c:	00412703          	lw	x14,4(x2)
    4680:	7ee79783          	lh	x15,2030(x15) # fffff7ee <seed1_volatile+0xfffbf12e>
    4684:	03412503          	lw	x10,52(x2)
    4688:	7ec71603          	lh	x12,2028(x14)
    468c:	7fc72583          	lw	x11,2044(x14)
    4690:	01079793          	slli	x15,x15,0x10
    4694:	04410693          	addi	x13,x2,68
    4698:	00c7e633          	or	x12,x15,x12
    469c:	f6cfe0ef          	jal	x1,2e08 <core_init_matrix>
    46a0:	03c12403          	lw	x8,60(x2)
    46a4:	c2dff06f          	j	42d0 <.L22>

000046a8 <.L127>:
    46a8:	04a11b23          	sh	x10,86(x2)
    46ac:	00100793          	li	x15,1
    46b0:	cefa08e3          	beq	x20,x15,43a0 <.L30>
    46b4:	00100413          	li	x8,1
    46b8:	ca9ff06f          	j	4360 <.L25>

000046bc <.L44>:
    46bc:	000407b7          	lui	x15,0x40
    46c0:	00098693          	mv	x13,x19
    46c4:	000d8593          	mv	x11,x27
    46c8:	3bc78513          	addi	x10,x15,956 # 403bc <.LC11>
    46cc:	849fc0ef          	jal	x1,f14 <ee_printf>
    46d0:	82c45683          	lhu	x13,-2004(x8)
    46d4:	00168693          	addi	x13,x13,1
    46d8:	01069693          	slli	x13,x13,0x10
    46dc:	0106d693          	srli	x13,x13,0x10
    46e0:	82d41623          	sh	x13,-2004(x8)
    46e4:	e59ff06f          	j	453c <.L43>

000046e8 <.L33>:
    46e8:	000099b7          	lui	x19,0x9
    46ec:	a0298793          	addi	x15,x19,-1534 # 8a02 <.L119+0x3d5e>
    46f0:	56f50c63          	beq	x10,x15,4c68 <.L37>
    46f4:	0000f7b7          	lui	x15,0xf
    46f8:	9f578793          	addi	x15,x15,-1547 # e9f5 <.L119+0x9d51>
    46fc:	5af51463          	bne	x10,x15,4ca4 <.L119>
    4700:	00040537          	lui	x10,0x40
    4704:	30450513          	addi	x10,x10,772 # 40304 <.LC7>
    4708:	80dfc0ef          	jal	x1,f14 <ee_printf>
    470c:	00002b37          	lui	x22,0x2
    4710:	fd7b0b13          	addi	x22,x22,-41 # 1fd7 <.L71+0x1b>
    4714:	0000eab7          	lui	x21,0xe
    4718:	00300793          	li	x15,3
    471c:	e3a98993          	addi	x19,x19,-454
    4720:	000b0c13          	mv	x24,x22
    4724:	714a8a93          	addi	x21,x21,1812 # e714 <.L119+0x9a70>
    4728:	00f12423          	sw	x15,8(x2)
    472c:	dc5ff06f          	j	44f0 <.L39>

00004730 <.L115>:
    4730:	00000413          	li	x8,0

00004734 <.L36>:
    4734:	cc8fc0ef          	jal	x1,bfc <check_data_types>
    4738:	03412583          	lw	x11,52(x2)
    473c:	00a40433          	add	x8,x8,x10
    4740:	00040537          	lui	x10,0x40
    4744:	3e850513          	addi	x10,x10,1000 # 403e8 <.LC12>
    4748:	fccfc0ef          	jal	x1,f14 <ee_printf>
    474c:	00040537          	lui	x10,0x40
    4750:	000a0593          	mv	x11,x20
    4754:	40850513          	addi	x10,x10,1032 # 40408 <.LC13>
    4758:	fbcfc0ef          	jal	x1,f14 <ee_printf>
    475c:	000a0513          	mv	x10,x20
    4760:	fc9fd0ef          	jal	x1,2728 <time_in_secs>
    4764:	00050613          	mv	x12,x10
    4768:	00040537          	lui	x10,0x40
    476c:	00058693          	mv	x13,x11
    4770:	42850513          	addi	x10,x10,1064 # 40428 <.LC14>
    4774:	fa0fc0ef          	jal	x1,f14 <ee_printf>
    4778:	000a0513          	mv	x10,x20
    477c:	fadfd0ef          	jal	x1,2728 <time_in_secs>
    4780:	01041413          	slli	x8,x8,0x10
    4784:	00000613          	li	x12,0
    4788:	00000693          	li	x13,0
    478c:	01045413          	srli	x8,x8,0x10
    4790:	e04ff0ef          	jal	x1,3d94 <__gedf2>
    4794:	04a05663          	blez	x10,47e0 <.L46>
    4798:	05cba583          	lw	x11,92(x23)
    479c:	03812503          	lw	x10,56(x2)
    47a0:	8b9ff0ef          	jal	x1,4058 <__mulsi3>
    47a4:	835ff0ef          	jal	x1,3fd8 <__floatunsidf>
    47a8:	00050993          	mv	x19,x10
    47ac:	000a0513          	mv	x10,x20
    47b0:	00058493          	mv	x9,x11
    47b4:	f75fd0ef          	jal	x1,2728 <time_in_secs>
    47b8:	00050613          	mv	x12,x10
    47bc:	00058693          	mv	x13,x11
    47c0:	00098513          	mv	x10,x19
    47c4:	00048593          	mv	x11,x9
    47c8:	dedfe0ef          	jal	x1,35b4 <__divdf3>
    47cc:	00050613          	mv	x12,x10
    47d0:	00040537          	lui	x10,0x40
    47d4:	00058693          	mv	x13,x11
    47d8:	44050513          	addi	x10,x10,1088 # 40440 <.LC15>
    47dc:	f38fc0ef          	jal	x1,f14 <ee_printf>

000047e0 <.L46>:
    47e0:	000a0513          	mv	x10,x20
    47e4:	f45fd0ef          	jal	x1,2728 <time_in_secs>
    47e8:	000407b7          	lui	x15,0x40
    47ec:	6a87a603          	lw	x12,1704(x15) # 406a8 <.LC16>
    47f0:	6ac7a683          	lw	x13,1708(x15)
    47f4:	e84ff0ef          	jal	x1,3e78 <__ledf2>
    47f8:	3e054c63          	bltz	x10,4bf0 <.L48>

000047fc <.L120>:
    47fc:	05cba583          	lw	x11,92(x23)
    4800:	03812503          	lw	x10,56(x2)
    4804:	00040ab7          	lui	x21,0x40
    4808:	00040b37          	lui	x22,0x40
    480c:	84dff0ef          	jal	x1,4058 <__mulsi3>
    4810:	00050593          	mv	x11,x10
    4814:	00040537          	lui	x10,0x40
    4818:	49850513          	addi	x10,x10,1176 # 40498 <.LC18>
    481c:	ef8fc0ef          	jal	x1,f14 <ee_printf>
    4820:	00040537          	lui	x10,0x40
    4824:	4b0a8593          	addi	x11,x21,1200 # 404b0 <.LC19>
    4828:	4bc50513          	addi	x10,x10,1212 # 404bc <.LC20>
    482c:	ee8fc0ef          	jal	x1,f14 <ee_printf>
    4830:	00040537          	lui	x10,0x40
    4834:	4d4b0593          	addi	x11,x22,1236 # 404d4 <.LC21>
    4838:	4d850513          	addi	x10,x10,1240 # 404d8 <.LC22>
    483c:	ed8fc0ef          	jal	x1,f14 <ee_printf>
    4840:	00040c37          	lui	x24,0x40
    4844:	00040537          	lui	x10,0x40
    4848:	4f0c0593          	addi	x11,x24,1264 # 404f0 <.LC23>
    484c:	4f850513          	addi	x10,x10,1272 # 404f8 <.LC24>
    4850:	ec4fc0ef          	jal	x1,f14 <ee_printf>
    4854:	00040537          	lui	x10,0x40
    4858:	00090593          	mv	x11,x18
    485c:	51050513          	addi	x10,x10,1296 # 40510 <.LC25>
    4860:	eb4fc0ef          	jal	x1,f14 <ee_printf>
    4864:	03c12783          	lw	x15,60(x2)
    4868:	01041413          	slli	x8,x8,0x10
    486c:	41045413          	srai	x8,x8,0x10
    4870:	0017f693          	andi	x13,x15,1
    4874:	06068863          	beqz	x13,48e4 <.L53>
    4878:	05cba683          	lw	x13,92(x23)
    487c:	06068463          	beqz	x13,48e4 <.L53>
    4880:	00001737          	lui	x14,0x1
    4884:	83070713          	addi	x14,x14,-2000 # 830 <.L134+0x1c>
    4888:	fffff7b7          	lui	x15,0xfffff
    488c:	00270733          	add	x14,x14,x2
    4890:	00f707b3          	add	x15,x14,x15
    4894:	00000993          	li	x19,0
    4898:	00040937          	lui	x18,0x40
    489c:	00f12223          	sw	x15,4(x2)
    48a0:	000014b7          	lui	x9,0x1

000048a4 <.L54>:
    48a4:	00412703          	lw	x14,4(x2)
    48a8:	00499793          	slli	x15,x19,0x4
    48ac:	013787b3          	add	x15,x15,x19
    48b0:	00279793          	slli	x15,x15,0x2
    48b4:	00f707b3          	add	x15,x14,x15
    48b8:	00f487b3          	add	x15,x9,x15
    48bc:	8267d603          	lhu	x12,-2010(x15) # ffffe826 <seed1_volatile+0xfffbe166>
    48c0:	00098593          	mv	x11,x19
    48c4:	52c90513          	addi	x10,x18,1324 # 4052c <.LC26>
    48c8:	e4cfc0ef          	jal	x1,f14 <ee_printf>
    48cc:	00198993          	addi	x19,x19,1
    48d0:	05cba783          	lw	x15,92(x23)
    48d4:	01099993          	slli	x19,x19,0x10
    48d8:	0109d993          	srli	x19,x19,0x10
    48dc:	fcf9e4e3          	bltu	x19,x15,48a4 <.L54>
    48e0:	03c12783          	lw	x15,60(x2)

000048e4 <.L53>:
    48e4:	0027f693          	andi	x13,x15,2
    48e8:	06068863          	beqz	x13,4958 <.L52>
    48ec:	05cba683          	lw	x13,92(x23)
    48f0:	3a068463          	beqz	x13,4c98 <.L57>
    48f4:	00001737          	lui	x14,0x1
    48f8:	83070713          	addi	x14,x14,-2000 # 830 <.L134+0x1c>
    48fc:	fffff7b7          	lui	x15,0xfffff
    4900:	00270733          	add	x14,x14,x2
    4904:	00f707b3          	add	x15,x14,x15
    4908:	00000993          	li	x19,0
    490c:	00040937          	lui	x18,0x40
    4910:	00f12223          	sw	x15,4(x2)
    4914:	000014b7          	lui	x9,0x1

00004918 <.L58>:
    4918:	00412703          	lw	x14,4(x2)
    491c:	00499793          	slli	x15,x19,0x4
    4920:	013787b3          	add	x15,x15,x19
    4924:	00279793          	slli	x15,x15,0x2
    4928:	00f707b3          	add	x15,x14,x15
    492c:	00f487b3          	add	x15,x9,x15
    4930:	8287d603          	lhu	x12,-2008(x15) # ffffe828 <seed1_volatile+0xfffbe168>
    4934:	00098593          	mv	x11,x19
    4938:	54890513          	addi	x10,x18,1352 # 40548 <.LC27>
    493c:	dd8fc0ef          	jal	x1,f14 <ee_printf>
    4940:	00198993          	addi	x19,x19,1
    4944:	05cba783          	lw	x15,92(x23)
    4948:	01099993          	slli	x19,x19,0x10
    494c:	0109d993          	srli	x19,x19,0x10
    4950:	fcf9e4e3          	bltu	x19,x15,4918 <.L58>
    4954:	03c12783          	lw	x15,60(x2)

00004958 <.L52>:
    4958:	0047f793          	andi	x15,x15,4
    495c:	06078663          	beqz	x15,49c8 <.L56>
    4960:	05cba783          	lw	x15,92(x23)
    4964:	0c078263          	beqz	x15,4a28 <.L60>
    4968:	00001737          	lui	x14,0x1
    496c:	83070713          	addi	x14,x14,-2000 # 830 <.L134+0x1c>
    4970:	fffff7b7          	lui	x15,0xfffff
    4974:	00270733          	add	x14,x14,x2
    4978:	00f707b3          	add	x15,x14,x15
    497c:	00000993          	li	x19,0
    4980:	00040937          	lui	x18,0x40
    4984:	00f12223          	sw	x15,4(x2)
    4988:	000014b7          	lui	x9,0x1

0000498c <.L61>:
    498c:	00412703          	lw	x14,4(x2)
    4990:	00499793          	slli	x15,x19,0x4
    4994:	013787b3          	add	x15,x15,x19
    4998:	00279793          	slli	x15,x15,0x2
    499c:	00f707b3          	add	x15,x14,x15
    49a0:	00f487b3          	add	x15,x9,x15
    49a4:	82a7d603          	lhu	x12,-2006(x15) # ffffe82a <seed1_volatile+0xfffbe16a>
    49a8:	00098593          	mv	x11,x19
    49ac:	56490513          	addi	x10,x18,1380 # 40564 <.LC28>
    49b0:	d64fc0ef          	jal	x1,f14 <ee_printf>
    49b4:	00198993          	addi	x19,x19,1
    49b8:	05cba783          	lw	x15,92(x23)
    49bc:	01099993          	slli	x19,x19,0x10
    49c0:	0109d993          	srli	x19,x19,0x10
    49c4:	fcf9e4e3          	bltu	x19,x15,498c <.L61>

000049c8 <.L56>:
    49c8:	00001737          	lui	x14,0x1
    49cc:	05cba783          	lw	x15,92(x23)
    49d0:	83070713          	addi	x14,x14,-2000 # 830 <.L134+0x1c>
    49d4:	fffff4b7          	lui	x9,0xfffff
    49d8:	00270733          	add	x14,x14,x2
    49dc:	00000c93          	li	x25,0
    49e0:	000409b7          	lui	x19,0x40
    49e4:	009704b3          	add	x9,x14,x9
    49e8:	00001937          	lui	x18,0x1
    49ec:	02078e63          	beqz	x15,4a28 <.L60>

000049f0 <.L59>:
    49f0:	004c9793          	slli	x15,x25,0x4
    49f4:	019787b3          	add	x15,x15,x25
    49f8:	00279793          	slli	x15,x15,0x2
    49fc:	00f487b3          	add	x15,x9,x15
    4a00:	00f907b3          	add	x15,x18,x15
    4a04:	8247d603          	lhu	x12,-2012(x15)
    4a08:	000c8593          	mv	x11,x25
    4a0c:	58098513          	addi	x10,x19,1408 # 40580 <.LC29>
    4a10:	d04fc0ef          	jal	x1,f14 <ee_printf>
    4a14:	001c8c93          	addi	x25,x25,1 # 1001 <.LLST53+0x3a>
    4a18:	05cba783          	lw	x15,92(x23)
    4a1c:	010c9c93          	slli	x25,x25,0x10
    4a20:	010cdc93          	srli	x25,x25,0x10
    4a24:	fcfce6e3          	bltu	x25,x15,49f0 <.L59>

00004a28 <.L60>:
    4a28:	14040063          	beqz	x8,4b68 <.L130>
    4a2c:	10805a63          	blez	x8,4b40 <.L65>
    4a30:	00040537          	lui	x10,0x40
    4a34:	60c50513          	addi	x10,x10,1548 # 4060c <.LC34>
    4a38:	cdcfc0ef          	jal	x1,f14 <ee_printf>

00004a3c <.L66>:
    4a3c:	05e10513          	addi	x10,x2,94
    4a40:	d01fd0ef          	jal	x1,2740 <portable_fini>
    4a44:	08010113          	addi	x2,x2,128
    4a48:	7ec12083          	lw	x1,2028(x2)
    4a4c:	7e812403          	lw	x8,2024(x2)
    4a50:	7e412483          	lw	x9,2020(x2)
    4a54:	7e012903          	lw	x18,2016(x2)
    4a58:	7dc12983          	lw	x19,2012(x2)
    4a5c:	7d812a03          	lw	x20,2008(x2)
    4a60:	7d412a83          	lw	x21,2004(x2)
    4a64:	7d012b03          	lw	x22,2000(x2)
    4a68:	7cc12b83          	lw	x23,1996(x2)
    4a6c:	7c812c03          	lw	x24,1992(x2)
    4a70:	7c412c83          	lw	x25,1988(x2)
    4a74:	7c012d03          	lw	x26,1984(x2)
    4a78:	7bc12d83          	lw	x27,1980(x2)
    4a7c:	00000513          	li	x10,0
    4a80:	7f010113          	addi	x2,x2,2032
    4a84:	00008067          	ret

00004a88 <.L16>:
    4a88:	00100713          	li	x14,1
    4a8c:	fce79863          	bne	x15,x14,425c <.L17>
    4a90:	00412783          	lw	x15,4(x2)
    4a94:	7f079783          	lh	x15,2032(x15)
    4a98:	fc079263          	bnez	x15,425c <.L17>
    4a9c:	00412703          	lw	x14,4(x2)
    4aa0:	341537b7          	lui	x15,0x34153
    4aa4:	41578793          	addi	x15,x15,1045 # 34153415 <seed1_volatile+0x34112d55>
    4aa8:	7ef72623          	sw	x15,2028(x14)
    4aac:	06600793          	li	x15,102
    4ab0:	7ef71823          	sh	x15,2032(x14)
    4ab4:	fa8ff06f          	j	425c <.L17>

00004ab8 <.L14>:
    4ab8:	00700793          	li	x15,7
    4abc:	02f12e23          	sw	x15,60(x2)
    4ac0:	f70ff06f          	j	4230 <.L15>

00004ac4 <.L122>:
    4ac4:	00001737          	lui	x14,0x1
    4ac8:	83070713          	addi	x14,x14,-2000 # 830 <.L134+0x1c>
    4acc:	00270733          	add	x14,x14,x2
    4ad0:	00f707b3          	add	x15,x14,x15
    4ad4:	06010713          	addi	x14,x2,96
    4ad8:	00f12223          	sw	x15,4(x2)
    4adc:	7ee7ac23          	sw	x14,2040(x15)
    4ae0:	fe048263          	beqz	x9,42c4 <.L19>
    4ae4:	0240006f          	j	4b08 <.L123>

00004ae8 <.L124>:
    4ae8:	00098593          	mv	x11,x19
    4aec:	00090513          	mv	x10,x18
    4af0:	d68ff0ef          	jal	x1,4058 <__mulsi3>
    4af4:	06010793          	addi	x15,x2,96
    4af8:	00a787b3          	add	x15,x15,x10
    4afc:	02f12823          	sw	x15,48(x2)
    4b00:	fc0b0663          	beqz	x22,42cc <.L21>
    4b04:	b29ff06f          	j	462c <.L125>

00004b08 <.L123>:
    4b08:	000a8513          	mv	x10,x21
    4b0c:	00098593          	mv	x11,x19
    4b10:	d48ff0ef          	jal	x1,4058 <__mulsi3>
    4b14:	00001737          	lui	x14,0x1
    4b18:	83070713          	addi	x14,x14,-2000 # 830 <.L134+0x1c>
    4b1c:	fffffab7          	lui	x21,0xfffff
    4b20:	06010793          	addi	x15,x2,96
    4b24:	00270733          	add	x14,x14,x2
    4b28:	01570733          	add	x14,x14,x21
    4b2c:	00a787b3          	add	x15,x15,x10
    4b30:	00e12223          	sw	x14,4(x2)
    4b34:	7ef72e23          	sw	x15,2044(x14)
    4b38:	f80a0863          	beqz	x20,42c8 <.L20>
    4b3c:	fadff06f          	j	4ae8 <.L124>

00004b40 <.L65>:
    4b40:	00040537          	lui	x10,0x40
    4b44:	62050513          	addi	x10,x10,1568 # 40620 <.LC35>
    4b48:	bccfc0ef          	jal	x1,f14 <ee_printf>
    4b4c:	ef1ff06f          	j	4a3c <.L66>

00004b50 <.L121>:
    4b50:	00412703          	lw	x14,4(x2)
    4b54:	06600793          	li	x15,102
    4b58:	7ef71823          	sh	x15,2032(x14)
    4b5c:	f00ff06f          	j	425c <.L17>

00004b60 <.L128>:
    4b60:	00100593          	li	x11,1
    4b64:	875ff06f          	j	43d8 <.L31>

00004b68 <.L130>:
    4b68:	00040537          	lui	x10,0x40
    4b6c:	59c50513          	addi	x10,x10,1436 # 4059c <.LC30>
    4b70:	ba4fc0ef          	jal	x1,f14 <ee_printf>
    4b74:	00812703          	lw	x14,8(x2)
    4b78:	00300793          	li	x15,3
    4b7c:	ecf710e3          	bne	x14,x15,4a3c <.L66>
    4b80:	05cba583          	lw	x11,92(x23)
    4b84:	03812503          	lw	x10,56(x2)
    4b88:	cd0ff0ef          	jal	x1,4058 <__mulsi3>
    4b8c:	c4cff0ef          	jal	x1,3fd8 <__floatunsidf>
    4b90:	00050493          	mv	x9,x10
    4b94:	000a0513          	mv	x10,x20
    4b98:	00058413          	mv	x8,x11
    4b9c:	b8dfd0ef          	jal	x1,2728 <time_in_secs>
    4ba0:	00050613          	mv	x12,x10
    4ba4:	00058693          	mv	x13,x11
    4ba8:	00048513          	mv	x10,x9
    4bac:	00040593          	mv	x11,x8
    4bb0:	a05fe0ef          	jal	x1,35b4 <__divdf3>
    4bb4:	00050613          	mv	x12,x10
    4bb8:	00040537          	lui	x10,0x40
    4bbc:	00058693          	mv	x13,x11
    4bc0:	4d4b0793          	addi	x15,x22,1236
    4bc4:	4b0a8713          	addi	x14,x21,1200 # fffff4b0 <seed1_volatile+0xfffbedf0>
    4bc8:	5e850513          	addi	x10,x10,1512 # 405e8 <.LC31>
    4bcc:	b48fc0ef          	jal	x1,f14 <ee_printf>
    4bd0:	00040537          	lui	x10,0x40
    4bd4:	4f0c0593          	addi	x11,x24,1264
    4bd8:	60450513          	addi	x10,x10,1540 # 40604 <.LC32>
    4bdc:	b38fc0ef          	jal	x1,f14 <ee_printf>
    4be0:	00040537          	lui	x10,0x40
    4be4:	49450513          	addi	x10,x10,1172 # 40494 <.LC33>
    4be8:	b2cfc0ef          	jal	x1,f14 <ee_printf>
    4bec:	e51ff06f          	j	4a3c <.L66>

00004bf0 <.L48>:
    4bf0:	00040537          	lui	x10,0x40
    4bf4:	45850513          	addi	x10,x10,1112 # 40458 <.LC17>
    4bf8:	b1cfc0ef          	jal	x1,f14 <ee_printf>
    4bfc:	00140413          	addi	x8,x8,1
    4c00:	bfdff06f          	j	47fc <.L120>

00004c04 <.L32>:
    4c04:	00040537          	lui	x10,0x40
    4c08:	2a450513          	addi	x10,x10,676 # 402a4 <.LC5>
    4c0c:	b08fc0ef          	jal	x1,f14 <ee_printf>
    4c10:	00001b37          	lui	x22,0x1
    4c14:	199b0b13          	addi	x22,x22,409 # 1199 <.L61+0x9>
    4c18:	000049b7          	lui	x19,0x4
    4c1c:	00003ab7          	lui	x21,0x3
    4c20:	00100793          	li	x15,1
    4c24:	9bf98993          	addi	x19,x19,-1601 # 39bf <.LVL118+0x7>
    4c28:	000b0c13          	mv	x24,x22
    4c2c:	340a8a93          	addi	x21,x21,832 # 3340 <.L150+0x30>
    4c30:	00f12423          	sw	x15,8(x2)
    4c34:	8bdff06f          	j	44f0 <.L39>

00004c38 <.L34>:
    4c38:	00040537          	lui	x10,0x40
    4c3c:	33450513          	addi	x10,x10,820 # 40334 <.LC8>
    4c40:	ad4fc0ef          	jal	x1,f14 <ee_printf>
    4c44:	000099b7          	lui	x19,0x9
    4c48:	0000eab7          	lui	x21,0xe
    4c4c:	00400793          	li	x15,4
    4c50:	d8498993          	addi	x19,x19,-636 # 8d84 <.L119+0x40e0>
    4c54:	74700b13          	li	x22,1863
    4c58:	74700c13          	li	x24,1863
    4c5c:	3c1a8a93          	addi	x21,x21,961 # e3c1 <.L119+0x971d>
    4c60:	00f12423          	sw	x15,8(x2)
    4c64:	88dff06f          	j	44f0 <.L39>

00004c68 <.L37>:
    4c68:	00040537          	lui	x10,0x40
    4c6c:	0000cb37          	lui	x22,0xc
    4c70:	27450513          	addi	x10,x10,628 # 40274 <.LC4>
    4c74:	e52b0b13          	addi	x22,x22,-430 # be52 <.L119+0x71ae>
    4c78:	000069b7          	lui	x19,0x6
    4c7c:	0000dab7          	lui	x21,0xd
    4c80:	a94fc0ef          	jal	x1,f14 <ee_printf>
    4c84:	e4798993          	addi	x19,x19,-441 # 5e47 <.L119+0x11a3>
    4c88:	000b0c13          	mv	x24,x22
    4c8c:	4b0a8a93          	addi	x21,x21,1200 # d4b0 <.L119+0x880c>
    4c90:	00012423          	sw	x0,8(x2)
    4c94:	85dff06f          	j	44f0 <.L39>

00004c98 <.L57>:
    4c98:	0047f793          	andi	x15,x15,4
    4c9c:	d20786e3          	beqz	x15,49c8 <.L56>
    4ca0:	d89ff06f          	j	4a28 <.L60>

00004ca4 <.L119>:
    4ca4:	00010437          	lui	x8,0x10
    4ca8:	fff00793          	li	x15,-1
    4cac:	fff40413          	addi	x8,x8,-1 # ffff <.L119+0xb35b>
    4cb0:	00f12423          	sw	x15,8(x2)
    4cb4:	00040bb7          	lui	x23,0x40
    4cb8:	a7dff06f          	j	4734 <.L36>
